
ClockManager.o:     file format elf32-littlearm


Disassembly of section .text.FDy_cm_wait_for_fsm:

00000000 <FDy_cm_wait_for_fsm>:
   0:	4a03      	ldr	r2, [pc, #12]	; (10 <FDy_cm_wait_for_fsm+0x10>)
   2:	6953      	ldr	r3, [r2, #20]
   4:	f3bf 8f5f 	dmb	sy
   8:	07db      	lsls	r3, r3, #31
   a:	d4fa      	bmi.n	2 <FDy_cm_wait_for_fsm+0x2>
   c:	4770      	bx	lr
   e:	bf00      	nop
  10:	ffd04000 	.word	0xffd04000

Disassembly of section .text.FDy_cm_write_with_phase.constprop.0:

00000000 <FDy_cm_write_with_phase.constprop.0>:
   0:	680b      	ldr	r3, [r1, #0]
   2:	f3bf 8f5f 	dmb	sy
   6:	f413 6f60 	tst.w	r3, #3584	; 0xe00
   a:	d1f9      	bne.n	0 <FDy_cm_write_with_phase.constprop.0>
   c:	f3bf 8f5f 	dmb	sy
  10:	6008      	str	r0, [r1, #0]
  12:	680b      	ldr	r3, [r1, #0]
  14:	f3bf 8f5f 	dmb	sy
  18:	f413 6f60 	tst.w	r3, #3584	; 0xe00
  1c:	d1f9      	bne.n	12 <FDy_cm_write_with_phase.constprop.0+0x12>
  1e:	4770      	bx	lr

Disassembly of section .text.FDy_cm_basic_init:

00000000 <FDy_cm_basic_init>:
   0:	b537      	push	{r0, r1, r2, r4, r5, lr}
   2:	4999      	ldr	r1, [pc, #612]	; (268 <FDy_cm_basic_init+0x268>)
   4:	f8d1 30a0 	ldr.w	r3, [r1, #160]	; 0xa0
   8:	f3bf 8f5f 	dmb	sy
   c:	f423 6380 	bic.w	r3, r3, #1024	; 0x400
  10:	f3bf 8f5f 	dmb	sy
  14:	f8c1 30a0 	str.w	r3, [r1, #160]	; 0xa0
  18:	f3bf 8f5f 	dmb	sy
  1c:	f44f 733d 	mov.w	r3, #756	; 0x2f4
  20:	660b      	str	r3, [r1, #96]	; 0x60
  22:	f3bf 8f5f 	dmb	sy
  26:	2000      	movs	r0, #0
  28:	f8c1 00d8 	str.w	r0, [r1, #216]	; 0xd8
  2c:	f3bf 8f5f 	dmb	sy
  30:	f8c1 00a0 	str.w	r0, [r1, #160]	; 0xa0
  34:	f3bf 8f5f 	dmb	sy
  38:	230b      	movs	r3, #11
  3a:	604b      	str	r3, [r1, #4]
  3c:	f7ff fffe 	bl	0 <FDy_cm_basic_init>
  40:	f3bf 8f5f 	dmb	sy
  44:	4b89      	ldr	r3, [pc, #548]	; (26c <FDy_cm_basic_init+0x26c>)
  46:	640b      	str	r3, [r1, #64]	; 0x40
  48:	f3bf 8f5f 	dmb	sy
  4c:	f8c1 3080 	str.w	r3, [r1, #128]	; 0x80
  50:	f3bf 8f5f 	dmb	sy
  54:	f8c1 30c0 	str.w	r3, [r1, #192]	; 0xc0
  58:	f3bf 8f5f 	dmb	sy
  5c:	2315      	movs	r3, #21
  5e:	f8c1 30ac 	str.w	r3, [r1, #172]	; 0xac
  62:	f3bf 8f5f 	dmb	sy
  66:	6708      	str	r0, [r1, #112]	; 0x70
  68:	6c0b      	ldr	r3, [r1, #64]	; 0x40
  6a:	f3bf 8f5f 	dmb	sy
  6e:	f8d1 3080 	ldr.w	r3, [r1, #128]	; 0x80
  72:	f3bf 8f5f 	dmb	sy
  76:	f8d1 30c0 	ldr.w	r3, [r1, #192]	; 0xc0
  7a:	f3bf 8f5f 	dmb	sy
  7e:	f3bf 8f5f 	dmb	sy
  82:	f44f 73fc 	mov.w	r3, #504	; 0x1f8
  86:	640b      	str	r3, [r1, #64]	; 0x40
  88:	f3bf 8f5f 	dmb	sy
  8c:	f44f 739c 	mov.w	r3, #312	; 0x138
  90:	f8c1 3080 	str.w	r3, [r1, #128]	; 0x80
  94:	f3bf 8f5f 	dmb	sy
  98:	23f8      	movs	r3, #248	; 0xf8
  9a:	f8c1 30c0 	str.w	r3, [r1, #192]	; 0xc0
  9e:	f3bf 8f5f 	dmb	sy
  a2:	6488      	str	r0, [r1, #72]	; 0x48
  a4:	f3bf 8f5f 	dmb	sy
  a8:	2301      	movs	r3, #1
  aa:	f8c1 30e0 	str.w	r3, [r1, #224]	; 0xe0
  ae:	f3bf 8f5f 	dmb	sy
  b2:	64c8      	str	r0, [r1, #76]	; 0x4c
  b4:	f3bf 8f5f 	dmb	sy
  b8:	6508      	str	r0, [r1, #80]	; 0x50
  ba:	f3bf 8f5f 	dmb	sy
  be:	230f      	movs	r3, #15
  c0:	65cb      	str	r3, [r1, #92]	; 0x5c
  c2:	f3bf 8f5f 	dmb	sy
  c6:	f240 13ff 	movw	r3, #511	; 0x1ff
  ca:	f8c1 3088 	str.w	r3, [r1, #136]	; 0x88
  ce:	f3bf 8f5f 	dmb	sy
  d2:	2203      	movs	r2, #3
  d4:	f8c1 208c 	str.w	r2, [r1, #140]	; 0x8c
  d8:	f3bf 8f5f 	dmb	sy
  dc:	654a      	str	r2, [r1, #84]	; 0x54
  de:	f3bf 8f5f 	dmb	sy
  e2:	f8c1 3090 	str.w	r3, [r1, #144]	; 0x90
  e6:	f3bf 8f5f 	dmb	sy
  ea:	658b      	str	r3, [r1, #88]	; 0x58
  ec:	f3bf 8f5f 	dmb	sy
  f0:	2204      	movs	r2, #4
  f2:	f8c1 2094 	str.w	r2, [r1, #148]	; 0x94
  f6:	f3bf 8f5f 	dmb	sy
  fa:	f8c1 2098 	str.w	r2, [r1, #152]	; 0x98
  fe:	f3bf 8f5f 	dmb	sy
 102:	f8c1 309c 	str.w	r3, [r1, #156]	; 0x9c
 106:	4b5a      	ldr	r3, [pc, #360]	; (270 <FDy_cm_basic_init+0x270>)
 108:	9001      	str	r0, [sp, #4]
 10a:	3002      	adds	r0, #2
 10c:	4298      	cmp	r0, r3
 10e:	d1fb      	bne.n	108 <FDy_cm_basic_init+0x108>
 110:	f3bf 8f5f 	dmb	sy
 114:	f44f 73fd 	mov.w	r3, #506	; 0x1fa
 118:	640b      	str	r3, [r1, #64]	; 0x40
 11a:	f3bf 8f5f 	dmb	sy
 11e:	f44f 739d 	mov.w	r3, #314	; 0x13a
 122:	f8c1 3080 	str.w	r3, [r1, #128]	; 0x80
 126:	f3bf 8f5f 	dmb	sy
 12a:	23fa      	movs	r3, #250	; 0xfa
 12c:	f8c1 30c0 	str.w	r3, [r1, #192]	; 0xc0
 130:	f3bf 8f5f 	dmb	sy
 134:	2395      	movs	r3, #149	; 0x95
 136:	664b      	str	r3, [r1, #100]	; 0x64
 138:	f3bf 8f5f 	dmb	sy
 13c:	2304      	movs	r3, #4
 13e:	668b      	str	r3, [r1, #104]	; 0x68
 140:	f3bf 8f5f 	dmb	sy
 144:	2300      	movs	r3, #0
 146:	66cb      	str	r3, [r1, #108]	; 0x6c
 148:	f3bf 8f5f 	dmb	sy
 14c:	f44f 6210 	mov.w	r2, #2304	; 0x900
 150:	f8c1 20a4 	str.w	r2, [r1, #164]	; 0xa4
 154:	f3bf 8f5f 	dmb	sy
 158:	4c43      	ldr	r4, [pc, #268]	; (268 <FDy_cm_basic_init+0x268>)
 15a:	f641 0269 	movw	r2, #6249	; 0x1869
 15e:	f8c1 20a8 	str.w	r2, [r1, #168]	; 0xa8
 162:	68a2      	ldr	r2, [r4, #8]
 164:	f3bf 8f5f 	dmb	sy
 168:	f402 72e0 	and.w	r2, r2, #448	; 0x1c0
 16c:	f5b2 7fe0 	cmp.w	r2, #448	; 0x1c0
 170:	d178      	bne.n	264 <FDy_cm_basic_init+0x264>
 172:	3301      	adds	r3, #1
 174:	2b09      	cmp	r3, #9
 176:	d9f4      	bls.n	162 <FDy_cm_basic_init+0x162>
 178:	f3bf 8f5f 	dmb	sy
 17c:	2001      	movs	r0, #1
 17e:	f8c4 00c8 	str.w	r0, [r4, #200]	; 0xc8
 182:	f3bf 8f5f 	dmb	sy
 186:	2500      	movs	r5, #0
 188:	f8c4 50cc 	str.w	r5, [r4, #204]	; 0xcc
 18c:	f3bf 8f5f 	dmb	sy
 190:	f8c4 00d0 	str.w	r0, [r4, #208]	; 0xd0
 194:	f3bf 8f5f 	dmb	sy
 198:	2305      	movs	r3, #5
 19a:	f8c4 30d4 	str.w	r3, [r4, #212]	; 0xd4
 19e:	6c22      	ldr	r2, [r4, #64]	; 0x40
 1a0:	f3bf 8f5f 	dmb	sy
 1a4:	f042 7380 	orr.w	r3, r2, #16777216	; 0x1000000
 1a8:	f3bf 8f5f 	dmb	sy
 1ac:	6423      	str	r3, [r4, #64]	; 0x40
 1ae:	f8d4 3080 	ldr.w	r3, [r4, #128]	; 0x80
 1b2:	f3bf 8f5f 	dmb	sy
 1b6:	f043 7180 	orr.w	r1, r3, #16777216	; 0x1000000
 1ba:	f3bf 8f5f 	dmb	sy
 1be:	f8c4 1080 	str.w	r1, [r4, #128]	; 0x80
 1c2:	f3bf 8f5f 	dmb	sy
 1c6:	492b      	ldr	r1, [pc, #172]	; (274 <FDy_cm_basic_init+0x274>)
 1c8:	f022 7280 	bic.w	r2, r2, #16777216	; 0x1000000
 1cc:	f8c4 10c0 	str.w	r1, [r4, #192]	; 0xc0
 1d0:	f3bf 8f5f 	dmb	sy
 1d4:	f023 7380 	bic.w	r3, r3, #16777216	; 0x1000000
 1d8:	6422      	str	r2, [r4, #64]	; 0x40
 1da:	f3bf 8f5f 	dmb	sy
 1de:	f8c4 3080 	str.w	r3, [r4, #128]	; 0x80
 1e2:	f3bf 8f5f 	dmb	sy
 1e6:	4924      	ldr	r1, [pc, #144]	; (278 <FDy_cm_basic_init+0x278>)
 1e8:	23fa      	movs	r3, #250	; 0xfa
 1ea:	f8c4 30c0 	str.w	r3, [r4, #192]	; 0xc0
 1ee:	f7ff fffe 	bl	0 <FDy_cm_basic_init>
 1f2:	4628      	mov	r0, r5
 1f4:	3104      	adds	r1, #4
 1f6:	f7ff fffe 	bl	0 <FDy_cm_basic_init>
 1fa:	3104      	adds	r1, #4
 1fc:	f640 0001 	movw	r0, #2049	; 0x801
 200:	f7ff fffe 	bl	0 <FDy_cm_basic_init>
 204:	3104      	adds	r1, #4
 206:	f240 10ff 	movw	r0, #511	; 0x1ff
 20a:	f7ff fffe 	bl	0 <FDy_cm_basic_init>
 20e:	f3bf 8f5f 	dmb	sy
 212:	6065      	str	r5, [r4, #4]
 214:	f7ff fffe 	bl	0 <FDy_cm_basic_init>
 218:	6823      	ldr	r3, [r4, #0]
 21a:	f3bf 8f5f 	dmb	sy
 21e:	f043 0301 	orr.w	r3, r3, #1
 222:	f3bf 8f5f 	dmb	sy
 226:	6023      	str	r3, [r4, #0]
 228:	f7ff fffe 	bl	0 <FDy_cm_basic_init>
 22c:	f3bf 8f5f 	dmb	sy
 230:	231a      	movs	r3, #26
 232:	f8c4 30ac 	str.w	r3, [r4, #172]	; 0xac
 236:	f3bf 8f5f 	dmb	sy
 23a:	2303      	movs	r3, #3
 23c:	6723      	str	r3, [r4, #112]	; 0x70
 23e:	f3bf 8f5f 	dmb	sy
 242:	f04f 33ff 	mov.w	r3, #4294967295
 246:	6623      	str	r3, [r4, #96]	; 0x60
 248:	f3bf 8f5f 	dmb	sy
 24c:	f8c4 30a0 	str.w	r3, [r4, #160]	; 0xa0
 250:	f3bf 8f5f 	dmb	sy
 254:	f8c4 30d8 	str.w	r3, [r4, #216]	; 0xd8
 258:	f3bf 8f5f 	dmb	sy
 25c:	2338      	movs	r3, #56	; 0x38
 25e:	60a3      	str	r3, [r4, #8]
 260:	b003      	add	sp, #12
 262:	bd30      	pop	{r4, r5, pc}
 264:	2300      	movs	r3, #0
 266:	e77c      	b.n	162 <FDy_cm_basic_init+0x162>
 268:	ffd04000 	.word	0xffd04000
 26c:	0001000d 	.word	0x0001000d
 270:	000222e0 	.word	0x000222e0
 274:	010000fa 	.word	0x010000fa
 278:	ffd040c8 	.word	0xffd040c8
