
myBoot.o:     file format elf32-littlearm


Disassembly of section .text:

ffff0000 <__image_copy_start>:
ffff0000:	ea00000f 	b	ffff0044 <reset>
ffff0004:	e59ff014 	ldr	pc, [pc, #20]	; ffff0020 <_undefined_instruction>
ffff0008:	e59ff014 	ldr	pc, [pc, #20]	; ffff0024 <_software_interrupt>
ffff000c:	e59ff014 	ldr	pc, [pc, #20]	; ffff0028 <_prefetch_abort>
ffff0010:	e59ff014 	ldr	pc, [pc, #20]	; ffff002c <_data_abort>
ffff0014:	e59ff014 	ldr	pc, [pc, #20]	; ffff0030 <_not_used>
ffff0018:	e59ff014 	ldr	pc, [pc, #20]	; ffff0034 <_irq>
ffff001c:	e59ff014 	ldr	pc, [pc, #20]	; ffff0038 <_fiq>

ffff0020 <_undefined_instruction>:
ffff0020:	ffff0040 	.word	0xffff0040

ffff0024 <_software_interrupt>:
ffff0024:	ffff0040 	.word	0xffff0040

ffff0028 <_prefetch_abort>:
ffff0028:	ffff0040 	.word	0xffff0040

ffff002c <_data_abort>:
ffff002c:	ffff0040 	.word	0xffff0040

ffff0030 <_not_used>:
ffff0030:	ffff0040 	.word	0xffff0040

ffff0034 <_irq>:
ffff0034:	ffff0104 	.word	0xffff0104

ffff0038 <_fiq>:
ffff0038:	ffff0040 	.word	0xffff0040
ffff003c:	deadbeef 	.word	0xdeadbeef

ffff0040 <data_abort>:
ffff0040:	ebfffffe 	bl	ffff0040 <data_abort>

ffff0044 <reset>:
ffff0044:	e10f0000 	mrs	r0, CPSR
ffff0048:	e200101f 	and	r1, r0, #31
ffff004c:	e331001a 	teq	r1, #26
ffff0050:	13c0001f 	bicne	r0, r0, #31
ffff0054:	13800013 	orrne	r0, r0, #19
ffff0058:	e38000c0 	orr	r0, r0, #192	; 0xc0
ffff005c:	e129f000 	msr	CPSR_fc, r0
ffff0060:	ee110f10 	mrc	15, 0, r0, cr1, cr0, {0}
ffff0064:	e3c00a02 	bic	r0, r0, #8192	; 0x2000
ffff0068:	ee010f10 	mcr	15, 0, r0, cr1, cr0, {0}
ffff006c:	e59f00c0 	ldr	r0, [pc, #192]	; ffff0134 <UartData+0x4>
ffff0070:	ee0c0f10 	mcr	15, 0, r0, cr12, cr0, {0}
ffff0074:	eb000004 	bl	ffff008c <cpu_init_cp15>
ffff0078:	eb000018 	bl	ffff00e0 <_main>

ffff007c <c_runtime_cpu_setup>:
ffff007c:	ee070f15 	mcr	15, 0, r0, cr7, cr5, {0}
ffff0080:	ee070f9a 	mcr	15, 0, r0, cr7, cr10, {4}
ffff0084:	ee070f95 	mcr	15, 0, r0, cr7, cr5, {4}
ffff0088:	e12fff1e 	bx	lr

ffff008c <cpu_init_cp15>:
ffff008c:	e3a00000 	mov	r0, #0
ffff0090:	ee080f17 	mcr	15, 0, r0, cr8, cr7, {0}
ffff0094:	ee070f15 	mcr	15, 0, r0, cr7, cr5, {0}
ffff0098:	ee070fd5 	mcr	15, 0, r0, cr7, cr5, {6}
ffff009c:	ee070f9a 	mcr	15, 0, r0, cr7, cr10, {4}
ffff00a0:	ee070f95 	mcr	15, 0, r0, cr7, cr5, {4}
ffff00a4:	ee110f10 	mrc	15, 0, r0, cr1, cr0, {0}
ffff00a8:	e3c00a02 	bic	r0, r0, #8192	; 0x2000
ffff00ac:	e3c00007 	bic	r0, r0, #7
ffff00b0:	e3800002 	orr	r0, r0, #2
ffff00b4:	e3800b02 	orr	r0, r0, #2048	; 0x800
ffff00b8:	e3800a01 	orr	r0, r0, #4096	; 0x1000
ffff00bc:	ee010f10 	mcr	15, 0, r0, cr1, cr0, {0}
ffff00c0:	e1a0500e 	mov	r5, lr
ffff00c4:	ee101f10 	mrc	15, 0, r1, cr0, cr0, {0}
ffff00c8:	e1a03a21 	lsr	r3, r1, #20
ffff00cc:	e203300f 	and	r3, r3, #15
ffff00d0:	e201400f 	and	r4, r1, #15
ffff00d4:	e1a02203 	lsl	r2, r3, #4
ffff00d8:	e1842002 	orr	r2, r4, r2
ffff00dc:	e1a0f005 	mov	pc, r5

ffff00e0 <_main>:
ffff00e0:	e59f004c 	ldr	r0, [pc, #76]	; ffff0134 <UartData+0x4>
ffff00e4:	ee0c0f10 	mcr	15, 0, r0, cr12, cr0, {0}
ffff00e8:	e3e000bf 	mvn	r0, #191	; 0xbf
ffff00ec:	e3e000ff 	mvn	r0, #255	; 0xff
ffff00f0:	e3c00007 	bic	r0, r0, #7
ffff00f4:	e1a0d000 	mov	sp, r0
ffff00f8:	e1a09000 	mov	r9, r0
ffff00fc:	e3a00000 	mov	r0, #0
ffff0100:	fa00016e 	blx	ffff06c0 <board_init>

ffff0104 <irq>:
ffff0104:	e92d40ff 	push	{r0, r1, r2, r3, r4, r5, r6, r7, lr}
ffff0108:	e59f001c 	ldr	r0, [pc, #28]	; ffff012c <UartValue>
ffff010c:	e59f101c 	ldr	r1, [pc, #28]	; ffff0130 <UartData>
ffff0110:	e5810000 	str	r0, [r1]
ffff0114:	fa0016ee 	blx	ffff5cd4 <alt_int_handler_irq>
ffff0118:	e8bd40ff 	pop	{r0, r1, r2, r3, r4, r5, r6, r7, lr}
ffff011c:	e25ef004 	subs	pc, lr, #4

ffff0120 <lirq>:
ffff0120:	ebfffffe 	bl	ffff0120 <lirq>

ffff0124 <LedValue>:
ffff0124:	01000000 	.word	0x01000000

ffff0128 <LedData>:
ffff0128:	ff709000 	.word	0xff709000

ffff012c <UartValue>:
ffff012c:	00000049 	.word	0x00000049

ffff0130 <UartData>:
ffff0130:	ffc02000 	.word	0xffc02000
ffff0134:	ffff0000 	.word	0xffff0000

ffff0138 <get_ticks>:
ffff0138:	4b07      	ldr	r3, [pc, #28]	; (ffff0158 <get_ticks+0x20>)
ffff013a:	6858      	ldr	r0, [r3, #4]
ffff013c:	f3bf 8f5f 	dmb	sy
ffff0140:	4906      	ldr	r1, [pc, #24]	; (ffff015c <get_ticks+0x24>)
ffff0142:	680b      	ldr	r3, [r1, #0]
ffff0144:	6008      	str	r0, [r1, #0]
ffff0146:	4283      	cmp	r3, r0
ffff0148:	4b05      	ldr	r3, [pc, #20]	; (ffff0160 <get_ticks+0x28>)
ffff014a:	bf3e      	ittt	cc
ffff014c:	681a      	ldrcc	r2, [r3, #0]
ffff014e:	f102 32ff 	addcc.w	r2, r2, #4294967295
ffff0152:	601a      	strcc	r2, [r3, #0]
ffff0154:	6819      	ldr	r1, [r3, #0]
ffff0156:	4770      	bx	lr
ffff0158:	ffd00000 	.word	0xffd00000
ffff015c:	ffff79fc 	.word	0xffff79fc
ffff0160:	ffff79f8 	.word	0xffff79f8

ffff0164 <getc>:
ffff0164:	4b03      	ldr	r3, [pc, #12]	; (ffff0174 <getc+0x10>)
ffff0166:	695a      	ldr	r2, [r3, #20]
ffff0168:	07d2      	lsls	r2, r2, #31
ffff016a:	d5fc      	bpl.n	ffff0166 <getc+0x2>
ffff016c:	6818      	ldr	r0, [r3, #0]
ffff016e:	b2c0      	uxtb	r0, r0
ffff0170:	4770      	bx	lr
ffff0172:	bf00      	nop
ffff0174:	ffc02000 	.word	0xffc02000

ffff0178 <putc>:
ffff0178:	4b02      	ldr	r3, [pc, #8]	; (ffff0184 <putc+0xc>)
ffff017a:	695a      	ldr	r2, [r3, #20]
ffff017c:	0692      	lsls	r2, r2, #26
ffff017e:	d5fc      	bpl.n	ffff017a <putc+0x2>
ffff0180:	6018      	str	r0, [r3, #0]
ffff0182:	4770      	bx	lr
ffff0184:	ffc02000 	.word	0xffc02000

ffff0188 <PutNible>:
ffff0188:	4603      	mov	r3, r0
ffff018a:	3030      	adds	r0, #48	; 0x30
ffff018c:	b2c0      	uxtb	r0, r0
ffff018e:	2839      	cmp	r0, #57	; 0x39
ffff0190:	bf84      	itt	hi
ffff0192:	3337      	addhi	r3, #55	; 0x37
ffff0194:	b2d8      	uxtbhi	r0, r3
ffff0196:	f7ff bfef 	b.w	ffff0178 <putc>

ffff019a <PutByte>:
ffff019a:	b508      	push	{r3, lr}
ffff019c:	4601      	mov	r1, r0
ffff019e:	0900      	lsrs	r0, r0, #4
ffff01a0:	f7ff fff2 	bl	ffff0188 <PutNible>
ffff01a4:	f001 000f 	and.w	r0, r1, #15
ffff01a8:	e8bd 4008 	ldmia.w	sp!, {r3, lr}
ffff01ac:	f7ff bfec 	b.w	ffff0188 <PutNible>

ffff01b0 <putHexa32>:
ffff01b0:	b510      	push	{r4, lr}
ffff01b2:	4604      	mov	r4, r0
ffff01b4:	2030      	movs	r0, #48	; 0x30
ffff01b6:	f7ff ffdf 	bl	ffff0178 <putc>
ffff01ba:	2078      	movs	r0, #120	; 0x78
ffff01bc:	f7ff ffdc 	bl	ffff0178 <putc>
ffff01c0:	0e20      	lsrs	r0, r4, #24
ffff01c2:	f7ff ffea 	bl	ffff019a <PutByte>
ffff01c6:	f3c4 4007 	ubfx	r0, r4, #16, #8
ffff01ca:	f7ff ffe6 	bl	ffff019a <PutByte>
ffff01ce:	f3c4 2007 	ubfx	r0, r4, #8, #8
ffff01d2:	f7ff ffe2 	bl	ffff019a <PutByte>
ffff01d6:	b2e0      	uxtb	r0, r4
ffff01d8:	e8bd 4010 	ldmia.w	sp!, {r4, lr}
ffff01dc:	f7ff bfdd 	b.w	ffff019a <PutByte>

ffff01e0 <putHexa64>:
ffff01e0:	b538      	push	{r3, r4, r5, lr}
ffff01e2:	4604      	mov	r4, r0
ffff01e4:	2030      	movs	r0, #48	; 0x30
ffff01e6:	460d      	mov	r5, r1
ffff01e8:	f7ff ffc6 	bl	ffff0178 <putc>
ffff01ec:	2078      	movs	r0, #120	; 0x78
ffff01ee:	f7ff ffc3 	bl	ffff0178 <putc>
ffff01f2:	0e08      	lsrs	r0, r1, #24
ffff01f4:	f7ff ffd1 	bl	ffff019a <PutByte>
ffff01f8:	f3c5 4007 	ubfx	r0, r5, #16, #8
ffff01fc:	f7ff ffcd 	bl	ffff019a <PutByte>
ffff0200:	f3c5 2007 	ubfx	r0, r5, #8, #8
ffff0204:	f7ff ffc9 	bl	ffff019a <PutByte>
ffff0208:	b2e8      	uxtb	r0, r5
ffff020a:	f7ff ffc6 	bl	ffff019a <PutByte>
ffff020e:	0e20      	lsrs	r0, r4, #24
ffff0210:	f7ff ffc3 	bl	ffff019a <PutByte>
ffff0214:	f3c4 4007 	ubfx	r0, r4, #16, #8
ffff0218:	f7ff ffbf 	bl	ffff019a <PutByte>
ffff021c:	f3c4 2007 	ubfx	r0, r4, #8, #8
ffff0220:	f7ff ffbb 	bl	ffff019a <PutByte>
ffff0224:	b2e0      	uxtb	r0, r4
ffff0226:	e8bd 4038 	ldmia.w	sp!, {r3, r4, r5, lr}
ffff022a:	f7ff bfb6 	b.w	ffff019a <PutByte>

ffff022e <puts>:
ffff022e:	1e41      	subs	r1, r0, #1
ffff0230:	b508      	push	{r3, lr}
ffff0232:	f811 0f01 	ldrb.w	r0, [r1, #1]!
ffff0236:	b900      	cbnz	r0, ffff023a <puts+0xc>
ffff0238:	bd08      	pop	{r3, pc}
ffff023a:	f7ff ff9d 	bl	ffff0178 <putc>
ffff023e:	e7f8      	b.n	ffff0232 <puts+0x4>

ffff0240 <HexDump>:
ffff0240:	e92d 4df3 	stmdb	sp!, {r0, r1, r4, r5, r6, r7, r8, sl, fp, lr}
ffff0244:	4606      	mov	r6, r0
ffff0246:	4f23      	ldr	r7, [pc, #140]	; (ffff02d4 <HexDump+0x94>)
ffff0248:	460d      	mov	r5, r1
ffff024a:	f04f 0b00 	mov.w	fp, #0
ffff024e:	45ab      	cmp	fp, r5
ffff0250:	d302      	bcc.n	ffff0258 <HexDump+0x18>
ffff0252:	b002      	add	sp, #8
ffff0254:	e8bd 8df0 	ldmia.w	sp!, {r4, r5, r6, r7, r8, sl, fp, pc}
ffff0258:	f8df 8078 	ldr.w	r8, [pc, #120]	; ffff02d4 <HexDump+0x94>
ffff025c:	eb06 000b 	add.w	r0, r6, fp
ffff0260:	f8df a074 	ldr.w	sl, [pc, #116]	; ffff02d8 <HexDump+0x98>
ffff0264:	465c      	mov	r4, fp
ffff0266:	f7ff ffa3 	bl	ffff01b0 <putHexa32>
ffff026a:	481c      	ldr	r0, [pc, #112]	; (ffff02dc <HexDump+0x9c>)
ffff026c:	f7ff ffdf 	bl	ffff022e <puts>
ffff0270:	4638      	mov	r0, r7
ffff0272:	2214      	movs	r2, #20
ffff0274:	2100      	movs	r1, #0
ffff0276:	f005 fef3 	bl	ffff6060 <memset>
ffff027a:	42a5      	cmp	r5, r4
ffff027c:	d321      	bcc.n	ffff02c2 <HexDump+0x82>
ffff027e:	5d31      	ldrb	r1, [r6, r4]
ffff0280:	9101      	str	r1, [sp, #4]
ffff0282:	4608      	mov	r0, r1
ffff0284:	f7ff ff89 	bl	ffff019a <PutByte>
ffff0288:	2020      	movs	r0, #32
ffff028a:	f7ff ff75 	bl	ffff0178 <putc>
ffff028e:	9901      	ldr	r1, [sp, #4]
ffff0290:	f1a1 0020 	sub.w	r0, r1, #32
ffff0294:	285a      	cmp	r0, #90	; 0x5a
ffff0296:	bf88      	it	hi
ffff0298:	212e      	movhi	r1, #46	; 0x2e
ffff029a:	f888 1000 	strb.w	r1, [r8]
ffff029e:	3401      	adds	r4, #1
ffff02a0:	f10b 0110 	add.w	r1, fp, #16
ffff02a4:	f108 0801 	add.w	r8, r8, #1
ffff02a8:	428c      	cmp	r4, r1
ffff02aa:	d1e6      	bne.n	ffff027a <HexDump+0x3a>
ffff02ac:	480c      	ldr	r0, [pc, #48]	; (ffff02e0 <HexDump+0xa0>)
ffff02ae:	46a3      	mov	fp, r4
ffff02b0:	f7ff ffbd 	bl	ffff022e <puts>
ffff02b4:	4638      	mov	r0, r7
ffff02b6:	f7ff ffba 	bl	ffff022e <puts>
ffff02ba:	480a      	ldr	r0, [pc, #40]	; (ffff02e4 <HexDump+0xa4>)
ffff02bc:	f7ff ffb7 	bl	ffff022e <puts>
ffff02c0:	e7c5      	b.n	ffff024e <HexDump+0xe>
ffff02c2:	4650      	mov	r0, sl
ffff02c4:	f7ff ffb3 	bl	ffff022e <puts>
ffff02c8:	f04f 0320 	mov.w	r3, #32
ffff02cc:	f888 3000 	strb.w	r3, [r8]
ffff02d0:	e7e5      	b.n	ffff029e <HexDump+0x5e>
ffff02d2:	bf00      	nop
ffff02d4:	ffff79e4 	.word	0xffff79e4
ffff02d8:	ffff70eb 	.word	0xffff70eb
ffff02dc:	ffff7517 	.word	0xffff7517
ffff02e0:	ffff7518 	.word	0xffff7518
ffff02e4:	ffff6f87 	.word	0xffff6f87

ffff02e8 <prints>:
ffff02e8:	b5f8      	push	{r3, r4, r5, r6, r7, lr}
ffff02ea:	2900      	cmp	r1, #0
ffff02ec:	4604      	mov	r4, r0
ffff02ee:	dc13      	bgt.n	ffff0318 <prints+0x30>
ffff02f0:	2520      	movs	r5, #32
ffff02f2:	07d3      	lsls	r3, r2, #31
ffff02f4:	d51b      	bpl.n	ffff032e <prints+0x46>
ffff02f6:	2300      	movs	r3, #0
ffff02f8:	1b1e      	subs	r6, r3, r4
ffff02fa:	e01d      	b.n	ffff0338 <prints+0x50>
ffff02fc:	3301      	adds	r3, #1
ffff02fe:	5ce0      	ldrb	r0, [r4, r3]
ffff0300:	2800      	cmp	r0, #0
ffff0302:	d1fb      	bne.n	ffff02fc <prints+0x14>
ffff0304:	428b      	cmp	r3, r1
ffff0306:	bfb4      	ite	lt
ffff0308:	1ac9      	sublt	r1, r1, r3
ffff030a:	4601      	movge	r1, r0
ffff030c:	f012 0f02 	tst.w	r2, #2
ffff0310:	bf0c      	ite	eq
ffff0312:	2520      	moveq	r5, #32
ffff0314:	2530      	movne	r5, #48	; 0x30
ffff0316:	e7ec      	b.n	ffff02f2 <prints+0xa>
ffff0318:	2300      	movs	r3, #0
ffff031a:	e7f0      	b.n	ffff02fe <prints+0x16>
ffff031c:	3e01      	subs	r6, #1
ffff031e:	f7ff ff2b 	bl	ffff0178 <putc>
ffff0322:	2e00      	cmp	r6, #0
ffff0324:	dcfa      	bgt.n	ffff031c <prints+0x34>
ffff0326:	ea21 73e1 	bic.w	r3, r1, r1, asr #31
ffff032a:	1ac9      	subs	r1, r1, r3
ffff032c:	e7e4      	b.n	ffff02f8 <prints+0x10>
ffff032e:	460e      	mov	r6, r1
ffff0330:	b2e8      	uxtb	r0, r5
ffff0332:	e7f6      	b.n	ffff0322 <prints+0x3a>
ffff0334:	f7ff ff20 	bl	ffff0178 <putc>
ffff0338:	1937      	adds	r7, r6, r4
ffff033a:	f814 0b01 	ldrb.w	r0, [r4], #1
ffff033e:	2800      	cmp	r0, #0
ffff0340:	d1f8      	bne.n	ffff0334 <prints+0x4c>
ffff0342:	460c      	mov	r4, r1
ffff0344:	b2e8      	uxtb	r0, r5
ffff0346:	2c00      	cmp	r4, #0
ffff0348:	dc04      	bgt.n	ffff0354 <prints+0x6c>
ffff034a:	2900      	cmp	r1, #0
ffff034c:	bfac      	ite	ge
ffff034e:	1878      	addge	r0, r7, r1
ffff0350:	1c38      	addlt	r0, r7, #0
ffff0352:	bdf8      	pop	{r3, r4, r5, r6, r7, pc}
ffff0354:	3c01      	subs	r4, #1
ffff0356:	f7ff ff0f 	bl	ffff0178 <putc>
ffff035a:	e7f4      	b.n	ffff0346 <prints+0x5e>

ffff035c <printi>:
ffff035c:	e92d 4df0 	stmdb	sp!, {r4, r5, r6, r7, r8, sl, fp, lr}
ffff0360:	4682      	mov	sl, r0
ffff0362:	4688      	mov	r8, r1
ffff0364:	b08c      	sub	sp, #48	; 0x30
ffff0366:	461f      	mov	r7, r3
ffff0368:	4683      	mov	fp, r0
ffff036a:	e9dd 5614 	ldrd	r5, r6, [sp, #80]	; 0x50
ffff036e:	9200      	str	r2, [sp, #0]
ffff0370:	9101      	str	r1, [sp, #4]
ffff0372:	f016 0404 	ands.w	r4, r6, #4
ffff0376:	d00e      	beq.n	ffff0396 <printi+0x3a>
ffff0378:	4632      	mov	r2, r6
ffff037a:	4629      	mov	r1, r5
ffff037c:	a805      	add	r0, sp, #20
ffff037e:	2330      	movs	r3, #48	; 0x30
ffff0380:	f88d 3014 	strb.w	r3, [sp, #20]
ffff0384:	2378      	movs	r3, #120	; 0x78
ffff0386:	f88d 3015 	strb.w	r3, [sp, #21]
ffff038a:	2300      	movs	r3, #0
ffff038c:	f88d 3016 	strb.w	r3, [sp, #22]
ffff0390:	f7ff ffaa 	bl	ffff02e8 <prints>
ffff0394:	4604      	mov	r4, r0
ffff0396:	ea5a 0308 	orrs.w	r3, sl, r8
ffff039a:	d10d      	bne.n	ffff03b8 <printi+0x5c>
ffff039c:	4632      	mov	r2, r6
ffff039e:	4629      	mov	r1, r5
ffff03a0:	a806      	add	r0, sp, #24
ffff03a2:	2330      	movs	r3, #48	; 0x30
ffff03a4:	f88d 3018 	strb.w	r3, [sp, #24]
ffff03a8:	2300      	movs	r3, #0
ffff03aa:	f88d 3019 	strb.w	r3, [sp, #25]
ffff03ae:	f7ff ff9b 	bl	ffff02e8 <prints>
ffff03b2:	b00c      	add	sp, #48	; 0x30
ffff03b4:	e8bd 8df0 	ldmia.w	sp!, {r4, r5, r6, r7, r8, sl, fp, pc}
ffff03b8:	b167      	cbz	r7, ffff03d4 <printi+0x78>
ffff03ba:	9b00      	ldr	r3, [sp, #0]
ffff03bc:	2b0a      	cmp	r3, #10
ffff03be:	d140      	bne.n	ffff0442 <printi+0xe6>
ffff03c0:	f1b8 0f00 	cmp.w	r8, #0
ffff03c4:	da3d      	bge.n	ffff0442 <printi+0xe6>
ffff03c6:	f1da 0b00 	rsbs	fp, sl, #0
ffff03ca:	f04f 0701 	mov.w	r7, #1
ffff03ce:	eb68 0348 	sbc.w	r3, r8, r8, lsl #1
ffff03d2:	9301      	str	r3, [sp, #4]
ffff03d4:	2300      	movs	r3, #0
ffff03d6:	f88d 302d 	strb.w	r3, [sp, #45]	; 0x2d
ffff03da:	9b00      	ldr	r3, [sp, #0]
ffff03dc:	f10d 082d 	add.w	r8, sp, #45	; 0x2d
ffff03e0:	17db      	asrs	r3, r3, #31
ffff03e2:	9302      	str	r3, [sp, #8]
ffff03e4:	9b16      	ldr	r3, [sp, #88]	; 0x58
ffff03e6:	3b3a      	subs	r3, #58	; 0x3a
ffff03e8:	9303      	str	r3, [sp, #12]
ffff03ea:	9a00      	ldr	r2, [sp, #0]
ffff03ec:	4658      	mov	r0, fp
ffff03ee:	9b02      	ldr	r3, [sp, #8]
ffff03f0:	f108 3aff 	add.w	sl, r8, #4294967295
ffff03f4:	9901      	ldr	r1, [sp, #4]
ffff03f6:	f005 ed68 	blx	ffff5ec8 <__aeabi_uldivmod>
ffff03fa:	2a09      	cmp	r2, #9
ffff03fc:	bfc4      	itt	gt
ffff03fe:	9b03      	ldrgt	r3, [sp, #12]
ffff0400:	18d2      	addgt	r2, r2, r3
ffff0402:	9b00      	ldr	r3, [sp, #0]
ffff0404:	3230      	adds	r2, #48	; 0x30
ffff0406:	f808 2c01 	strb.w	r2, [r8, #-1]
ffff040a:	459b      	cmp	fp, r3
ffff040c:	9a02      	ldr	r2, [sp, #8]
ffff040e:	9b01      	ldr	r3, [sp, #4]
ffff0410:	4193      	sbcs	r3, r2
ffff0412:	d218      	bcs.n	ffff0446 <printi+0xea>
ffff0414:	0732      	lsls	r2, r6, #28
ffff0416:	d504      	bpl.n	ffff0422 <printi+0xc6>
ffff0418:	3401      	adds	r4, #1
ffff041a:	3d01      	subs	r5, #1
ffff041c:	202b      	movs	r0, #43	; 0x2b
ffff041e:	f7ff feab 	bl	ffff0178 <putc>
ffff0422:	b13f      	cbz	r7, ffff0434 <printi+0xd8>
ffff0424:	b19d      	cbz	r5, ffff044e <printi+0xf2>
ffff0426:	07b3      	lsls	r3, r6, #30
ffff0428:	d511      	bpl.n	ffff044e <printi+0xf2>
ffff042a:	3401      	adds	r4, #1
ffff042c:	3d01      	subs	r5, #1
ffff042e:	202d      	movs	r0, #45	; 0x2d
ffff0430:	f7ff fea2 	bl	ffff0178 <putc>
ffff0434:	4632      	mov	r2, r6
ffff0436:	4629      	mov	r1, r5
ffff0438:	4650      	mov	r0, sl
ffff043a:	f7ff ff55 	bl	ffff02e8 <prints>
ffff043e:	4420      	add	r0, r4
ffff0440:	e7b7      	b.n	ffff03b2 <printi+0x56>
ffff0442:	2700      	movs	r7, #0
ffff0444:	e7c6      	b.n	ffff03d4 <printi+0x78>
ffff0446:	4683      	mov	fp, r0
ffff0448:	46d0      	mov	r8, sl
ffff044a:	9101      	str	r1, [sp, #4]
ffff044c:	e7cd      	b.n	ffff03ea <printi+0x8e>
ffff044e:	222d      	movs	r2, #45	; 0x2d
ffff0450:	f80a 2c01 	strb.w	r2, [sl, #-1]
ffff0454:	f1a8 0a02 	sub.w	sl, r8, #2
ffff0458:	e7ec      	b.n	ffff0434 <printi+0xd8>
	...

ffff045c <mainLoop>:
ffff045c:	4a28      	ldr	r2, [pc, #160]	; (ffff0500 <mainLoop+0xa4>)
ffff045e:	f04f 33ff 	mov.w	r3, #4294967295
ffff0462:	b573      	push	{r0, r1, r4, r5, r6, lr}
ffff0464:	2400      	movs	r4, #0
ffff0466:	6053      	str	r3, [r2, #4]
ffff0468:	6014      	str	r4, [r2, #0]
ffff046a:	f3bf 8f5f 	dmb	sy
ffff046e:	4a25      	ldr	r2, [pc, #148]	; (ffff0504 <mainLoop+0xa8>)
ffff0470:	6013      	str	r3, [r2, #0]
ffff0472:	f3bf 8f5f 	dmb	sy
ffff0476:	6053      	str	r3, [r2, #4]
ffff0478:	6891      	ldr	r1, [r2, #8]
ffff047a:	f3bf 8f5f 	dmb	sy
ffff047e:	f041 0103 	orr.w	r1, r1, #3
ffff0482:	f3bf 8f5f 	dmb	sy
ffff0486:	6091      	str	r1, [r2, #8]
ffff0488:	4a1f      	ldr	r2, [pc, #124]	; (ffff0508 <mainLoop+0xac>)
ffff048a:	4e20      	ldr	r6, [pc, #128]	; (ffff050c <mainLoop+0xb0>)
ffff048c:	6013      	str	r3, [r2, #0]
ffff048e:	4a20      	ldr	r2, [pc, #128]	; (ffff0510 <mainLoop+0xb4>)
ffff0490:	6013      	str	r3, [r2, #0]
ffff0492:	4b20      	ldr	r3, [pc, #128]	; (ffff0514 <mainLoop+0xb8>)
ffff0494:	9300      	str	r3, [sp, #0]
ffff0496:	f005 fc19 	bl	ffff5ccc <get_current_cpu_num>
ffff049a:	4605      	mov	r5, r0
ffff049c:	481e      	ldr	r0, [pc, #120]	; (ffff0518 <mainLoop+0xbc>)
ffff049e:	f7ff fec6 	bl	ffff022e <puts>
ffff04a2:	b2e8      	uxtb	r0, r5
ffff04a4:	4d1d      	ldr	r5, [pc, #116]	; (ffff051c <mainLoop+0xc0>)
ffff04a6:	f7ff fe78 	bl	ffff019a <PutByte>
ffff04aa:	4818      	ldr	r0, [pc, #96]	; (ffff050c <mainLoop+0xb0>)
ffff04ac:	f7ff febf 	bl	ffff022e <puts>
ffff04b0:	4b1b      	ldr	r3, [pc, #108]	; (ffff0520 <mainLoop+0xc4>)
ffff04b2:	481c      	ldr	r0, [pc, #112]	; (ffff0524 <mainLoop+0xc8>)
ffff04b4:	695a      	ldr	r2, [r3, #20]
ffff04b6:	f042 0240 	orr.w	r2, r2, #64	; 0x40
ffff04ba:	615a      	str	r2, [r3, #20]
ffff04bc:	695a      	ldr	r2, [r3, #20]
ffff04be:	f022 0240 	bic.w	r2, r2, #64	; 0x40
ffff04c2:	615a      	str	r2, [r3, #20]
ffff04c4:	f7ff feb3 	bl	ffff022e <puts>
ffff04c8:	f44f 7380 	mov.w	r3, #256	; 0x100
ffff04cc:	4798      	blx	r3
ffff04ce:	f104 0308 	add.w	r3, r4, #8
ffff04d2:	446b      	add	r3, sp
ffff04d4:	f813 0c08 	ldrb.w	r0, [r3, #-8]
ffff04d8:	f7ff fe4e 	bl	ffff0178 <putc>
ffff04dc:	f7ff fe2c 	bl	ffff0138 <get_ticks>
ffff04e0:	f7ff fe7e 	bl	ffff01e0 <putHexa64>
ffff04e4:	4630      	mov	r0, r6
ffff04e6:	f7ff fea2 	bl	ffff022e <puts>
ffff04ea:	2300      	movs	r3, #0
ffff04ec:	9301      	str	r3, [sp, #4]
ffff04ee:	3302      	adds	r3, #2
ffff04f0:	42ab      	cmp	r3, r5
ffff04f2:	d1fb      	bne.n	ffff04ec <mainLoop+0x90>
ffff04f4:	3401      	adds	r4, #1
ffff04f6:	2c04      	cmp	r4, #4
ffff04f8:	bfa8      	it	ge
ffff04fa:	2400      	movge	r4, #0
ffff04fc:	e7e7      	b.n	ffff04ce <mainLoop+0x72>
ffff04fe:	bf00      	nop
ffff0500:	ff709000 	.word	0xff709000
ffff0504:	ffd00000 	.word	0xffd00000
ffff0508:	ffff79f8 	.word	0xffff79f8
ffff050c:	ffff6f87 	.word	0xffff6f87
ffff0510:	ffff79fc 	.word	0xffff79fc
ffff0514:	5c7c2f2d 	.word	0x5c7c2f2d
ffff0518:	ffff779d 	.word	0xffff779d
ffff051c:	00989680 	.word	0x00989680
ffff0520:	ffd05000 	.word	0xffd05000
ffff0524:	ffff77aa 	.word	0xffff77aa

ffff0528 <FDy_preloader_console_init>:
ffff0528:	4b1e      	ldr	r3, [pc, #120]	; (ffff05a4 <FDy_preloader_console_init+0x7c>)
ffff052a:	2100      	movs	r1, #0
ffff052c:	b510      	push	{r4, lr}
ffff052e:	2203      	movs	r2, #3
ffff0530:	4c1d      	ldr	r4, [pc, #116]	; (ffff05a8 <FDy_preloader_console_init+0x80>)
ffff0532:	2007      	movs	r0, #7
ffff0534:	6059      	str	r1, [r3, #4]
ffff0536:	611a      	str	r2, [r3, #16]
ffff0538:	6098      	str	r0, [r3, #8]
ffff053a:	2083      	movs	r0, #131	; 0x83
ffff053c:	60d8      	str	r0, [r3, #12]
ffff053e:	2036      	movs	r0, #54	; 0x36
ffff0540:	6018      	str	r0, [r3, #0]
ffff0542:	4620      	mov	r0, r4
ffff0544:	6059      	str	r1, [r3, #4]
ffff0546:	60da      	str	r2, [r3, #12]
ffff0548:	f7ff fe71 	bl	ffff022e <puts>
ffff054c:	4620      	mov	r0, r4
ffff054e:	f7ff fe6e 	bl	ffff022e <puts>
ffff0552:	4816      	ldr	r0, [pc, #88]	; (ffff05ac <FDy_preloader_console_init+0x84>)
ffff0554:	f7ff fe6b 	bl	ffff022e <puts>
ffff0558:	4815      	ldr	r0, [pc, #84]	; (ffff05b0 <FDy_preloader_console_init+0x88>)
ffff055a:	f7ff fe68 	bl	ffff022e <puts>
ffff055e:	4620      	mov	r0, r4
ffff0560:	f7ff fe65 	bl	ffff022e <puts>
ffff0564:	4813      	ldr	r0, [pc, #76]	; (ffff05b4 <FDy_preloader_console_init+0x8c>)
ffff0566:	f7ff fe62 	bl	ffff022e <puts>
ffff056a:	4813      	ldr	r0, [pc, #76]	; (ffff05b8 <FDy_preloader_console_init+0x90>)
ffff056c:	f7ff fe5f 	bl	ffff022e <puts>
ffff0570:	4620      	mov	r0, r4
ffff0572:	f7ff fe5c 	bl	ffff022e <puts>
ffff0576:	4811      	ldr	r0, [pc, #68]	; (ffff05bc <FDy_preloader_console_init+0x94>)
ffff0578:	f7ff fe59 	bl	ffff022e <puts>
ffff057c:	4810      	ldr	r0, [pc, #64]	; (ffff05c0 <FDy_preloader_console_init+0x98>)
ffff057e:	f7ff fe56 	bl	ffff022e <puts>
ffff0582:	4810      	ldr	r0, [pc, #64]	; (ffff05c4 <FDy_preloader_console_init+0x9c>)
ffff0584:	f7ff fe53 	bl	ffff022e <puts>
ffff0588:	480f      	ldr	r0, [pc, #60]	; (ffff05c8 <FDy_preloader_console_init+0xa0>)
ffff058a:	f7ff fe50 	bl	ffff022e <puts>
ffff058e:	480f      	ldr	r0, [pc, #60]	; (ffff05cc <FDy_preloader_console_init+0xa4>)
ffff0590:	f7ff fe4d 	bl	ffff022e <puts>
ffff0594:	4620      	mov	r0, r4
ffff0596:	f7ff fe4a 	bl	ffff022e <puts>
ffff059a:	4620      	mov	r0, r4
ffff059c:	e8bd 4010 	ldmia.w	sp!, {r4, lr}
ffff05a0:	f7ff be45 	b.w	ffff022e <puts>
ffff05a4:	ffc02000 	.word	0xffc02000
ffff05a8:	ffff6f87 	.word	0xffff6f87
ffff05ac:	ffff6e40 	.word	0xffff6e40
ffff05b0:	ffff6e6f 	.word	0xffff6e6f
ffff05b4:	ffff6eae 	.word	0xffff6eae
ffff05b8:	ffff6ed6 	.word	0xffff6ed6
ffff05bc:	ffff6f17 	.word	0xffff6f17
ffff05c0:	ffff6f56 	.word	0xffff6f56
ffff05c4:	ffff6f8a 	.word	0xffff6f8a
ffff05c8:	ffff6fbd 	.word	0xffff6fbd
ffff05cc:	ffff6fef 	.word	0xffff6fef

ffff05d0 <socfpga_bridges_reset>:
ffff05d0:	b538      	push	{r3, r4, r5, lr}
ffff05d2:	4604      	mov	r4, r0
ffff05d4:	b130      	cbz	r0, ffff05e4 <socfpga_bridges_reset+0x14>
ffff05d6:	f3bf 8f5f 	dmb	sy
ffff05da:	4b0e      	ldr	r3, [pc, #56]	; (ffff0614 <socfpga_bridges_reset+0x44>)
ffff05dc:	f04f 32ff 	mov.w	r2, #4294967295
ffff05e0:	61da      	str	r2, [r3, #28]
ffff05e2:	bd38      	pop	{r3, r4, r5, pc}
ffff05e4:	f3bf 8f5f 	dmb	sy
ffff05e8:	4b0b      	ldr	r3, [pc, #44]	; (ffff0618 <socfpga_bridges_reset+0x48>)
ffff05ea:	f8c3 0080 	str.w	r0, [r3, #128]	; 0x80
ffff05ee:	f3bf 8f5f 	dmb	sy
ffff05f2:	2519      	movs	r5, #25
ffff05f4:	f8c3 5084 	str.w	r5, [r3, #132]	; 0x84
ffff05f8:	f000 fcd6 	bl	ffff0fa8 <fpgamgr_test_fpga_ready>
ffff05fc:	2800      	cmp	r0, #0
ffff05fe:	d0f0      	beq.n	ffff05e2 <socfpga_bridges_reset+0x12>
ffff0600:	f3bf 8f5f 	dmb	sy
ffff0604:	4b03      	ldr	r3, [pc, #12]	; (ffff0614 <socfpga_bridges_reset+0x44>)
ffff0606:	61dc      	str	r4, [r3, #28]
ffff0608:	f3bf 8f5f 	dmb	sy
ffff060c:	4b03      	ldr	r3, [pc, #12]	; (ffff061c <socfpga_bridges_reset+0x4c>)
ffff060e:	601d      	str	r5, [r3, #0]
ffff0610:	e7e7      	b.n	ffff05e2 <socfpga_bridges_reset+0x12>
ffff0612:	bf00      	nop
ffff0614:	ffd05000 	.word	0xffd05000
ffff0618:	ffd08000 	.word	0xffd08000
ffff061c:	ff800000 	.word	0xff800000

ffff0620 <get_ram_size>:
ffff0620:	b5f0      	push	{r4, r5, r6, r7, lr}
ffff0622:	4602      	mov	r2, r0
ffff0624:	088d      	lsrs	r5, r1, #2
ffff0626:	b0a1      	sub	sp, #132	; 0x84
ffff0628:	08c8      	lsrs	r0, r1, #3
ffff062a:	466c      	mov	r4, sp
ffff062c:	2300      	movs	r3, #0
ffff062e:	4626      	mov	r6, r4
ffff0630:	b998      	cbnz	r0, ffff065a <get_ram_size+0x3a>
ffff0632:	af20      	add	r7, sp, #128	; 0x80
ffff0634:	6814      	ldr	r4, [r2, #0]
ffff0636:	eb07 0783 	add.w	r7, r7, r3, lsl #2
ffff063a:	6010      	str	r0, [r2, #0]
ffff063c:	f847 4c80 	str.w	r4, [r7, #-128]
ffff0640:	6817      	ldr	r7, [r2, #0]
ffff0642:	b3af      	cbz	r7, ffff06b0 <get_ram_size+0x90>
ffff0644:	f103 4380 	add.w	r3, r3, #1073741824	; 0x40000000
ffff0648:	6014      	str	r4, [r2, #0]
ffff064a:	3b01      	subs	r3, #1
ffff064c:	2101      	movs	r1, #1
ffff064e:	eb06 0383 	add.w	r3, r6, r3, lsl #2
ffff0652:	428d      	cmp	r5, r1
ffff0654:	d80b      	bhi.n	ffff066e <get_ram_size+0x4e>
ffff0656:	b021      	add	sp, #132	; 0x84
ffff0658:	bdf0      	pop	{r4, r5, r6, r7, pc}
ffff065a:	f852 7020 	ldr.w	r7, [r2, r0, lsl #2]
ffff065e:	3301      	adds	r3, #1
ffff0660:	f844 7b04 	str.w	r7, [r4], #4
ffff0664:	43c7      	mvns	r7, r0
ffff0666:	f842 7020 	str.w	r7, [r2, r0, lsl #2]
ffff066a:	1040      	asrs	r0, r0, #1
ffff066c:	e7e0      	b.n	ffff0630 <get_ram_size+0x10>
ffff066e:	f853 4904 	ldr.w	r4, [r3], #-4
ffff0672:	f842 4021 	str.w	r4, [r2, r1, lsl #2]
ffff0676:	0049      	lsls	r1, r1, #1
ffff0678:	e7eb      	b.n	ffff0652 <get_ram_size+0x32>
ffff067a:	f103 3cff 	add.w	ip, r3, #4294967295
ffff067e:	f852 e024 	ldr.w	lr, [r2, r4, lsl #2]
ffff0682:	00a0      	lsls	r0, r4, #2
ffff0684:	f856 702c 	ldr.w	r7, [r6, ip, lsl #2]
ffff0688:	f842 7024 	str.w	r7, [r2, r4, lsl #2]
ffff068c:	43e7      	mvns	r7, r4
ffff068e:	4577      	cmp	r7, lr
ffff0690:	ea4f 0444 	mov.w	r4, r4, lsl #1
ffff0694:	d011      	beq.n	ffff06ba <get_ram_size+0x9a>
ffff0696:	f103 4380 	add.w	r3, r3, #1073741824	; 0x40000000
ffff069a:	3b02      	subs	r3, #2
ffff069c:	eb06 0383 	add.w	r3, r6, r3, lsl #2
ffff06a0:	42a5      	cmp	r5, r4
ffff06a2:	d9d8      	bls.n	ffff0656 <get_ram_size+0x36>
ffff06a4:	f853 1904 	ldr.w	r1, [r3], #-4
ffff06a8:	f842 1024 	str.w	r1, [r2, r4, lsl #2]
ffff06ac:	0064      	lsls	r4, r4, #1
ffff06ae:	e7f7      	b.n	ffff06a0 <get_ram_size+0x80>
ffff06b0:	2401      	movs	r4, #1
ffff06b2:	42a5      	cmp	r5, r4
ffff06b4:	d8e1      	bhi.n	ffff067a <get_ram_size+0x5a>
ffff06b6:	4608      	mov	r0, r1
ffff06b8:	e7cd      	b.n	ffff0656 <get_ram_size+0x36>
ffff06ba:	4663      	mov	r3, ip
ffff06bc:	e7f9      	b.n	ffff06b2 <get_ram_size+0x92>
	...

ffff06c0 <board_init>:
ffff06c0:	4bbe      	ldr	r3, [pc, #760]	; (ffff09bc <board_init+0x2fc>)
ffff06c2:	e92d 45f0 	stmdb	sp!, {r4, r5, r6, r7, r8, sl, lr}
ffff06c6:	b085      	sub	sp, #20
ffff06c8:	f8d3 2140 	ldr.w	r2, [r3, #320]	; 0x140
ffff06cc:	f3bf 8f5f 	dmb	sy
ffff06d0:	0711      	lsls	r1, r2, #28
ffff06d2:	d504      	bpl.n	ffff06de <board_init+0x1e>
ffff06d4:	f3bf 8f5f 	dmb	sy
ffff06d8:	2109      	movs	r1, #9
ffff06da:	f8c3 1140 	str.w	r1, [r3, #320]	; 0x140
ffff06de:	06d2      	lsls	r2, r2, #27
ffff06e0:	d504      	bpl.n	ffff06ec <board_init+0x2c>
ffff06e2:	f3bf 8f5f 	dmb	sy
ffff06e6:	2211      	movs	r2, #17
ffff06e8:	f8c3 2140 	str.w	r2, [r3, #320]	; 0x140
ffff06ec:	f3bf 8f5f 	dmb	sy
ffff06f0:	4ab3      	ldr	r2, [pc, #716]	; (ffff09c0 <board_init+0x300>)
ffff06f2:	2301      	movs	r3, #1
ffff06f4:	6213      	str	r3, [r2, #32]
ffff06f6:	f3bf 8f5f 	dmb	sy
ffff06fa:	f8c2 3090 	str.w	r3, [r2, #144]	; 0x90
ffff06fe:	f3bf 8f5f 	dmb	sy
ffff0702:	f8c2 3094 	str.w	r3, [r2, #148]	; 0x94
ffff0706:	f3bf 8f5f 	dmb	sy
ffff070a:	f8c2 3098 	str.w	r3, [r2, #152]	; 0x98
ffff070e:	f3bf 8f5f 	dmb	sy
ffff0712:	f8c2 309c 	str.w	r3, [r2, #156]	; 0x9c
ffff0716:	f3bf 8f5f 	dmb	sy
ffff071a:	48aa      	ldr	r0, [pc, #680]	; (ffff09c4 <board_init+0x304>)
ffff071c:	f8c2 30a0 	str.w	r3, [r2, #160]	; 0xa0
ffff0720:	6d41      	ldr	r1, [r0, #84]	; 0x54
ffff0722:	ea6f 3111 	mvn.w	r1, r1, lsr #12
ffff0726:	ea6f 3101 	mvn.w	r1, r1, lsl #12
ffff072a:	6541      	str	r1, [r0, #84]	; 0x54
ffff072c:	f3bf 8f5f 	dmb	sy
ffff0730:	6013      	str	r3, [r2, #0]
ffff0732:	f3bf 8f5f 	dmb	sy
ffff0736:	4aa4      	ldr	r2, [pc, #656]	; (ffff09c8 <board_init+0x308>)
ffff0738:	f8c2 3c00 	str.w	r3, [r2, #3072]	; 0xc00
ffff073c:	f000 fd48 	bl	ffff11d0 <FDy_sys_mgr_frzctrl_freeze_req>
ffff0740:	f3bf 8f5f 	dmb	sy
ffff0744:	4ca1      	ldr	r4, [pc, #644]	; (ffff09cc <board_init+0x30c>)
ffff0746:	f06f 0340 	mvn.w	r3, #64	; 0x40
ffff074a:	6163      	str	r3, [r4, #20]
ffff074c:	f3bf 8f5f 	dmb	sy
ffff0750:	f04f 33ff 	mov.w	r3, #4294967295
ffff0754:	61a3      	str	r3, [r4, #24]
ffff0756:	f3bf 8f5f 	dmb	sy
ffff075a:	61e3      	str	r3, [r4, #28]
ffff075c:	6962      	ldr	r2, [r4, #20]
ffff075e:	f022 5200 	bic.w	r2, r2, #536870912	; 0x20000000
ffff0762:	6162      	str	r2, [r4, #20]
ffff0764:	6962      	ldr	r2, [r4, #20]
ffff0766:	f422 3280 	bic.w	r2, r2, #65536	; 0x10000
ffff076a:	6162      	str	r2, [r4, #20]
ffff076c:	6962      	ldr	r2, [r4, #20]
ffff076e:	f422 7280 	bic.w	r2, r2, #256	; 0x100
ffff0772:	6162      	str	r2, [r4, #20]
ffff0774:	f3bf 8f5f 	dmb	sy
ffff0778:	4a95      	ldr	r2, [pc, #596]	; (ffff09d0 <board_init+0x310>)
ffff077a:	6013      	str	r3, [r2, #0]
ffff077c:	f3bf 8f5f 	dmb	sy
ffff0780:	6053      	str	r3, [r2, #4]
ffff0782:	6891      	ldr	r1, [r2, #8]
ffff0784:	f3bf 8f5f 	dmb	sy
ffff0788:	f041 0103 	orr.w	r1, r1, #3
ffff078c:	f3bf 8f5f 	dmb	sy
ffff0790:	6091      	str	r1, [r2, #8]
ffff0792:	4a90      	ldr	r2, [pc, #576]	; (ffff09d4 <board_init+0x314>)
ffff0794:	4e89      	ldr	r6, [pc, #548]	; (ffff09bc <board_init+0x2fc>)
ffff0796:	6013      	str	r3, [r2, #0]
ffff0798:	4a8f      	ldr	r2, [pc, #572]	; (ffff09d8 <board_init+0x318>)
ffff079a:	6013      	str	r3, [r2, #0]
ffff079c:	f000 fa88 	bl	ffff0cb0 <FDy_cm_basic_init>
ffff07a0:	f8d6 30c0 	ldr.w	r3, [r6, #192]	; 0xc0
ffff07a4:	f043 0302 	orr.w	r3, r3, #2
ffff07a8:	f8c6 30c0 	str.w	r3, [r6, #192]	; 0xc0
ffff07ac:	f000 fe34 	bl	ffff1418 <FDy_scan_mgr_configure_iocsr>
ffff07b0:	4605      	mov	r5, r0
ffff07b2:	b100      	cbz	r0, ffff07b6 <board_init+0xf6>
ffff07b4:	e7fe      	b.n	ffff07b4 <board_init+0xf4>
ffff07b6:	f8d6 30c0 	ldr.w	r3, [r6, #192]	; 0xc0
ffff07ba:	f023 0302 	bic.w	r3, r3, #2
ffff07be:	f8c6 30c0 	str.w	r3, [r6, #192]	; 0xc0
ffff07c2:	f8d6 30c0 	ldr.w	r3, [r6, #192]	; 0xc0
ffff07c6:	f043 0302 	orr.w	r3, r3, #2
ffff07ca:	f8c6 30c0 	str.w	r3, [r6, #192]	; 0xc0
ffff07ce:	f000 fe35 	bl	ffff143c <FDy_sysmgr_pinmux_init>
ffff07d2:	f8d6 30c0 	ldr.w	r3, [r6, #192]	; 0xc0
ffff07d6:	f023 0302 	bic.w	r3, r3, #2
ffff07da:	f8c6 30c0 	str.w	r3, [r6, #192]	; 0xc0
ffff07de:	f3bf 8f5f 	dmb	sy
ffff07e2:	4628      	mov	r0, r5
ffff07e4:	6165      	str	r5, [r4, #20]
ffff07e6:	f7ff fef3 	bl	ffff05d0 <socfpga_bridges_reset>
ffff07ea:	f000 fd29 	bl	ffff1240 <FDy_sys_mgr_frzctrl_thaw_req>
ffff07ee:	f7ff fe9b 	bl	ffff0528 <FDy_preloader_console_init>
ffff07f2:	f000 fbd9 	bl	ffff0fa8 <fpgamgr_test_fpga_ready>
ffff07f6:	b910      	cbnz	r0, ffff07fe <board_init+0x13e>
ffff07f8:	4878      	ldr	r0, [pc, #480]	; (ffff09dc <board_init+0x31c>)
ffff07fa:	f7ff fd18 	bl	ffff022e <puts>
ffff07fe:	4878      	ldr	r0, [pc, #480]	; (ffff09e0 <board_init+0x320>)
ffff0800:	f7ff fd15 	bl	ffff022e <puts>
ffff0804:	f04f 30ff 	mov.w	r0, #4294967295
ffff0808:	f000 feec 	bl	ffff15e4 <sdram_mmr_init_full>
ffff080c:	4606      	mov	r6, r0
ffff080e:	b118      	cbz	r0, ffff0818 <board_init+0x158>
ffff0810:	4874      	ldr	r0, [pc, #464]	; (ffff09e4 <board_init+0x324>)
ffff0812:	f7ff fd0c 	bl	ffff022e <puts>
ffff0816:	e7fe      	b.n	ffff0816 <board_init+0x156>
ffff0818:	4873      	ldr	r0, [pc, #460]	; (ffff09e8 <board_init+0x328>)
ffff081a:	f7ff fd08 	bl	ffff022e <puts>
ffff081e:	f002 f9e3 	bl	ffff2be8 <sdram_calibration_full>
ffff0822:	b918      	cbnz	r0, ffff082c <board_init+0x16c>
ffff0824:	4871      	ldr	r0, [pc, #452]	; (ffff09ec <board_init+0x32c>)
ffff0826:	f7ff fd02 	bl	ffff022e <puts>
ffff082a:	e7fe      	b.n	ffff082a <board_init+0x16a>
ffff082c:	f000 feb4 	bl	ffff1598 <sdram_calculate_size>
ffff0830:	4605      	mov	r5, r0
ffff0832:	486f      	ldr	r0, [pc, #444]	; (ffff09f0 <board_init+0x330>)
ffff0834:	f7ff fcfb 	bl	ffff022e <puts>
ffff0838:	1528      	asrs	r0, r5, #20
ffff083a:	f7ff fcb9 	bl	ffff01b0 <putHexa32>
ffff083e:	486d      	ldr	r0, [pc, #436]	; (ffff09f4 <board_init+0x334>)
ffff0840:	f7ff fcf5 	bl	ffff022e <puts>
ffff0844:	4628      	mov	r0, r5
ffff0846:	f7ff fcb3 	bl	ffff01b0 <putHexa32>
ffff084a:	486b      	ldr	r0, [pc, #428]	; (ffff09f8 <board_init+0x338>)
ffff084c:	f7ff fcef 	bl	ffff022e <puts>
ffff0850:	486a      	ldr	r0, [pc, #424]	; (ffff09fc <board_init+0x33c>)
ffff0852:	f7ff fcec 	bl	ffff022e <puts>
ffff0856:	4629      	mov	r1, r5
ffff0858:	4630      	mov	r0, r6
ffff085a:	f7ff fee1 	bl	ffff0620 <get_ram_size>
ffff085e:	42a8      	cmp	r0, r5
ffff0860:	d003      	beq.n	ffff086a <board_init+0x1aa>
ffff0862:	4867      	ldr	r0, [pc, #412]	; (ffff0a00 <board_init+0x340>)
ffff0864:	f7ff fce3 	bl	ffff022e <puts>
ffff0868:	e7fe      	b.n	ffff0868 <board_init+0x1a8>
ffff086a:	f3bf 8f5f 	dmb	sy
ffff086e:	f04f 33ff 	mov.w	r3, #4294967295
ffff0872:	61e3      	str	r3, [r4, #28]
ffff0874:	4863      	ldr	r0, [pc, #396]	; (ffff0a04 <board_init+0x344>)
ffff0876:	6963      	ldr	r3, [r4, #20]
ffff0878:	f043 0340 	orr.w	r3, r3, #64	; 0x40
ffff087c:	6163      	str	r3, [r4, #20]
ffff087e:	6963      	ldr	r3, [r4, #20]
ffff0880:	f023 0340 	bic.w	r3, r3, #64	; 0x40
ffff0884:	6163      	str	r3, [r4, #20]
ffff0886:	f7ff fcd2 	bl	ffff022e <puts>
ffff088a:	f003 fdd5 	bl	ffff4438 <alt_sdmmc_init>
ffff088e:	b9e0      	cbnz	r0, ffff08ca <board_init+0x20a>
ffff0890:	f003 fa7e 	bl	ffff3d90 <alt_sdmmc_card_pwr_on>
ffff0894:	b9c8      	cbnz	r0, ffff08ca <board_init+0x20a>
ffff0896:	4d5c      	ldr	r5, [pc, #368]	; (ffff0a08 <board_init+0x348>)
ffff0898:	4628      	mov	r0, r5
ffff089a:	f004 f8b1 	bl	ffff4a00 <alt_sdmmc_card_identify>
ffff089e:	b9a0      	cbnz	r0, ffff08ca <board_init+0x20a>
ffff08a0:	682b      	ldr	r3, [r5, #0]
ffff08a2:	3b01      	subs	r3, #1
ffff08a4:	2b04      	cmp	r3, #4
ffff08a6:	f200 80dd 	bhi.w	ffff0a64 <board_init+0x3a4>
ffff08aa:	e8df f003 	tbb	[pc, r3]
ffff08ae:	8303      	.short	0x8303
ffff08b0:	d785      	.short	0xd785
ffff08b2:	d9          	.byte	0xd9
ffff08b3:	00          	.byte	0x00
ffff08b4:	4855      	ldr	r0, [pc, #340]	; (ffff0a0c <board_init+0x34c>)
ffff08b6:	f7ff fcba 	bl	ffff022e <puts>
ffff08ba:	4853      	ldr	r0, [pc, #332]	; (ffff0a08 <board_init+0x348>)
ffff08bc:	2104      	movs	r1, #4
ffff08be:	f003 fd23 	bl	ffff4308 <alt_sdmmc_card_bus_width_set>
ffff08c2:	4604      	mov	r4, r0
ffff08c4:	2800      	cmp	r0, #0
ffff08c6:	f000 80d1 	beq.w	ffff0a6c <board_init+0x3ac>
ffff08ca:	4851      	ldr	r0, [pc, #324]	; (ffff0a10 <board_init+0x350>)
ffff08cc:	f7ff fcaf 	bl	ffff022e <puts>
ffff08d0:	4850      	ldr	r0, [pc, #320]	; (ffff0a14 <board_init+0x354>)
ffff08d2:	f7ff fcac 	bl	ffff022e <puts>
ffff08d6:	4850      	ldr	r0, [pc, #320]	; (ffff0a18 <board_init+0x358>)
ffff08d8:	f7ff fca9 	bl	ffff022e <puts>
ffff08dc:	484f      	ldr	r0, [pc, #316]	; (ffff0a1c <board_init+0x35c>)
ffff08de:	f7ff fca6 	bl	ffff022e <puts>
ffff08e2:	f44f 1040 	mov.w	r0, #3145728	; 0x300000
ffff08e6:	f7ff fc63 	bl	ffff01b0 <putHexa32>
ffff08ea:	484d      	ldr	r0, [pc, #308]	; (ffff0a20 <board_init+0x360>)
ffff08ec:	f7ff fc9f 	bl	ffff022e <puts>
ffff08f0:	484c      	ldr	r0, [pc, #304]	; (ffff0a24 <board_init+0x364>)
ffff08f2:	f7ff fc5d 	bl	ffff01b0 <putHexa32>
ffff08f6:	484c      	ldr	r0, [pc, #304]	; (ffff0a28 <board_init+0x368>)
ffff08f8:	f7ff fc99 	bl	ffff022e <puts>
ffff08fc:	f7ff fc1c 	bl	ffff0138 <get_ticks>
ffff0900:	4b48      	ldr	r3, [pc, #288]	; (ffff0a24 <board_init+0x364>)
ffff0902:	4604      	mov	r4, r0
ffff0904:	460e      	mov	r6, r1
ffff0906:	4840      	ldr	r0, [pc, #256]	; (ffff0a08 <board_init+0x348>)
ffff0908:	f44f 1240 	mov.w	r2, #3145728	; 0x300000
ffff090c:	f44f 5180 	mov.w	r1, #4096	; 0x1000
ffff0910:	f004 f9e6 	bl	ffff4ce0 <alt_sdmmc_read>
ffff0914:	b110      	cbz	r0, ffff091c <board_init+0x25c>
ffff0916:	4845      	ldr	r0, [pc, #276]	; (ffff0a2c <board_init+0x36c>)
ffff0918:	f7ff fc89 	bl	ffff022e <puts>
ffff091c:	f7ff fc0c 	bl	ffff0138 <get_ticks>
ffff0920:	4607      	mov	r7, r0
ffff0922:	483c      	ldr	r0, [pc, #240]	; (ffff0a14 <board_init+0x354>)
ffff0924:	460d      	mov	r5, r1
ffff0926:	f7ff fc82 	bl	ffff022e <puts>
ffff092a:	4841      	ldr	r0, [pc, #260]	; (ffff0a30 <board_init+0x370>)
ffff092c:	f7ff fc7f 	bl	ffff022e <puts>
ffff0930:	1be4      	subs	r4, r4, r7
ffff0932:	eb66 0505 	sbc.w	r5, r6, r5
ffff0936:	220a      	movs	r2, #10
ffff0938:	2600      	movs	r6, #0
ffff093a:	4629      	mov	r1, r5
ffff093c:	4633      	mov	r3, r6
ffff093e:	f04f 0a41 	mov.w	sl, #65	; 0x41
ffff0942:	f04f 0801 	mov.w	r8, #1
ffff0946:	2714      	movs	r7, #20
ffff0948:	4620      	mov	r0, r4
ffff094a:	f8cd a008 	str.w	sl, [sp, #8]
ffff094e:	f8cd 8004 	str.w	r8, [sp, #4]
ffff0952:	9600      	str	r6, [sp, #0]
ffff0954:	f7ff fd02 	bl	ffff035c <printi>
ffff0958:	4836      	ldr	r0, [pc, #216]	; (ffff0a34 <board_init+0x374>)
ffff095a:	f7ff fc68 	bl	ffff022e <puts>
ffff095e:	fba4 0107 	umull	r0, r1, r4, r7
ffff0962:	4a35      	ldr	r2, [pc, #212]	; (ffff0a38 <board_init+0x378>)
ffff0964:	2300      	movs	r3, #0
ffff0966:	fb07 1105 	mla	r1, r7, r5, r1
ffff096a:	f005 eaae 	blx	ffff5ec8 <__aeabi_uldivmod>
ffff096e:	4633      	mov	r3, r6
ffff0970:	220a      	movs	r2, #10
ffff0972:	e88d 0540 	stmia.w	sp, {r6, r8, sl}
ffff0976:	f7ff fcf1 	bl	ffff035c <printi>
ffff097a:	4830      	ldr	r0, [pc, #192]	; (ffff0a3c <board_init+0x37c>)
ffff097c:	f7ff fc57 	bl	ffff022e <puts>
ffff0980:	482f      	ldr	r0, [pc, #188]	; (ffff0a40 <board_init+0x380>)
ffff0982:	f7ff fc54 	bl	ffff022e <puts>
ffff0986:	492f      	ldr	r1, [pc, #188]	; (ffff0a44 <board_init+0x384>)
ffff0988:	f44f 5080 	mov.w	r0, #4096	; 0x1000
ffff098c:	f000 fb1c 	bl	ffff0fc8 <socfpga_load>
ffff0990:	482d      	ldr	r0, [pc, #180]	; (ffff0a48 <board_init+0x388>)
ffff0992:	f7ff fc4c 	bl	ffff022e <puts>
ffff0996:	482d      	ldr	r0, [pc, #180]	; (ffff0a4c <board_init+0x38c>)
ffff0998:	f7ff fc49 	bl	ffff022e <puts>
ffff099c:	f000 f946 	bl	ffff0c2c <ChargementApplicative>
ffff09a0:	482b      	ldr	r0, [pc, #172]	; (ffff0a50 <board_init+0x390>)
ffff09a2:	f7ff fc44 	bl	ffff022e <puts>
ffff09a6:	4630      	mov	r0, r6
ffff09a8:	f44f 6180 	mov.w	r1, #1024	; 0x400
ffff09ac:	f7ff fc48 	bl	ffff0240 <HexDump>
ffff09b0:	f7ff fd54 	bl	ffff045c <mainLoop>
ffff09b4:	4827      	ldr	r0, [pc, #156]	; (ffff0a54 <board_init+0x394>)
ffff09b6:	e77e      	b.n	ffff08b6 <board_init+0x1f6>
ffff09b8:	4827      	ldr	r0, [pc, #156]	; (ffff0a58 <board_init+0x398>)
ffff09ba:	e77c      	b.n	ffff08b6 <board_init+0x1f6>
ffff09bc:	ffd08000 	.word	0xffd08000
ffff09c0:	ff800000 	.word	0xff800000
ffff09c4:	fffec000 	.word	0xfffec000
ffff09c8:	fffef000 	.word	0xfffef000
ffff09cc:	ffd05000 	.word	0xffd05000
ffff09d0:	ffd00000 	.word	0xffd00000
ffff09d4:	ffff79f8 	.word	0xffff79f8
ffff09d8:	ffff79fc 	.word	0xffff79fc
ffff09dc:	ffff74a2 	.word	0xffff74a2
ffff09e0:	ffff74b4 	.word	0xffff74b4
ffff09e4:	ffff74c2 	.word	0xffff74c2
ffff09e8:	ffff74d6 	.word	0xffff74d6
ffff09ec:	ffff74f0 	.word	0xffff74f0
ffff09f0:	ffff750b 	.word	0xffff750b
ffff09f4:	ffff7513 	.word	0xffff7513
ffff09f8:	ffff751b 	.word	0xffff751b
ffff09fc:	ffff7524 	.word	0xffff7524
ffff0a00:	ffff7558 	.word	0xffff7558
ffff0a04:	ffff7572 	.word	0xffff7572
ffff0a08:	ffff7994 	.word	0xffff7994
ffff0a0c:	ffff758c 	.word	0xffff758c
ffff0a10:	ffff7680 	.word	0xffff7680
ffff0a14:	ffff768f 	.word	0xffff768f
ffff0a18:	ffff6f87 	.word	0xffff6f87
ffff0a1c:	ffff70ef 	.word	0xffff70ef
ffff0a20:	ffff7698 	.word	0xffff7698
ffff0a24:	0024a000 	.word	0x0024a000
ffff0a28:	ffff76a2 	.word	0xffff76a2
ffff0a2c:	ffff713e 	.word	0xffff713e
ffff0a30:	ffff76ab 	.word	0xffff76ab
ffff0a34:	ffff76c1 	.word	0xffff76c1
ffff0a38:	000f4240 	.word	0x000f4240
ffff0a3c:	ffff76cc 	.word	0xffff76cc
ffff0a40:	ffff76d2 	.word	0xffff76d2
ffff0a44:	00249e78 	.word	0x00249e78
ffff0a48:	ffff76e7 	.word	0xffff76e7
ffff0a4c:	ffff7703 	.word	0xffff7703
ffff0a50:	ffff775e 	.word	0xffff775e
ffff0a54:	ffff75a7 	.word	0xffff75a7
ffff0a58:	ffff75c1 	.word	0xffff75c1
ffff0a5c:	4822      	ldr	r0, [pc, #136]	; (ffff0ae8 <board_init+0x428>)
ffff0a5e:	e72a      	b.n	ffff08b6 <board_init+0x1f6>
ffff0a60:	4822      	ldr	r0, [pc, #136]	; (ffff0aec <board_init+0x42c>)
ffff0a62:	e728      	b.n	ffff08b6 <board_init+0x1f6>
ffff0a64:	4822      	ldr	r0, [pc, #136]	; (ffff0af0 <board_init+0x430>)
ffff0a66:	f7ff fbe2 	bl	ffff022e <puts>
ffff0a6a:	e72e      	b.n	ffff08ca <board_init+0x20a>
ffff0a6c:	4e21      	ldr	r6, [pc, #132]	; (ffff0af4 <board_init+0x434>)
ffff0a6e:	4622      	mov	r2, r4
ffff0a70:	2180      	movs	r1, #128	; 0x80
ffff0a72:	207f      	movs	r0, #127	; 0x7f
ffff0a74:	f003 faae 	bl	ffff3fd4 <alt_sdmmc_fifo_param_set>
ffff0a78:	4630      	mov	r0, r6
ffff0a7a:	f003 f9c5 	bl	ffff3e08 <alt_sdmmc_card_misc_get>
ffff0a7e:	481e      	ldr	r0, [pc, #120]	; (ffff0af8 <board_init+0x438>)
ffff0a80:	f7ff fbd5 	bl	ffff022e <puts>
ffff0a84:	68b0      	ldr	r0, [r6, #8]
ffff0a86:	f7ff fb93 	bl	ffff01b0 <putHexa32>
ffff0a8a:	481c      	ldr	r0, [pc, #112]	; (ffff0afc <board_init+0x43c>)
ffff0a8c:	f7ff fbcf 	bl	ffff022e <puts>
ffff0a90:	481b      	ldr	r0, [pc, #108]	; (ffff0b00 <board_init+0x440>)
ffff0a92:	f7ff fbcc 	bl	ffff022e <puts>
ffff0a96:	68f0      	ldr	r0, [r6, #12]
ffff0a98:	f7ff fb8a 	bl	ffff01b0 <putHexa32>
ffff0a9c:	4817      	ldr	r0, [pc, #92]	; (ffff0afc <board_init+0x43c>)
ffff0a9e:	f7ff fbc6 	bl	ffff022e <puts>
ffff0aa2:	4b18      	ldr	r3, [pc, #96]	; (ffff0b04 <board_init+0x444>)
ffff0aa4:	68f2      	ldr	r2, [r6, #12]
ffff0aa6:	6a68      	ldr	r0, [r5, #36]	; 0x24
ffff0aa8:	6a29      	ldr	r1, [r5, #32]
ffff0aaa:	601a      	str	r2, [r3, #0]
ffff0aac:	1824      	adds	r4, r4, r0
ffff0aae:	68eb      	ldr	r3, [r5, #12]
ffff0ab0:	4e15      	ldr	r6, [pc, #84]	; (ffff0b08 <board_init+0x448>)
ffff0ab2:	4816      	ldr	r0, [pc, #88]	; (ffff0b0c <board_init+0x44c>)
ffff0ab4:	fba4 4203 	umull	r4, r2, r4, r3
ffff0ab8:	fb03 2201 	mla	r2, r3, r1, r2
ffff0abc:	e9c6 4200 	strd	r4, r2, [r6]
ffff0ac0:	f7ff fbb5 	bl	ffff022e <puts>
ffff0ac4:	e9d6 0100 	ldrd	r0, r1, [r6]
ffff0ac8:	f7ff fb8a 	bl	ffff01e0 <putHexa64>
ffff0acc:	480b      	ldr	r0, [pc, #44]	; (ffff0afc <board_init+0x43c>)
ffff0ace:	f7ff fbae 	bl	ffff022e <puts>
ffff0ad2:	490f      	ldr	r1, [pc, #60]	; (ffff0b10 <board_init+0x450>)
ffff0ad4:	480f      	ldr	r0, [pc, #60]	; (ffff0b14 <board_init+0x454>)
ffff0ad6:	f003 fd99 	bl	ffff460c <alt_sdmmc_card_speed_set>
ffff0ada:	2800      	cmp	r0, #0
ffff0adc:	f47f aef5 	bne.w	ffff08ca <board_init+0x20a>
ffff0ae0:	f003 fa96 	bl	ffff4010 <alt_sdmmc_dma_enable>
ffff0ae4:	e6f1      	b.n	ffff08ca <board_init+0x20a>
ffff0ae6:	bf00      	nop
ffff0ae8:	ffff75dd 	.word	0xffff75dd
ffff0aec:	ffff75fe 	.word	0xffff75fe
ffff0af0:	ffff761a 	.word	0xffff761a
ffff0af4:	ffff79d0 	.word	0xffff79d0
ffff0af8:	ffff7635 	.word	0xffff7635
ffff0afc:	ffff6f87 	.word	0xffff6f87
ffff0b00:	ffff764e 	.word	0xffff764e
ffff0b04:	ffff79c0 	.word	0xffff79c0
ffff0b08:	ffff79c8 	.word	0xffff79c8
ffff0b0c:	ffff7667 	.word	0xffff7667
ffff0b10:	017d7840 	.word	0x017d7840
ffff0b14:	ffff7994 	.word	0xffff7994

ffff0b18 <hang>:
ffff0b18:	4802      	ldr	r0, [pc, #8]	; (ffff0b24 <hang+0xc>)
ffff0b1a:	b508      	push	{r3, lr}
ffff0b1c:	f7ff fb87 	bl	ffff022e <puts>
ffff0b20:	e7fe      	b.n	ffff0b20 <hang+0x8>
ffff0b22:	bf00      	nop
ffff0b24:	ffff7773 	.word	0xffff7773

ffff0b28 <HexAsciiToNibble>:
ffff0b28:	4603      	mov	r3, r0
ffff0b2a:	3830      	subs	r0, #48	; 0x30
ffff0b2c:	b2c0      	uxtb	r0, r0
ffff0b2e:	2809      	cmp	r0, #9
ffff0b30:	bf84      	itt	hi
ffff0b32:	3b37      	subhi	r3, #55	; 0x37
ffff0b34:	b2d8      	uxtbhi	r0, r3
ffff0b36:	4770      	bx	lr

ffff0b38 <HexAsciiToByte>:
ffff0b38:	b508      	push	{r3, lr}
ffff0b3a:	7841      	ldrb	r1, [r0, #1]
ffff0b3c:	7800      	ldrb	r0, [r0, #0]
ffff0b3e:	f7ff fff3 	bl	ffff0b28 <HexAsciiToNibble>
ffff0b42:	4602      	mov	r2, r0
ffff0b44:	4608      	mov	r0, r1
ffff0b46:	f7ff ffef 	bl	ffff0b28 <HexAsciiToNibble>
ffff0b4a:	eb00 1002 	add.w	r0, r0, r2, lsl #4
ffff0b4e:	b2c0      	uxtb	r0, r0
ffff0b50:	bd08      	pop	{r3, pc}

ffff0b52 <GetCount>:
ffff0b52:	3002      	adds	r0, #2
ffff0b54:	f7ff bff0 	b.w	ffff0b38 <HexAsciiToByte>

ffff0b58 <GetAddressS3>:
ffff0b58:	b5f8      	push	{r3, r4, r5, r6, r7, lr}
ffff0b5a:	4605      	mov	r5, r0
ffff0b5c:	3004      	adds	r0, #4
ffff0b5e:	f7ff ffeb 	bl	ffff0b38 <HexAsciiToByte>
ffff0b62:	4607      	mov	r7, r0
ffff0b64:	1da8      	adds	r0, r5, #6
ffff0b66:	f7ff ffe7 	bl	ffff0b38 <HexAsciiToByte>
ffff0b6a:	4604      	mov	r4, r0
ffff0b6c:	f105 0008 	add.w	r0, r5, #8
ffff0b70:	f7ff ffe2 	bl	ffff0b38 <HexAsciiToByte>
ffff0b74:	0424      	lsls	r4, r4, #16
ffff0b76:	4606      	mov	r6, r0
ffff0b78:	eb04 6407 	add.w	r4, r4, r7, lsl #24
ffff0b7c:	f105 000a 	add.w	r0, r5, #10
ffff0b80:	eb04 2406 	add.w	r4, r4, r6, lsl #8
ffff0b84:	f7ff ffd8 	bl	ffff0b38 <HexAsciiToByte>
ffff0b88:	4420      	add	r0, r4
ffff0b8a:	bdf8      	pop	{r3, r4, r5, r6, r7, pc}

ffff0b8c <GetDataS3>:
ffff0b8c:	3106      	adds	r1, #6
ffff0b8e:	b508      	push	{r3, lr}
ffff0b90:	eb00 0041 	add.w	r0, r0, r1, lsl #1
ffff0b94:	f7ff ffd0 	bl	ffff0b38 <HexAsciiToByte>
ffff0b98:	bd08      	pop	{r3, pc}

ffff0b9a <SrecReadLine>:
ffff0b9a:	b5f0      	push	{r4, r5, r6, r7, lr}
ffff0b9c:	4604      	mov	r4, r0
ffff0b9e:	6815      	ldr	r5, [r2, #0]
ffff0ba0:	680b      	ldr	r3, [r1, #0]
ffff0ba2:	4418      	add	r0, r3
ffff0ba4:	4603      	mov	r3, r0
ffff0ba6:	b945      	cbnz	r5, ffff0bba <SrecReadLine+0x20>
ffff0ba8:	461a      	mov	r2, r3
ffff0baa:	3301      	adds	r3, #1
ffff0bac:	1b1e      	subs	r6, r3, r4
ffff0bae:	7817      	ldrb	r7, [r2, #0]
ffff0bb0:	2f0a      	cmp	r7, #10
ffff0bb2:	d1f9      	bne.n	ffff0ba8 <SrecReadLine+0xe>
ffff0bb4:	600e      	str	r6, [r1, #0]
ffff0bb6:	7015      	strb	r5, [r2, #0]
ffff0bb8:	bdf0      	pop	{r4, r5, r6, r7, pc}
ffff0bba:	2301      	movs	r3, #1
ffff0bbc:	2000      	movs	r0, #0
ffff0bbe:	6013      	str	r3, [r2, #0]
ffff0bc0:	e7fa      	b.n	ffff0bb8 <SrecReadLine+0x1e>

ffff0bc2 <SrecReader>:
ffff0bc2:	e92d 45f7 	stmdb	sp!, {r0, r1, r2, r4, r5, r6, r7, r8, sl, lr}
ffff0bc6:	4606      	mov	r6, r0
ffff0bc8:	460f      	mov	r7, r1
ffff0bca:	2300      	movs	r3, #0
ffff0bcc:	e9cd 3300 	strd	r3, r3, [sp]
ffff0bd0:	9d00      	ldr	r5, [sp, #0]
ffff0bd2:	b11d      	cbz	r5, ffff0bdc <SrecReader+0x1a>
ffff0bd4:	2000      	movs	r0, #0
ffff0bd6:	b003      	add	sp, #12
ffff0bd8:	e8bd 85f0 	ldmia.w	sp!, {r4, r5, r6, r7, r8, sl, pc}
ffff0bdc:	466a      	mov	r2, sp
ffff0bde:	a901      	add	r1, sp, #4
ffff0be0:	4630      	mov	r0, r6
ffff0be2:	f7ff ffda 	bl	ffff0b9a <SrecReadLine>
ffff0be6:	7803      	ldrb	r3, [r0, #0]
ffff0be8:	4680      	mov	r8, r0
ffff0bea:	2b53      	cmp	r3, #83	; 0x53
ffff0bec:	d1f2      	bne.n	ffff0bd4 <SrecReader+0x12>
ffff0bee:	7843      	ldrb	r3, [r0, #1]
ffff0bf0:	2b39      	cmp	r3, #57	; 0x39
ffff0bf2:	d8ed      	bhi.n	ffff0bd0 <SrecReader+0xe>
ffff0bf4:	2b36      	cmp	r3, #54	; 0x36
ffff0bf6:	d816      	bhi.n	ffff0c26 <SrecReader+0x64>
ffff0bf8:	2b30      	cmp	r3, #48	; 0x30
ffff0bfa:	d0e9      	beq.n	ffff0bd0 <SrecReader+0xe>
ffff0bfc:	2b33      	cmp	r3, #51	; 0x33
ffff0bfe:	d1e7      	bne.n	ffff0bd0 <SrecReader+0xe>
ffff0c00:	f7ff ffa7 	bl	ffff0b52 <GetCount>
ffff0c04:	4604      	mov	r4, r0
ffff0c06:	4640      	mov	r0, r8
ffff0c08:	3c05      	subs	r4, #5
ffff0c0a:	f7ff ffa5 	bl	ffff0b58 <GetAddressS3>
ffff0c0e:	eb07 0a00 	add.w	sl, r7, r0
ffff0c12:	42ac      	cmp	r4, r5
ffff0c14:	d9dc      	bls.n	ffff0bd0 <SrecReader+0xe>
ffff0c16:	4629      	mov	r1, r5
ffff0c18:	4640      	mov	r0, r8
ffff0c1a:	f7ff ffb7 	bl	ffff0b8c <GetDataS3>
ffff0c1e:	3501      	adds	r5, #1
ffff0c20:	f80a 0b01 	strb.w	r0, [sl], #1
ffff0c24:	e7f5      	b.n	ffff0c12 <SrecReader+0x50>
ffff0c26:	2301      	movs	r3, #1
ffff0c28:	9300      	str	r3, [sp, #0]
ffff0c2a:	e7d1      	b.n	ffff0bd0 <SrecReader+0xe>

ffff0c2c <ChargementApplicative>:
ffff0c2c:	b570      	push	{r4, r5, r6, lr}
ffff0c2e:	2100      	movs	r1, #0
ffff0c30:	4c11      	ldr	r4, [pc, #68]	; (ffff0c78 <ChargementApplicative+0x4c>)
ffff0c32:	f44f 3580 	mov.w	r5, #65536	; 0x10000
ffff0c36:	462a      	mov	r2, r5
ffff0c38:	4628      	mov	r0, r5
ffff0c3a:	2600      	movs	r6, #0
ffff0c3c:	6025      	str	r5, [r4, #0]
ffff0c3e:	f005 fa0f 	bl	ffff6060 <memset>
ffff0c42:	462a      	mov	r2, r5
ffff0c44:	4635      	mov	r5, r6
ffff0c46:	2100      	movs	r1, #0
ffff0c48:	4608      	mov	r0, r1
ffff0c4a:	f005 fa09 	bl	ffff6060 <memset>
ffff0c4e:	f7ff fa89 	bl	ffff0164 <getc>
ffff0c52:	6823      	ldr	r3, [r4, #0]
ffff0c54:	b2c0      	uxtb	r0, r0
ffff0c56:	2e53      	cmp	r6, #83	; 0x53
ffff0c58:	5558      	strb	r0, [r3, r5]
ffff0c5a:	d101      	bne.n	ffff0c60 <ChargementApplicative+0x34>
ffff0c5c:	2837      	cmp	r0, #55	; 0x37
ffff0c5e:	d002      	beq.n	ffff0c66 <ChargementApplicative+0x3a>
ffff0c60:	3501      	adds	r5, #1
ffff0c62:	4606      	mov	r6, r0
ffff0c64:	e7f3      	b.n	ffff0c4e <ChargementApplicative+0x22>
ffff0c66:	6823      	ldr	r3, [r4, #0]
ffff0c68:	2100      	movs	r1, #0
ffff0c6a:	442b      	add	r3, r5
ffff0c6c:	7059      	strb	r1, [r3, #1]
ffff0c6e:	6820      	ldr	r0, [r4, #0]
ffff0c70:	e8bd 4070 	ldmia.w	sp!, {r4, r5, r6, lr}
ffff0c74:	f7ff bfa5 	b.w	ffff0bc2 <SrecReader>
ffff0c78:	ffff7a00 	.word	0xffff7a00

ffff0c7c <FDy_cm_wait_for_fsm>:
ffff0c7c:	4a03      	ldr	r2, [pc, #12]	; (ffff0c8c <FDy_cm_wait_for_fsm+0x10>)
ffff0c7e:	6953      	ldr	r3, [r2, #20]
ffff0c80:	f3bf 8f5f 	dmb	sy
ffff0c84:	07db      	lsls	r3, r3, #31
ffff0c86:	d4fa      	bmi.n	ffff0c7e <FDy_cm_wait_for_fsm+0x2>
ffff0c88:	4770      	bx	lr
ffff0c8a:	bf00      	nop
ffff0c8c:	ffd04000 	.word	0xffd04000

ffff0c90 <FDy_cm_write_with_phase.constprop.0>:
ffff0c90:	680b      	ldr	r3, [r1, #0]
ffff0c92:	f3bf 8f5f 	dmb	sy
ffff0c96:	f413 6f60 	tst.w	r3, #3584	; 0xe00
ffff0c9a:	d1f9      	bne.n	ffff0c90 <FDy_cm_write_with_phase.constprop.0>
ffff0c9c:	f3bf 8f5f 	dmb	sy
ffff0ca0:	6008      	str	r0, [r1, #0]
ffff0ca2:	680b      	ldr	r3, [r1, #0]
ffff0ca4:	f3bf 8f5f 	dmb	sy
ffff0ca8:	f413 6f60 	tst.w	r3, #3584	; 0xe00
ffff0cac:	d1f9      	bne.n	ffff0ca2 <FDy_cm_write_with_phase.constprop.0+0x12>
ffff0cae:	4770      	bx	lr

ffff0cb0 <FDy_cm_basic_init>:
ffff0cb0:	b537      	push	{r0, r1, r2, r4, r5, lr}
ffff0cb2:	4999      	ldr	r1, [pc, #612]	; (ffff0f18 <FDy_cm_basic_init+0x268>)
ffff0cb4:	f8d1 30a0 	ldr.w	r3, [r1, #160]	; 0xa0
ffff0cb8:	f3bf 8f5f 	dmb	sy
ffff0cbc:	f423 6380 	bic.w	r3, r3, #1024	; 0x400
ffff0cc0:	f3bf 8f5f 	dmb	sy
ffff0cc4:	f8c1 30a0 	str.w	r3, [r1, #160]	; 0xa0
ffff0cc8:	f3bf 8f5f 	dmb	sy
ffff0ccc:	f44f 733d 	mov.w	r3, #756	; 0x2f4
ffff0cd0:	660b      	str	r3, [r1, #96]	; 0x60
ffff0cd2:	f3bf 8f5f 	dmb	sy
ffff0cd6:	2000      	movs	r0, #0
ffff0cd8:	f8c1 00d8 	str.w	r0, [r1, #216]	; 0xd8
ffff0cdc:	f3bf 8f5f 	dmb	sy
ffff0ce0:	f8c1 00a0 	str.w	r0, [r1, #160]	; 0xa0
ffff0ce4:	f3bf 8f5f 	dmb	sy
ffff0ce8:	230b      	movs	r3, #11
ffff0cea:	604b      	str	r3, [r1, #4]
ffff0cec:	f7ff ffc6 	bl	ffff0c7c <FDy_cm_wait_for_fsm>
ffff0cf0:	f3bf 8f5f 	dmb	sy
ffff0cf4:	4b89      	ldr	r3, [pc, #548]	; (ffff0f1c <FDy_cm_basic_init+0x26c>)
ffff0cf6:	640b      	str	r3, [r1, #64]	; 0x40
ffff0cf8:	f3bf 8f5f 	dmb	sy
ffff0cfc:	f8c1 3080 	str.w	r3, [r1, #128]	; 0x80
ffff0d00:	f3bf 8f5f 	dmb	sy
ffff0d04:	f8c1 30c0 	str.w	r3, [r1, #192]	; 0xc0
ffff0d08:	f3bf 8f5f 	dmb	sy
ffff0d0c:	2315      	movs	r3, #21
ffff0d0e:	f8c1 30ac 	str.w	r3, [r1, #172]	; 0xac
ffff0d12:	f3bf 8f5f 	dmb	sy
ffff0d16:	6708      	str	r0, [r1, #112]	; 0x70
ffff0d18:	6c0b      	ldr	r3, [r1, #64]	; 0x40
ffff0d1a:	f3bf 8f5f 	dmb	sy
ffff0d1e:	f8d1 3080 	ldr.w	r3, [r1, #128]	; 0x80
ffff0d22:	f3bf 8f5f 	dmb	sy
ffff0d26:	f8d1 30c0 	ldr.w	r3, [r1, #192]	; 0xc0
ffff0d2a:	f3bf 8f5f 	dmb	sy
ffff0d2e:	f3bf 8f5f 	dmb	sy
ffff0d32:	f44f 73fc 	mov.w	r3, #504	; 0x1f8
ffff0d36:	640b      	str	r3, [r1, #64]	; 0x40
ffff0d38:	f3bf 8f5f 	dmb	sy
ffff0d3c:	f44f 739c 	mov.w	r3, #312	; 0x138
ffff0d40:	f8c1 3080 	str.w	r3, [r1, #128]	; 0x80
ffff0d44:	f3bf 8f5f 	dmb	sy
ffff0d48:	23f8      	movs	r3, #248	; 0xf8
ffff0d4a:	f8c1 30c0 	str.w	r3, [r1, #192]	; 0xc0
ffff0d4e:	f3bf 8f5f 	dmb	sy
ffff0d52:	6488      	str	r0, [r1, #72]	; 0x48
ffff0d54:	f3bf 8f5f 	dmb	sy
ffff0d58:	2301      	movs	r3, #1
ffff0d5a:	f8c1 30e0 	str.w	r3, [r1, #224]	; 0xe0
ffff0d5e:	f3bf 8f5f 	dmb	sy
ffff0d62:	64c8      	str	r0, [r1, #76]	; 0x4c
ffff0d64:	f3bf 8f5f 	dmb	sy
ffff0d68:	6508      	str	r0, [r1, #80]	; 0x50
ffff0d6a:	f3bf 8f5f 	dmb	sy
ffff0d6e:	230f      	movs	r3, #15
ffff0d70:	65cb      	str	r3, [r1, #92]	; 0x5c
ffff0d72:	f3bf 8f5f 	dmb	sy
ffff0d76:	f240 13ff 	movw	r3, #511	; 0x1ff
ffff0d7a:	f8c1 3088 	str.w	r3, [r1, #136]	; 0x88
ffff0d7e:	f3bf 8f5f 	dmb	sy
ffff0d82:	2203      	movs	r2, #3
ffff0d84:	f8c1 208c 	str.w	r2, [r1, #140]	; 0x8c
ffff0d88:	f3bf 8f5f 	dmb	sy
ffff0d8c:	654a      	str	r2, [r1, #84]	; 0x54
ffff0d8e:	f3bf 8f5f 	dmb	sy
ffff0d92:	f8c1 3090 	str.w	r3, [r1, #144]	; 0x90
ffff0d96:	f3bf 8f5f 	dmb	sy
ffff0d9a:	658b      	str	r3, [r1, #88]	; 0x58
ffff0d9c:	f3bf 8f5f 	dmb	sy
ffff0da0:	2204      	movs	r2, #4
ffff0da2:	f8c1 2094 	str.w	r2, [r1, #148]	; 0x94
ffff0da6:	f3bf 8f5f 	dmb	sy
ffff0daa:	f8c1 2098 	str.w	r2, [r1, #152]	; 0x98
ffff0dae:	f3bf 8f5f 	dmb	sy
ffff0db2:	f8c1 309c 	str.w	r3, [r1, #156]	; 0x9c
ffff0db6:	4b5a      	ldr	r3, [pc, #360]	; (ffff0f20 <FDy_cm_basic_init+0x270>)
ffff0db8:	9001      	str	r0, [sp, #4]
ffff0dba:	3002      	adds	r0, #2
ffff0dbc:	4298      	cmp	r0, r3
ffff0dbe:	d1fb      	bne.n	ffff0db8 <FDy_cm_basic_init+0x108>
ffff0dc0:	f3bf 8f5f 	dmb	sy
ffff0dc4:	f44f 73fd 	mov.w	r3, #506	; 0x1fa
ffff0dc8:	640b      	str	r3, [r1, #64]	; 0x40
ffff0dca:	f3bf 8f5f 	dmb	sy
ffff0dce:	f44f 739d 	mov.w	r3, #314	; 0x13a
ffff0dd2:	f8c1 3080 	str.w	r3, [r1, #128]	; 0x80
ffff0dd6:	f3bf 8f5f 	dmb	sy
ffff0dda:	23fa      	movs	r3, #250	; 0xfa
ffff0ddc:	f8c1 30c0 	str.w	r3, [r1, #192]	; 0xc0
ffff0de0:	f3bf 8f5f 	dmb	sy
ffff0de4:	2395      	movs	r3, #149	; 0x95
ffff0de6:	664b      	str	r3, [r1, #100]	; 0x64
ffff0de8:	f3bf 8f5f 	dmb	sy
ffff0dec:	2304      	movs	r3, #4
ffff0dee:	668b      	str	r3, [r1, #104]	; 0x68
ffff0df0:	f3bf 8f5f 	dmb	sy
ffff0df4:	2300      	movs	r3, #0
ffff0df6:	66cb      	str	r3, [r1, #108]	; 0x6c
ffff0df8:	f3bf 8f5f 	dmb	sy
ffff0dfc:	f44f 6210 	mov.w	r2, #2304	; 0x900
ffff0e00:	f8c1 20a4 	str.w	r2, [r1, #164]	; 0xa4
ffff0e04:	f3bf 8f5f 	dmb	sy
ffff0e08:	4c43      	ldr	r4, [pc, #268]	; (ffff0f18 <FDy_cm_basic_init+0x268>)
ffff0e0a:	f641 0269 	movw	r2, #6249	; 0x1869
ffff0e0e:	f8c1 20a8 	str.w	r2, [r1, #168]	; 0xa8
ffff0e12:	68a2      	ldr	r2, [r4, #8]
ffff0e14:	f3bf 8f5f 	dmb	sy
ffff0e18:	f402 72e0 	and.w	r2, r2, #448	; 0x1c0
ffff0e1c:	f5b2 7fe0 	cmp.w	r2, #448	; 0x1c0
ffff0e20:	d178      	bne.n	ffff0f14 <FDy_cm_basic_init+0x264>
ffff0e22:	3301      	adds	r3, #1
ffff0e24:	2b09      	cmp	r3, #9
ffff0e26:	d9f4      	bls.n	ffff0e12 <FDy_cm_basic_init+0x162>
ffff0e28:	f3bf 8f5f 	dmb	sy
ffff0e2c:	2001      	movs	r0, #1
ffff0e2e:	f8c4 00c8 	str.w	r0, [r4, #200]	; 0xc8
ffff0e32:	f3bf 8f5f 	dmb	sy
ffff0e36:	2500      	movs	r5, #0
ffff0e38:	f8c4 50cc 	str.w	r5, [r4, #204]	; 0xcc
ffff0e3c:	f3bf 8f5f 	dmb	sy
ffff0e40:	f8c4 00d0 	str.w	r0, [r4, #208]	; 0xd0
ffff0e44:	f3bf 8f5f 	dmb	sy
ffff0e48:	2305      	movs	r3, #5
ffff0e4a:	f8c4 30d4 	str.w	r3, [r4, #212]	; 0xd4
ffff0e4e:	6c22      	ldr	r2, [r4, #64]	; 0x40
ffff0e50:	f3bf 8f5f 	dmb	sy
ffff0e54:	f042 7380 	orr.w	r3, r2, #16777216	; 0x1000000
ffff0e58:	f3bf 8f5f 	dmb	sy
ffff0e5c:	6423      	str	r3, [r4, #64]	; 0x40
ffff0e5e:	f8d4 3080 	ldr.w	r3, [r4, #128]	; 0x80
ffff0e62:	f3bf 8f5f 	dmb	sy
ffff0e66:	f043 7180 	orr.w	r1, r3, #16777216	; 0x1000000
ffff0e6a:	f3bf 8f5f 	dmb	sy
ffff0e6e:	f8c4 1080 	str.w	r1, [r4, #128]	; 0x80
ffff0e72:	f3bf 8f5f 	dmb	sy
ffff0e76:	492b      	ldr	r1, [pc, #172]	; (ffff0f24 <FDy_cm_basic_init+0x274>)
ffff0e78:	f022 7280 	bic.w	r2, r2, #16777216	; 0x1000000
ffff0e7c:	f8c4 10c0 	str.w	r1, [r4, #192]	; 0xc0
ffff0e80:	f3bf 8f5f 	dmb	sy
ffff0e84:	f023 7380 	bic.w	r3, r3, #16777216	; 0x1000000
ffff0e88:	6422      	str	r2, [r4, #64]	; 0x40
ffff0e8a:	f3bf 8f5f 	dmb	sy
ffff0e8e:	f8c4 3080 	str.w	r3, [r4, #128]	; 0x80
ffff0e92:	f3bf 8f5f 	dmb	sy
ffff0e96:	4924      	ldr	r1, [pc, #144]	; (ffff0f28 <FDy_cm_basic_init+0x278>)
ffff0e98:	23fa      	movs	r3, #250	; 0xfa
ffff0e9a:	f8c4 30c0 	str.w	r3, [r4, #192]	; 0xc0
ffff0e9e:	f7ff fef7 	bl	ffff0c90 <FDy_cm_write_with_phase.constprop.0>
ffff0ea2:	4628      	mov	r0, r5
ffff0ea4:	3104      	adds	r1, #4
ffff0ea6:	f7ff fef3 	bl	ffff0c90 <FDy_cm_write_with_phase.constprop.0>
ffff0eaa:	3104      	adds	r1, #4
ffff0eac:	f640 0001 	movw	r0, #2049	; 0x801
ffff0eb0:	f7ff feee 	bl	ffff0c90 <FDy_cm_write_with_phase.constprop.0>
ffff0eb4:	3104      	adds	r1, #4
ffff0eb6:	f240 10ff 	movw	r0, #511	; 0x1ff
ffff0eba:	f7ff fee9 	bl	ffff0c90 <FDy_cm_write_with_phase.constprop.0>
ffff0ebe:	f3bf 8f5f 	dmb	sy
ffff0ec2:	6065      	str	r5, [r4, #4]
ffff0ec4:	f7ff feda 	bl	ffff0c7c <FDy_cm_wait_for_fsm>
ffff0ec8:	6823      	ldr	r3, [r4, #0]
ffff0eca:	f3bf 8f5f 	dmb	sy
ffff0ece:	f043 0301 	orr.w	r3, r3, #1
ffff0ed2:	f3bf 8f5f 	dmb	sy
ffff0ed6:	6023      	str	r3, [r4, #0]
ffff0ed8:	f7ff fed0 	bl	ffff0c7c <FDy_cm_wait_for_fsm>
ffff0edc:	f3bf 8f5f 	dmb	sy
ffff0ee0:	231a      	movs	r3, #26
ffff0ee2:	f8c4 30ac 	str.w	r3, [r4, #172]	; 0xac
ffff0ee6:	f3bf 8f5f 	dmb	sy
ffff0eea:	2303      	movs	r3, #3
ffff0eec:	6723      	str	r3, [r4, #112]	; 0x70
ffff0eee:	f3bf 8f5f 	dmb	sy
ffff0ef2:	f04f 33ff 	mov.w	r3, #4294967295
ffff0ef6:	6623      	str	r3, [r4, #96]	; 0x60
ffff0ef8:	f3bf 8f5f 	dmb	sy
ffff0efc:	f8c4 30a0 	str.w	r3, [r4, #160]	; 0xa0
ffff0f00:	f3bf 8f5f 	dmb	sy
ffff0f04:	f8c4 30d8 	str.w	r3, [r4, #216]	; 0xd8
ffff0f08:	f3bf 8f5f 	dmb	sy
ffff0f0c:	2338      	movs	r3, #56	; 0x38
ffff0f0e:	60a3      	str	r3, [r4, #8]
ffff0f10:	b003      	add	sp, #12
ffff0f12:	bd30      	pop	{r4, r5, pc}
ffff0f14:	2300      	movs	r3, #0
ffff0f16:	e77c      	b.n	ffff0e12 <FDy_cm_basic_init+0x162>
ffff0f18:	ffd04000 	.word	0xffd04000
ffff0f1c:	0001000d 	.word	0x0001000d
ffff0f20:	000222e0 	.word	0x000222e0
ffff0f24:	010000fa 	.word	0x010000fa
ffff0f28:	ffd040c8 	.word	0xffd040c8

ffff0f2c <fpgamgr_set_cd_ratio>:
ffff0f2c:	4a03      	ldr	r2, [pc, #12]	; (ffff0f3c <fpgamgr_set_cd_ratio+0x10>)
ffff0f2e:	6853      	ldr	r3, [r2, #4]
ffff0f30:	f023 03c0 	bic.w	r3, r3, #192	; 0xc0
ffff0f34:	ea43 1380 	orr.w	r3, r3, r0, lsl #6
ffff0f38:	6053      	str	r3, [r2, #4]
ffff0f3a:	4770      	bx	lr
ffff0f3c:	ff706000 	.word	0xff706000

ffff0f40 <fpgamgr_dclkcnt_set>:
ffff0f40:	4b0e      	ldr	r3, [pc, #56]	; (ffff0f7c <fpgamgr_dclkcnt_set+0x3c>)
ffff0f42:	68da      	ldr	r2, [r3, #12]
ffff0f44:	f3bf 8f5f 	dmb	sy
ffff0f48:	b11a      	cbz	r2, ffff0f52 <fpgamgr_dclkcnt_set+0x12>
ffff0f4a:	f3bf 8f5f 	dmb	sy
ffff0f4e:	2201      	movs	r2, #1
ffff0f50:	60da      	str	r2, [r3, #12]
ffff0f52:	f3bf 8f5f 	dmb	sy
ffff0f56:	f04f 7280 	mov.w	r2, #16777216	; 0x1000000
ffff0f5a:	6098      	str	r0, [r3, #8]
ffff0f5c:	68d9      	ldr	r1, [r3, #12]
ffff0f5e:	f3bf 8f5f 	dmb	sy
ffff0f62:	b921      	cbnz	r1, ffff0f6e <fpgamgr_dclkcnt_set+0x2e>
ffff0f64:	3a01      	subs	r2, #1
ffff0f66:	d1f9      	bne.n	ffff0f5c <fpgamgr_dclkcnt_set+0x1c>
ffff0f68:	f06f 006d 	mvn.w	r0, #109	; 0x6d
ffff0f6c:	4770      	bx	lr
ffff0f6e:	f3bf 8f5f 	dmb	sy
ffff0f72:	2201      	movs	r2, #1
ffff0f74:	2000      	movs	r0, #0
ffff0f76:	60da      	str	r2, [r3, #12]
ffff0f78:	4770      	bx	lr
ffff0f7a:	bf00      	nop
ffff0f7c:	ff706000 	.word	0xff706000

ffff0f80 <is_fpgamgr_initdone_high>:
ffff0f80:	4b03      	ldr	r3, [pc, #12]	; (ffff0f90 <is_fpgamgr_initdone_high+0x10>)
ffff0f82:	f8d3 0850 	ldr.w	r0, [r3, #2128]	; 0x850
ffff0f86:	f3bf 8f5f 	dmb	sy
ffff0f8a:	f000 0004 	and.w	r0, r0, #4
ffff0f8e:	4770      	bx	lr
ffff0f90:	ff706000 	.word	0xff706000

ffff0f94 <fpgamgr_get_mode>:
ffff0f94:	4b03      	ldr	r3, [pc, #12]	; (ffff0fa4 <fpgamgr_get_mode+0x10>)
ffff0f96:	6818      	ldr	r0, [r3, #0]
ffff0f98:	f3bf 8f5f 	dmb	sy
ffff0f9c:	f000 0007 	and.w	r0, r0, #7
ffff0fa0:	4770      	bx	lr
ffff0fa2:	bf00      	nop
ffff0fa4:	ff706000 	.word	0xff706000

ffff0fa8 <fpgamgr_test_fpga_ready>:
ffff0fa8:	b508      	push	{r3, lr}
ffff0faa:	f7ff ffe9 	bl	ffff0f80 <is_fpgamgr_initdone_high>
ffff0fae:	b908      	cbnz	r0, ffff0fb4 <fpgamgr_test_fpga_ready+0xc>
ffff0fb0:	2000      	movs	r0, #0
ffff0fb2:	bd08      	pop	{r3, pc}
ffff0fb4:	f7ff ffe4 	bl	ffff0f80 <is_fpgamgr_initdone_high>
ffff0fb8:	2800      	cmp	r0, #0
ffff0fba:	d0f9      	beq.n	ffff0fb0 <fpgamgr_test_fpga_ready+0x8>
ffff0fbc:	f7ff ffea 	bl	ffff0f94 <fpgamgr_get_mode>
ffff0fc0:	1f03      	subs	r3, r0, #4
ffff0fc2:	4258      	negs	r0, r3
ffff0fc4:	4158      	adcs	r0, r3
ffff0fc6:	e7f4      	b.n	ffff0fb2 <fpgamgr_test_fpga_ready+0xa>

ffff0fc8 <socfpga_load>:
ffff0fc8:	e92d 4df0 	stmdb	sp!, {r4, r5, r6, r7, r8, sl, fp, lr}
ffff0fcc:	f010 0303 	ands.w	r3, r0, #3
ffff0fd0:	4605      	mov	r5, r0
ffff0fd2:	460c      	mov	r4, r1
ffff0fd4:	d007      	beq.n	ffff0fe6 <socfpga_load+0x1e>
ffff0fd6:	4876      	ldr	r0, [pc, #472]	; (ffff11b0 <socfpga_load+0x1e8>)
ffff0fd8:	f7ff f929 	bl	ffff022e <puts>
ffff0fdc:	f06f 0215 	mvn.w	r2, #21
ffff0fe0:	4610      	mov	r0, r2
ffff0fe2:	e8bd 8df0 	ldmia.w	sp!, {r4, r5, r6, r7, r8, sl, fp, pc}
ffff0fe6:	f3bf 8f5f 	dmb	sy
ffff0fea:	4a72      	ldr	r2, [pc, #456]	; (ffff11b4 <socfpga_load+0x1ec>)
ffff0fec:	6293      	str	r3, [r2, #40]	; 0x28
ffff0fee:	f3bf 8f5f 	dmb	sy
ffff0ff2:	f5a2 2263 	sub.w	r2, r2, #929792	; 0xe3000
ffff0ff6:	2001      	movs	r0, #1
ffff0ff8:	f8c2 3080 	str.w	r3, [r2, #128]	; 0x80
ffff0ffc:	f7ff fae8 	bl	ffff05d0 <socfpga_bridges_reset>
ffff1000:	f3bf 8f5f 	dmb	sy
ffff1004:	4b6c      	ldr	r3, [pc, #432]	; (ffff11b8 <socfpga_load+0x1f0>)
ffff1006:	2201      	movs	r2, #1
ffff1008:	f8df 81b0 	ldr.w	r8, [pc, #432]	; ffff11bc <socfpga_load+0x1f4>
ffff100c:	601a      	str	r2, [r3, #0]
ffff100e:	f8d8 0000 	ldr.w	r0, [r8]
ffff1012:	f3bf 8f5f 	dmb	sy
ffff1016:	f010 0f40 	tst.w	r0, #64	; 0x40
ffff101a:	f8d8 3004 	ldr.w	r3, [r8, #4]
ffff101e:	f3c0 00c1 	ubfx	r0, r0, #3, #2
ffff1022:	d033      	beq.n	ffff108c <socfpga_load+0xc4>
ffff1024:	f443 7300 	orr.w	r3, r3, #512	; 0x200
ffff1028:	f8c8 3004 	str.w	r3, [r8, #4]
ffff102c:	bb30      	cbnz	r0, ffff107c <socfpga_load+0xb4>
ffff102e:	2000      	movs	r0, #0
ffff1030:	f7ff ff7c 	bl	ffff0f2c <fpgamgr_set_cd_ratio>
ffff1034:	f8d8 3004 	ldr.w	r3, [r8, #4]
ffff1038:	f04f 7280 	mov.w	r2, #16777216	; 0x1000000
ffff103c:	f023 0302 	bic.w	r3, r3, #2
ffff1040:	f8c8 3004 	str.w	r3, [r8, #4]
ffff1044:	f8d8 3004 	ldr.w	r3, [r8, #4]
ffff1048:	f043 0301 	orr.w	r3, r3, #1
ffff104c:	f8c8 3004 	str.w	r3, [r8, #4]
ffff1050:	f8d8 3004 	ldr.w	r3, [r8, #4]
ffff1054:	f043 0304 	orr.w	r3, r3, #4
ffff1058:	f8c8 3004 	str.w	r3, [r8, #4]
ffff105c:	f7ff ff9a 	bl	ffff0f94 <fpgamgr_get_mode>
ffff1060:	2801      	cmp	r0, #1
ffff1062:	d001      	beq.n	ffff1068 <socfpga_load+0xa0>
ffff1064:	3a01      	subs	r2, #1
ffff1066:	d1f9      	bne.n	ffff105c <socfpga_load+0x94>
ffff1068:	f7ff ff94 	bl	ffff0f94 <fpgamgr_get_mode>
ffff106c:	2801      	cmp	r0, #1
ffff106e:	d018      	beq.n	ffff10a2 <socfpga_load+0xda>
ffff1070:	4853      	ldr	r0, [pc, #332]	; (ffff11c0 <socfpga_load+0x1f8>)
ffff1072:	f7ff f8dc 	bl	ffff022e <puts>
ffff1076:	f04f 32ff 	mov.w	r2, #4294967295
ffff107a:	e7b1      	b.n	ffff0fe0 <socfpga_load+0x18>
ffff107c:	2801      	cmp	r0, #1
ffff107e:	d101      	bne.n	ffff1084 <socfpga_load+0xbc>
ffff1080:	2002      	movs	r0, #2
ffff1082:	e7d5      	b.n	ffff1030 <socfpga_load+0x68>
ffff1084:	2802      	cmp	r0, #2
ffff1086:	d1d5      	bne.n	ffff1034 <socfpga_load+0x6c>
ffff1088:	2003      	movs	r0, #3
ffff108a:	e7d1      	b.n	ffff1030 <socfpga_load+0x68>
ffff108c:	f423 7300 	bic.w	r3, r3, #512	; 0x200
ffff1090:	f8c8 3004 	str.w	r3, [r8, #4]
ffff1094:	2800      	cmp	r0, #0
ffff1096:	d0ca      	beq.n	ffff102e <socfpga_load+0x66>
ffff1098:	2801      	cmp	r0, #1
ffff109a:	d0c9      	beq.n	ffff1030 <socfpga_load+0x68>
ffff109c:	2802      	cmp	r0, #2
ffff109e:	d1c9      	bne.n	ffff1034 <socfpga_load+0x6c>
ffff10a0:	e7ee      	b.n	ffff1080 <socfpga_load+0xb8>
ffff10a2:	f8d8 3004 	ldr.w	r3, [r8, #4]
ffff10a6:	f04f 7280 	mov.w	r2, #16777216	; 0x1000000
ffff10aa:	f023 0304 	bic.w	r3, r3, #4
ffff10ae:	f8c8 3004 	str.w	r3, [r8, #4]
ffff10b2:	f7ff ff6f 	bl	ffff0f94 <fpgamgr_get_mode>
ffff10b6:	2802      	cmp	r0, #2
ffff10b8:	d001      	beq.n	ffff10be <socfpga_load+0xf6>
ffff10ba:	3a01      	subs	r2, #1
ffff10bc:	d1f9      	bne.n	ffff10b2 <socfpga_load+0xea>
ffff10be:	f7ff ff69 	bl	ffff0f94 <fpgamgr_get_mode>
ffff10c2:	2802      	cmp	r0, #2
ffff10c4:	d005      	beq.n	ffff10d2 <socfpga_load+0x10a>
ffff10c6:	483f      	ldr	r0, [pc, #252]	; (ffff11c4 <socfpga_load+0x1fc>)
ffff10c8:	f7ff f8b1 	bl	ffff022e <puts>
ffff10cc:	f06f 0201 	mvn.w	r2, #1
ffff10d0:	e786      	b.n	ffff0fe0 <socfpga_load+0x18>
ffff10d2:	f3bf 8f5f 	dmb	sy
ffff10d6:	f640 73ff 	movw	r3, #4095	; 0xfff
ffff10da:	f8c8 384c 	str.w	r3, [r8, #2124]	; 0x84c
ffff10de:	f004 0c1f 	and.w	ip, r4, #31
ffff10e2:	f8df b0e4 	ldr.w	fp, [pc, #228]	; ffff11c8 <socfpga_load+0x200>
ffff10e6:	f8d8 3004 	ldr.w	r3, [r8, #4]
ffff10ea:	f10c 0c03 	add.w	ip, ip, #3
ffff10ee:	ea4f 1a54 	mov.w	sl, r4, lsr #5
ffff10f2:	46ae      	mov	lr, r5
ffff10f4:	f443 7380 	orr.w	r3, r3, #256	; 0x100
ffff10f8:	ea4f 0c9c 	mov.w	ip, ip, lsr #2
ffff10fc:	f8c8 3004 	str.w	r3, [r8, #4]
ffff1100:	e8be 00ff 	ldmia.w	lr!, {r0, r1, r2, r3, r4, r5, r6, r7}
ffff1104:	e8ab 00ff 	stmia.w	fp!, {r0, r1, r2, r3, r4, r5, r6, r7}
ffff1108:	f1ab 0b20 	sub.w	fp, fp, #32
ffff110c:	f1ba 0a01 	subs.w	sl, sl, #1
ffff1110:	d1f6      	bne.n	ffff1100 <socfpga_load+0x138>
ffff1112:	f1bc 0f00 	cmp.w	ip, #0
ffff1116:	d006      	beq.n	ffff1126 <socfpga_load+0x15e>
ffff1118:	f85e ab04 	ldr.w	sl, [lr], #4
ffff111c:	f8cb a000 	str.w	sl, [fp]
ffff1120:	f1bc 0c01 	subs.w	ip, ip, #1
ffff1124:	d1f8      	bne.n	ffff1118 <socfpga_load+0x150>
ffff1126:	bf00      	nop
ffff1128:	f8d8 3850 	ldr.w	r3, [r8, #2128]	; 0x850
ffff112c:	f3bf 8f5f 	dmb	sy
ffff1130:	079b      	lsls	r3, r3, #30
ffff1132:	d105      	bne.n	ffff1140 <socfpga_load+0x178>
ffff1134:	4825      	ldr	r0, [pc, #148]	; (ffff11cc <socfpga_load+0x204>)
ffff1136:	f7ff f87a 	bl	ffff022e <puts>
ffff113a:	f06f 0202 	mvn.w	r2, #2
ffff113e:	e74f      	b.n	ffff0fe0 <socfpga_load+0x18>
ffff1140:	f8d8 3004 	ldr.w	r3, [r8, #4]
ffff1144:	2004      	movs	r0, #4
ffff1146:	f423 7380 	bic.w	r3, r3, #256	; 0x100
ffff114a:	f8c8 3004 	str.w	r3, [r8, #4]
ffff114e:	f7ff fef7 	bl	ffff0f40 <fpgamgr_dclkcnt_set>
ffff1152:	b970      	cbnz	r0, ffff1172 <socfpga_load+0x1aa>
ffff1154:	f04f 7280 	mov.w	r2, #16777216	; 0x1000000
ffff1158:	f7ff ff1c 	bl	ffff0f94 <fpgamgr_get_mode>
ffff115c:	2803      	cmp	r0, #3
ffff115e:	d015      	beq.n	ffff118c <socfpga_load+0x1c4>
ffff1160:	f7ff ff18 	bl	ffff0f94 <fpgamgr_get_mode>
ffff1164:	2804      	cmp	r0, #4
ffff1166:	d011      	beq.n	ffff118c <socfpga_load+0x1c4>
ffff1168:	3a01      	subs	r2, #1
ffff116a:	d1f5      	bne.n	ffff1158 <socfpga_load+0x190>
ffff116c:	f06f 0205 	mvn.w	r2, #5
ffff1170:	e736      	b.n	ffff0fe0 <socfpga_load+0x18>
ffff1172:	f06f 0204 	mvn.w	r2, #4
ffff1176:	e733      	b.n	ffff0fe0 <socfpga_load+0x18>
ffff1178:	f06f 0206 	mvn.w	r2, #6
ffff117c:	e730      	b.n	ffff0fe0 <socfpga_load+0x18>
ffff117e:	f8d8 3004 	ldr.w	r3, [r8, #4]
ffff1182:	f023 0301 	bic.w	r3, r3, #1
ffff1186:	f8c8 3004 	str.w	r3, [r8, #4]
ffff118a:	e729      	b.n	ffff0fe0 <socfpga_load+0x18>
ffff118c:	f44f 40a0 	mov.w	r0, #20480	; 0x5000
ffff1190:	f7ff fed6 	bl	ffff0f40 <fpgamgr_dclkcnt_set>
ffff1194:	4602      	mov	r2, r0
ffff1196:	2800      	cmp	r0, #0
ffff1198:	d1ee      	bne.n	ffff1178 <socfpga_load+0x1b0>
ffff119a:	f04f 7180 	mov.w	r1, #16777216	; 0x1000000
ffff119e:	f7ff fef9 	bl	ffff0f94 <fpgamgr_get_mode>
ffff11a2:	2804      	cmp	r0, #4
ffff11a4:	d0eb      	beq.n	ffff117e <socfpga_load+0x1b6>
ffff11a6:	3901      	subs	r1, #1
ffff11a8:	d1f9      	bne.n	ffff119e <socfpga_load+0x1d6>
ffff11aa:	f06f 0207 	mvn.w	r2, #7
ffff11ae:	e717      	b.n	ffff0fe0 <socfpga_load+0x18>
ffff11b0:	ffff77fb 	.word	0xffff77fb
ffff11b4:	ffd08000 	.word	0xffd08000
ffff11b8:	ff800000 	.word	0xff800000
ffff11bc:	ff706000 	.word	0xff706000
ffff11c0:	ffff782d 	.word	0xffff782d
ffff11c4:	ffff7845 	.word	0xffff7845
ffff11c8:	ffb90000 	.word	0xffb90000
ffff11cc:	ffff7861 	.word	0xffff7861

ffff11d0 <FDy_sys_mgr_frzctrl_freeze_req>:
ffff11d0:	f3bf 8f5f 	dmb	sy
ffff11d4:	4b19      	ldr	r3, [pc, #100]	; (ffff123c <FDy_sys_mgr_frzctrl_freeze_req+0x6c>)
ffff11d6:	2200      	movs	r2, #0
ffff11d8:	655a      	str	r2, [r3, #84]	; 0x54
ffff11da:	6c1a      	ldr	r2, [r3, #64]	; 0x40
ffff11dc:	f022 021c 	bic.w	r2, r2, #28
ffff11e0:	641a      	str	r2, [r3, #64]	; 0x40
ffff11e2:	6c1a      	ldr	r2, [r3, #64]	; 0x40
ffff11e4:	f022 0203 	bic.w	r2, r2, #3
ffff11e8:	641a      	str	r2, [r3, #64]	; 0x40
ffff11ea:	6c5a      	ldr	r2, [r3, #68]	; 0x44
ffff11ec:	f022 021c 	bic.w	r2, r2, #28
ffff11f0:	645a      	str	r2, [r3, #68]	; 0x44
ffff11f2:	6c5a      	ldr	r2, [r3, #68]	; 0x44
ffff11f4:	f022 0203 	bic.w	r2, r2, #3
ffff11f8:	645a      	str	r2, [r3, #68]	; 0x44
ffff11fa:	6c9a      	ldr	r2, [r3, #72]	; 0x48
ffff11fc:	f022 021c 	bic.w	r2, r2, #28
ffff1200:	649a      	str	r2, [r3, #72]	; 0x48
ffff1202:	6c9a      	ldr	r2, [r3, #72]	; 0x48
ffff1204:	f022 0203 	bic.w	r2, r2, #3
ffff1208:	649a      	str	r2, [r3, #72]	; 0x48
ffff120a:	6d1a      	ldr	r2, [r3, #80]	; 0x50
ffff120c:	f022 021c 	bic.w	r2, r2, #28
ffff1210:	651a      	str	r2, [r3, #80]	; 0x50
ffff1212:	6d1a      	ldr	r2, [r3, #80]	; 0x50
ffff1214:	f3bf 8f5f 	dmb	sy
ffff1218:	f022 0203 	bic.w	r2, r2, #3
ffff121c:	f042 02c0 	orr.w	r2, r2, #192	; 0xc0
ffff1220:	f3bf 8f5f 	dmb	sy
ffff1224:	651a      	str	r2, [r3, #80]	; 0x50
ffff1226:	6d1a      	ldr	r2, [r3, #80]	; 0x50
ffff1228:	f3bf 8f5f 	dmb	sy
ffff122c:	f422 7290 	bic.w	r2, r2, #288	; 0x120
ffff1230:	f042 0220 	orr.w	r2, r2, #32
ffff1234:	f3bf 8f5f 	dmb	sy
ffff1238:	651a      	str	r2, [r3, #80]	; 0x50
ffff123a:	4770      	bx	lr
ffff123c:	ffd08000 	.word	0xffd08000

ffff1240 <FDy_sys_mgr_frzctrl_thaw_req>:
ffff1240:	b082      	sub	sp, #8
ffff1242:	f3bf 8f5f 	dmb	sy
ffff1246:	4b21      	ldr	r3, [pc, #132]	; (ffff12cc <FDy_sys_mgr_frzctrl_thaw_req+0x8c>)
ffff1248:	2200      	movs	r2, #0
ffff124a:	4921      	ldr	r1, [pc, #132]	; (ffff12d0 <FDy_sys_mgr_frzctrl_thaw_req+0x90>)
ffff124c:	3340      	adds	r3, #64	; 0x40
ffff124e:	615a      	str	r2, [r3, #20]
ffff1250:	681a      	ldr	r2, [r3, #0]
ffff1252:	f042 0203 	orr.w	r2, r2, #3
ffff1256:	601a      	str	r2, [r3, #0]
ffff1258:	681a      	ldr	r2, [r3, #0]
ffff125a:	f042 020c 	orr.w	r2, r2, #12
ffff125e:	601a      	str	r2, [r3, #0]
ffff1260:	681a      	ldr	r2, [r3, #0]
ffff1262:	f042 0210 	orr.w	r2, r2, #16
ffff1266:	f843 2b04 	str.w	r2, [r3], #4
ffff126a:	428b      	cmp	r3, r1
ffff126c:	d1f0      	bne.n	ffff1250 <FDy_sys_mgr_frzctrl_thaw_req+0x10>
ffff126e:	4b17      	ldr	r3, [pc, #92]	; (ffff12cc <FDy_sys_mgr_frzctrl_thaw_req+0x8c>)
ffff1270:	f644 6120 	movw	r1, #20000	; 0x4e20
ffff1274:	6d1a      	ldr	r2, [r3, #80]	; 0x50
ffff1276:	f022 0220 	bic.w	r2, r2, #32
ffff127a:	651a      	str	r2, [r3, #80]	; 0x50
ffff127c:	6d1a      	ldr	r2, [r3, #80]	; 0x50
ffff127e:	f442 7280 	orr.w	r2, r2, #256	; 0x100
ffff1282:	651a      	str	r2, [r3, #80]	; 0x50
ffff1284:	2200      	movs	r2, #0
ffff1286:	9200      	str	r2, [sp, #0]
ffff1288:	3202      	adds	r2, #2
ffff128a:	428a      	cmp	r2, r1
ffff128c:	d1fb      	bne.n	ffff1286 <FDy_sys_mgr_frzctrl_thaw_req+0x46>
ffff128e:	6d1a      	ldr	r2, [r3, #80]	; 0x50
ffff1290:	f3bf 8f5f 	dmb	sy
ffff1294:	f022 0243 	bic.w	r2, r2, #67	; 0x43
ffff1298:	f042 0203 	orr.w	r2, r2, #3
ffff129c:	f3bf 8f5f 	dmb	sy
ffff12a0:	651a      	str	r2, [r3, #80]	; 0x50
ffff12a2:	2300      	movs	r3, #0
ffff12a4:	9301      	str	r3, [sp, #4]
ffff12a6:	3302      	adds	r3, #2
ffff12a8:	f5b3 6ffa 	cmp.w	r3, #2000	; 0x7d0
ffff12ac:	d1fa      	bne.n	ffff12a4 <FDy_sys_mgr_frzctrl_thaw_req+0x64>
ffff12ae:	4b07      	ldr	r3, [pc, #28]	; (ffff12cc <FDy_sys_mgr_frzctrl_thaw_req+0x8c>)
ffff12b0:	6d1a      	ldr	r2, [r3, #80]	; 0x50
ffff12b2:	f042 020c 	orr.w	r2, r2, #12
ffff12b6:	651a      	str	r2, [r3, #80]	; 0x50
ffff12b8:	6d1a      	ldr	r2, [r3, #80]	; 0x50
ffff12ba:	f022 0280 	bic.w	r2, r2, #128	; 0x80
ffff12be:	651a      	str	r2, [r3, #80]	; 0x50
ffff12c0:	6d1a      	ldr	r2, [r3, #80]	; 0x50
ffff12c2:	f042 0210 	orr.w	r2, r2, #16
ffff12c6:	651a      	str	r2, [r3, #80]	; 0x50
ffff12c8:	b002      	add	sp, #8
ffff12ca:	4770      	bx	lr
ffff12cc:	ffd08000 	.word	0xffd08000
ffff12d0:	ffd0804c 	.word	0xffd0804c

ffff12d4 <FDy_iocsr_get_config_table>:
ffff12d4:	2803      	cmp	r0, #3
ffff12d6:	d819      	bhi.n	ffff130c <FDy_iocsr_get_config_table+0x38>
ffff12d8:	e8df f000 	tbb	[pc, r0]
ffff12dc:	130e0902 	.word	0x130e0902
ffff12e0:	4b0c      	ldr	r3, [pc, #48]	; (ffff1314 <FDy_iocsr_get_config_table+0x40>)
ffff12e2:	600b      	str	r3, [r1, #0]
ffff12e4:	f44f 733f 	mov.w	r3, #764	; 0x2fc
ffff12e8:	6013      	str	r3, [r2, #0]
ffff12ea:	2000      	movs	r0, #0
ffff12ec:	4770      	bx	lr
ffff12ee:	4b0a      	ldr	r3, [pc, #40]	; (ffff1318 <FDy_iocsr_get_config_table+0x44>)
ffff12f0:	600b      	str	r3, [r1, #0]
ffff12f2:	f240 63b7 	movw	r3, #1719	; 0x6b7
ffff12f6:	e7f7      	b.n	ffff12e8 <FDy_iocsr_get_config_table+0x14>
ffff12f8:	4b08      	ldr	r3, [pc, #32]	; (ffff131c <FDy_iocsr_get_config_table+0x48>)
ffff12fa:	600b      	str	r3, [r1, #0]
ffff12fc:	f240 33bb 	movw	r3, #955	; 0x3bb
ffff1300:	e7f2      	b.n	ffff12e8 <FDy_iocsr_get_config_table+0x14>
ffff1302:	4b07      	ldr	r3, [pc, #28]	; (ffff1320 <FDy_iocsr_get_config_table+0x4c>)
ffff1304:	600b      	str	r3, [r1, #0]
ffff1306:	f244 137e 	movw	r3, #16766	; 0x417e
ffff130a:	e7ed      	b.n	ffff12e8 <FDy_iocsr_get_config_table+0x14>
ffff130c:	f06f 0015 	mvn.w	r0, #21
ffff1310:	4770      	bx	lr
ffff1312:	bf00      	nop
ffff1314:	ffff617c 	.word	0xffff617c
ffff1318:	ffff61dc 	.word	0xffff61dc
ffff131c:	ffff62b4 	.word	0xffff62b4
ffff1320:	ffff632c 	.word	0xffff632c

ffff1324 <FDy_scan_mgr_io_scan_chain_prg>:
ffff1324:	b5f7      	push	{r0, r1, r2, r4, r5, r6, r7, lr}
ffff1326:	4604      	mov	r4, r0
ffff1328:	466a      	mov	r2, sp
ffff132a:	a901      	add	r1, sp, #4
ffff132c:	f7ff ffd2 	bl	ffff12d4 <FDy_iocsr_get_config_table>
ffff1330:	2800      	cmp	r0, #0
ffff1332:	d16b      	bne.n	ffff140c <FDy_scan_mgr_io_scan_chain_prg+0xe8>
ffff1334:	2c03      	cmp	r4, #3
ffff1336:	bf01      	itttt	eq
ffff1338:	4a35      	ldreq	r2, [pc, #212]	; (ffff1410 <FDy_scan_mgr_io_scan_chain_prg+0xec>)
ffff133a:	6d13      	ldreq	r3, [r2, #80]	; 0x50
ffff133c:	f023 0320 	biceq.w	r3, r3, #32
ffff1340:	6513      	streq	r3, [r2, #80]	; 0x50
ffff1342:	4b34      	ldr	r3, [pc, #208]	; (ffff1414 <FDy_scan_mgr_io_scan_chain_prg+0xf0>)
ffff1344:	2265      	movs	r2, #101	; 0x65
ffff1346:	6818      	ldr	r0, [r3, #0]
ffff1348:	f3bf 8f5f 	dmb	sy
ffff134c:	f010 4070 	ands.w	r0, r0, #4026531840	; 0xf0000000
ffff1350:	d003      	beq.n	ffff135a <FDy_scan_mgr_io_scan_chain_prg+0x36>
ffff1352:	3a01      	subs	r2, #1
ffff1354:	d1f7      	bne.n	ffff1346 <FDy_scan_mgr_io_scan_chain_prg+0x22>
ffff1356:	f06f 006d 	mvn.w	r0, #109	; 0x6d
ffff135a:	2800      	cmp	r0, #0
ffff135c:	d13c      	bne.n	ffff13d8 <FDy_scan_mgr_io_scan_chain_prg+0xb4>
ffff135e:	685a      	ldr	r2, [r3, #4]
ffff1360:	2101      	movs	r1, #1
ffff1362:	fa01 f404 	lsl.w	r4, r1, r4
ffff1366:	4606      	mov	r6, r0
ffff1368:	4322      	orrs	r2, r4
ffff136a:	605a      	str	r2, [r3, #4]
ffff136c:	4b29      	ldr	r3, [pc, #164]	; (ffff1414 <FDy_scan_mgr_io_scan_chain_prg+0xf0>)
ffff136e:	9a00      	ldr	r2, [sp, #0]
ffff1370:	b922      	cbnz	r2, ffff137c <FDy_scan_mgr_io_scan_chain_prg+0x58>
ffff1372:	685a      	ldr	r2, [r3, #4]
ffff1374:	ea22 0404 	bic.w	r4, r2, r4
ffff1378:	605c      	str	r4, [r3, #4]
ffff137a:	e02d      	b.n	ffff13d8 <FDy_scan_mgr_io_scan_chain_prg+0xb4>
ffff137c:	2a80      	cmp	r2, #128	; 0x80
ffff137e:	9901      	ldr	r1, [sp, #4]
ffff1380:	bf28      	it	cs
ffff1382:	2280      	movcs	r2, #128	; 0x80
ffff1384:	1e55      	subs	r5, r2, #1
ffff1386:	4431      	add	r1, r6
ffff1388:	022d      	lsls	r5, r5, #8
ffff138a:	f045 0580 	orr.w	r5, r5, #128	; 0x80
ffff138e:	f3bf 8f5f 	dmb	sy
ffff1392:	ea4f 1e52 	mov.w	lr, r2, lsr #5
ffff1396:	615d      	str	r5, [r3, #20]
ffff1398:	460d      	mov	r5, r1
ffff139a:	eb01 0c8e 	add.w	ip, r1, lr, lsl #2
ffff139e:	4565      	cmp	r5, ip
ffff13a0:	d11c      	bne.n	ffff13dc <FDy_scan_mgr_io_scan_chain_prg+0xb8>
ffff13a2:	f002 071f 	and.w	r7, r2, #31
ffff13a6:	2f18      	cmp	r7, #24
ffff13a8:	d91e      	bls.n	ffff13e8 <FDy_scan_mgr_io_scan_chain_prg+0xc4>
ffff13aa:	f851 102e 	ldr.w	r1, [r1, lr, lsl #2]
ffff13ae:	f3bf 8f5f 	dmb	sy
ffff13b2:	61d9      	str	r1, [r3, #28]
ffff13b4:	2565      	movs	r5, #101	; 0x65
ffff13b6:	6819      	ldr	r1, [r3, #0]
ffff13b8:	f3bf 8f5f 	dmb	sy
ffff13bc:	f011 4170 	ands.w	r1, r1, #4026531840	; 0xf0000000
ffff13c0:	d003      	beq.n	ffff13ca <FDy_scan_mgr_io_scan_chain_prg+0xa6>
ffff13c2:	3d01      	subs	r5, #1
ffff13c4:	d1f7      	bne.n	ffff13b6 <FDy_scan_mgr_io_scan_chain_prg+0x92>
ffff13c6:	f06f 016d 	mvn.w	r1, #109	; 0x6d
ffff13ca:	3610      	adds	r6, #16
ffff13cc:	b1d1      	cbz	r1, ffff1404 <FDy_scan_mgr_io_scan_chain_prg+0xe0>
ffff13ce:	6858      	ldr	r0, [r3, #4]
ffff13d0:	ea20 0404 	bic.w	r4, r0, r4
ffff13d4:	4608      	mov	r0, r1
ffff13d6:	605c      	str	r4, [r3, #4]
ffff13d8:	b003      	add	sp, #12
ffff13da:	bdf0      	pop	{r4, r5, r6, r7, pc}
ffff13dc:	f855 7b04 	ldr.w	r7, [r5], #4
ffff13e0:	f3bf 8f5f 	dmb	sy
ffff13e4:	61df      	str	r7, [r3, #28]
ffff13e6:	e7da      	b.n	ffff139e <FDy_scan_mgr_io_scan_chain_prg+0x7a>
ffff13e8:	2f00      	cmp	r7, #0
ffff13ea:	d0e3      	beq.n	ffff13b4 <FDy_scan_mgr_io_scan_chain_prg+0x90>
ffff13ec:	2500      	movs	r5, #0
ffff13ee:	f8dc 1000 	ldr.w	r1, [ip]
ffff13f2:	40e9      	lsrs	r1, r5
ffff13f4:	b2c9      	uxtb	r1, r1
ffff13f6:	f3bf 8f5f 	dmb	sy
ffff13fa:	3508      	adds	r5, #8
ffff13fc:	6119      	str	r1, [r3, #16]
ffff13fe:	42af      	cmp	r7, r5
ffff1400:	d8f5      	bhi.n	ffff13ee <FDy_scan_mgr_io_scan_chain_prg+0xca>
ffff1402:	e7d7      	b.n	ffff13b4 <FDy_scan_mgr_io_scan_chain_prg+0x90>
ffff1404:	9900      	ldr	r1, [sp, #0]
ffff1406:	1a8a      	subs	r2, r1, r2
ffff1408:	9200      	str	r2, [sp, #0]
ffff140a:	e7b0      	b.n	ffff136e <FDy_scan_mgr_io_scan_chain_prg+0x4a>
ffff140c:	2001      	movs	r0, #1
ffff140e:	e7e3      	b.n	ffff13d8 <FDy_scan_mgr_io_scan_chain_prg+0xb4>
ffff1410:	ffd08000 	.word	0xffd08000
ffff1414:	fff02000 	.word	0xfff02000

ffff1418 <FDy_scan_mgr_configure_iocsr>:
ffff1418:	b510      	push	{r4, lr}
ffff141a:	2000      	movs	r0, #0
ffff141c:	f7ff ff82 	bl	ffff1324 <FDy_scan_mgr_io_scan_chain_prg>
ffff1420:	4604      	mov	r4, r0
ffff1422:	2001      	movs	r0, #1
ffff1424:	f7ff ff7e 	bl	ffff1324 <FDy_scan_mgr_io_scan_chain_prg>
ffff1428:	4304      	orrs	r4, r0
ffff142a:	2002      	movs	r0, #2
ffff142c:	f7ff ff7a 	bl	ffff1324 <FDy_scan_mgr_io_scan_chain_prg>
ffff1430:	4304      	orrs	r4, r0
ffff1432:	2003      	movs	r0, #3
ffff1434:	f7ff ff76 	bl	ffff1324 <FDy_scan_mgr_io_scan_chain_prg>
ffff1438:	4320      	orrs	r0, r4
ffff143a:	bd10      	pop	{r4, pc}

ffff143c <FDy_sysmgr_pinmux_init>:
ffff143c:	b538      	push	{r3, r4, r5, lr}
ffff143e:	4a29      	ldr	r2, [pc, #164]	; (ffff14e4 <FDy_sysmgr_pinmux_init+0xa8>)
ffff1440:	4b29      	ldr	r3, [pc, #164]	; (ffff14e8 <FDy_sysmgr_pinmux_init+0xac>)
ffff1442:	492a      	ldr	r1, [pc, #168]	; (ffff14ec <FDy_sysmgr_pinmux_init+0xb0>)
ffff1444:	f812 0b01 	ldrb.w	r0, [r2], #1
ffff1448:	f3bf 8f5f 	dmb	sy
ffff144c:	f843 0b04 	str.w	r0, [r3], #4
ffff1450:	428b      	cmp	r3, r1
ffff1452:	d1f7      	bne.n	ffff1444 <FDy_sysmgr_pinmux_init+0x8>
ffff1454:	f3bf 8f5f 	dmb	sy
ffff1458:	4a25      	ldr	r2, [pc, #148]	; (ffff14f0 <FDy_sysmgr_pinmux_init+0xb4>)
ffff145a:	2300      	movs	r3, #0
ffff145c:	f8c2 3088 	str.w	r3, [r2, #136]	; 0x88
ffff1460:	f8d2 36f0 	ldr.w	r3, [r2, #1776]	; 0x6f0
ffff1464:	f3bf 8f5f 	dmb	sy
ffff1468:	2b01      	cmp	r3, #1
ffff146a:	f8d2 16f8 	ldr.w	r1, [r2, #1784]	; 0x6f8
ffff146e:	bf14      	ite	ne
ffff1470:	2300      	movne	r3, #0
ffff1472:	2310      	moveq	r3, #16
ffff1474:	f3bf 8f5f 	dmb	sy
ffff1478:	2901      	cmp	r1, #1
ffff147a:	f8d2 2708 	ldr.w	r2, [r2, #1800]	; 0x708
ffff147e:	bf08      	it	eq
ffff1480:	f043 0308 	orreq.w	r3, r3, #8
ffff1484:	f3bf 8f5f 	dmb	sy
ffff1488:	2a01      	cmp	r2, #1
ffff148a:	4a19      	ldr	r2, [pc, #100]	; (ffff14f0 <FDy_sysmgr_pinmux_init+0xb4>)
ffff148c:	bf08      	it	eq
ffff148e:	f043 0320 	orreq.w	r3, r3, #32
ffff1492:	f8d2 1714 	ldr.w	r1, [r2, #1812]	; 0x714
ffff1496:	f3bf 8f5f 	dmb	sy
ffff149a:	2901      	cmp	r1, #1
ffff149c:	f8d2 1738 	ldr.w	r1, [r2, #1848]	; 0x738
ffff14a0:	bf08      	it	eq
ffff14a2:	f043 0304 	orreq.w	r3, r3, #4
ffff14a6:	f3bf 8f5f 	dmb	sy
ffff14aa:	2901      	cmp	r1, #1
ffff14ac:	f8d2 2730 	ldr.w	r2, [r2, #1840]	; 0x730
ffff14b0:	bf08      	it	eq
ffff14b2:	f043 0301 	orreq.w	r3, r3, #1
ffff14b6:	f3bf 8f5f 	dmb	sy
ffff14ba:	4c0d      	ldr	r4, [pc, #52]	; (ffff14f0 <FDy_sysmgr_pinmux_init+0xb4>)
ffff14bc:	2a01      	cmp	r2, #1
ffff14be:	bf08      	it	eq
ffff14c0:	f043 0302 	orreq.w	r3, r3, #2
ffff14c4:	f8d4 2088 	ldr.w	r2, [r4, #136]	; 0x88
ffff14c8:	4313      	orrs	r3, r2
ffff14ca:	f8c4 3088 	str.w	r3, [r4, #136]	; 0x88
ffff14ce:	f8d4 5088 	ldr.w	r5, [r4, #136]	; 0x88
ffff14d2:	f3bf 8f5f 	dmb	sy
ffff14d6:	f7ff fd67 	bl	ffff0fa8 <fpgamgr_test_fpga_ready>
ffff14da:	b110      	cbz	r0, ffff14e2 <FDy_sysmgr_pinmux_init+0xa6>
ffff14dc:	f3bf 8f5f 	dmb	sy
ffff14e0:	62a5      	str	r5, [r4, #40]	; 0x28
ffff14e2:	bd38      	pop	{r3, r4, r5, pc}
ffff14e4:	ffff701c 	.word	0xffff701c
ffff14e8:	ffd08400 	.word	0xffd08400
ffff14ec:	ffd0873c 	.word	0xffd0873c
ffff14f0:	ffd08000 	.word	0xffd08000

ffff14f4 <sdram_set_rule>:
ffff14f4:	b510      	push	{r4, lr}
ffff14f6:	6884      	ldr	r4, [r0, #8]
ffff14f8:	f3bf 8f5f 	dmb	sy
ffff14fc:	4a17      	ldr	r2, [pc, #92]	; (ffff155c <sdram_set_rule+0x68>)
ffff14fe:	f8c2 409c 	str.w	r4, [r2, #156]	; 0x9c
ffff1502:	6843      	ldr	r3, [r0, #4]
ffff1504:	3b01      	subs	r3, #1
ffff1506:	0d19      	lsrs	r1, r3, #20
ffff1508:	6803      	ldr	r3, [r0, #0]
ffff150a:	0d1b      	lsrs	r3, r3, #20
ffff150c:	ea43 3301 	orr.w	r3, r3, r1, lsl #12
ffff1510:	f3bf 8f5f 	dmb	sy
ffff1514:	f8c2 3090 	str.w	r3, [r2, #144]	; 0x90
ffff1518:	6a01      	ldr	r1, [r0, #32]
ffff151a:	69c3      	ldr	r3, [r0, #28]
ffff151c:	ea43 3301 	orr.w	r3, r3, r1, lsl #12
ffff1520:	f3bf 8f5f 	dmb	sy
ffff1524:	f8c2 3094 	str.w	r3, [r2, #148]	; 0x94
ffff1528:	6983      	ldr	r3, [r0, #24]
ffff152a:	6941      	ldr	r1, [r0, #20]
ffff152c:	035b      	lsls	r3, r3, #13
ffff152e:	ea43 03c1 	orr.w	r3, r3, r1, lsl #3
ffff1532:	6901      	ldr	r1, [r0, #16]
ffff1534:	430b      	orrs	r3, r1
ffff1536:	68c1      	ldr	r1, [r0, #12]
ffff1538:	ea43 0381 	orr.w	r3, r3, r1, lsl #2
ffff153c:	f3bf 8f5f 	dmb	sy
ffff1540:	f044 0420 	orr.w	r4, r4, #32
ffff1544:	f8c2 3098 	str.w	r3, [r2, #152]	; 0x98
ffff1548:	f3bf 8f5f 	dmb	sy
ffff154c:	f8c2 409c 	str.w	r4, [r2, #156]	; 0x9c
ffff1550:	f3bf 8f5f 	dmb	sy
ffff1554:	2300      	movs	r3, #0
ffff1556:	f8c2 309c 	str.w	r3, [r2, #156]	; 0x9c
ffff155a:	bd10      	pop	{r4, pc}
ffff155c:	ffc25000 	.word	0xffc25000

ffff1560 <socfpga_get_seq_ac_init>:
ffff1560:	4b02      	ldr	r3, [pc, #8]	; (ffff156c <socfpga_get_seq_ac_init+0xc>)
ffff1562:	6003      	str	r3, [r0, #0]
ffff1564:	2324      	movs	r3, #36	; 0x24
ffff1566:	600b      	str	r3, [r1, #0]
ffff1568:	4770      	bx	lr
ffff156a:	bf00      	nop
ffff156c:	ffff6b5c 	.word	0xffff6b5c

ffff1570 <socfpga_get_seq_inst_init>:
ffff1570:	4b02      	ldr	r3, [pc, #8]	; (ffff157c <socfpga_get_seq_inst_init+0xc>)
ffff1572:	6003      	str	r3, [r0, #0]
ffff1574:	237f      	movs	r3, #127	; 0x7f
ffff1576:	600b      	str	r3, [r1, #0]
ffff1578:	4770      	bx	lr
ffff157a:	bf00      	nop
ffff157c:	ffff6bfc 	.word	0xffff6bfc

ffff1580 <socfpga_get_sdram_rwmgr_config>:
ffff1580:	4800      	ldr	r0, [pc, #0]	; (ffff1584 <socfpga_get_sdram_rwmgr_config+0x4>)
ffff1582:	4770      	bx	lr
ffff1584:	ffff77c0 	.word	0xffff77c0

ffff1588 <socfpga_get_sdram_io_config>:
ffff1588:	4800      	ldr	r0, [pc, #0]	; (ffff158c <socfpga_get_sdram_io_config+0x4>)
ffff158a:	4770      	bx	lr
ffff158c:	ffff7880 	.word	0xffff7880

ffff1590 <socfpga_get_sdram_misc_config>:
ffff1590:	4800      	ldr	r0, [pc, #0]	; (ffff1594 <socfpga_get_sdram_misc_config+0x4>)
ffff1592:	4770      	bx	lr
ffff1594:	ffff7890 	.word	0xffff7890

ffff1598 <sdram_calculate_size>:
ffff1598:	b510      	push	{r4, lr}
ffff159a:	4c10      	ldr	r4, [pc, #64]	; (ffff15dc <sdram_calculate_size+0x44>)
ffff159c:	6ae0      	ldr	r0, [r4, #44]	; 0x2c
ffff159e:	f3bf 8f5f 	dmb	sy
ffff15a2:	4a0f      	ldr	r2, [pc, #60]	; (ffff15e0 <sdram_calculate_size+0x48>)
ffff15a4:	f000 031f 	and.w	r3, r0, #31
ffff15a8:	f8d2 2090 	ldr.w	r2, [r2, #144]	; 0x90
ffff15ac:	f3bf 8f5f 	dmb	sy
ffff15b0:	1e51      	subs	r1, r2, #1
ffff15b2:	291f      	cmp	r1, #31
ffff15b4:	f3c0 2182 	ubfx	r1, r0, #10, #3
ffff15b8:	6b20      	ldr	r0, [r4, #48]	; 0x30
ffff15ba:	bf28      	it	cs
ffff15bc:	220f      	movcs	r2, #15
ffff15be:	f3bf 8f5f 	dmb	sy
ffff15c2:	2828      	cmp	r0, #40	; 0x28
ffff15c4:	d007      	beq.n	ffff15d6 <sdram_calculate_size+0x3e>
ffff15c6:	2818      	cmp	r0, #24
ffff15c8:	bf08      	it	eq
ffff15ca:	2010      	moveq	r0, #16
ffff15cc:	440b      	add	r3, r1
ffff15ce:	08c0      	lsrs	r0, r0, #3
ffff15d0:	4413      	add	r3, r2
ffff15d2:	4098      	lsls	r0, r3
ffff15d4:	bd10      	pop	{r4, pc}
ffff15d6:	2020      	movs	r0, #32
ffff15d8:	e7f8      	b.n	ffff15cc <sdram_calculate_size+0x34>
ffff15da:	bf00      	nop
ffff15dc:	ffc25000 	.word	0xffc25000
ffff15e0:	ffd08000 	.word	0xffd08000

ffff15e4 <sdram_mmr_init_full>:
ffff15e4:	b570      	push	{r4, r5, r6, lr}
ffff15e6:	4605      	mov	r5, r0
ffff15e8:	b08a      	sub	sp, #40	; 0x28
ffff15ea:	f3bf 8f5f 	dmb	sy
ffff15ee:	4bae      	ldr	r3, [pc, #696]	; (ffff18a8 <sdram_mmr_init_full+0x2c4>)
ffff15f0:	220f      	movs	r2, #15
ffff15f2:	4668      	mov	r0, sp
ffff15f4:	2101      	movs	r1, #1
ffff15f6:	f8c3 2090 	str.w	r2, [r3, #144]	; 0x90
ffff15fa:	2200      	movs	r2, #0
ffff15fc:	2301      	movs	r3, #1
ffff15fe:	e9cd 2300 	strd	r2, r3, [sp]
ffff1602:	f004 fd7d 	bl	ffff6100 <__div64_32>
ffff1606:	e9dd 3200 	ldrd	r3, r2, [sp]
ffff160a:	2a00      	cmp	r2, #0
ffff160c:	f040 8141 	bne.w	ffff1892 <sdram_mmr_init_full+0x2ae>
ffff1610:	0b5b      	lsrs	r3, r3, #13
ffff1612:	9300      	str	r3, [sp, #0]
ffff1614:	e9dd 3000 	ldrd	r3, r0, [sp]
ffff1618:	f003 3155 	and.w	r1, r3, #1431655765	; 0x55555555
ffff161c:	085a      	lsrs	r2, r3, #1
ffff161e:	f002 3255 	and.w	r2, r2, #1431655765	; 0x55555555
ffff1622:	440a      	add	r2, r1
ffff1624:	f002 3133 	and.w	r1, r2, #858993459	; 0x33333333
ffff1628:	0892      	lsrs	r2, r2, #2
ffff162a:	f002 3233 	and.w	r2, r2, #858993459	; 0x33333333
ffff162e:	440a      	add	r2, r1
ffff1630:	f002 310f 	and.w	r1, r2, #252645135	; 0xf0f0f0f
ffff1634:	0912      	lsrs	r2, r2, #4
ffff1636:	f002 320f 	and.w	r2, r2, #252645135	; 0xf0f0f0f
ffff163a:	440a      	add	r2, r1
ffff163c:	f002 11ff 	and.w	r1, r2, #16711935	; 0xff00ff
ffff1640:	0a12      	lsrs	r2, r2, #8
ffff1642:	f002 12ff 	and.w	r2, r2, #16711935	; 0xff00ff
ffff1646:	440a      	add	r2, r1
ffff1648:	0c11      	lsrs	r1, r2, #16
ffff164a:	fa11 f282 	uxtah	r2, r1, r2
ffff164e:	2a01      	cmp	r2, #1
ffff1650:	f040 8127 	bne.w	ffff18a2 <sdram_mmr_init_full+0x2be>
ffff1654:	2800      	cmp	r0, #0
ffff1656:	f040 8124 	bne.w	ffff18a2 <sdram_mmr_init_full+0x2be>
ffff165a:	b1db      	cbz	r3, ffff1694 <sdram_mmr_init_full+0xb0>
ffff165c:	0c1a      	lsrs	r2, r3, #16
ffff165e:	0412      	lsls	r2, r2, #16
ffff1660:	2a00      	cmp	r2, #0
ffff1662:	f040 811c 	bne.w	ffff189e <sdram_mmr_init_full+0x2ba>
ffff1666:	041b      	lsls	r3, r3, #16
ffff1668:	2210      	movs	r2, #16
ffff166a:	f013 4f7f 	tst.w	r3, #4278190080	; 0xff000000
ffff166e:	bf04      	itt	eq
ffff1670:	021b      	lsleq	r3, r3, #8
ffff1672:	3a08      	subeq	r2, #8
ffff1674:	f013 4f70 	tst.w	r3, #4026531840	; 0xf0000000
ffff1678:	bf04      	itt	eq
ffff167a:	011b      	lsleq	r3, r3, #4
ffff167c:	3a04      	subeq	r2, #4
ffff167e:	f013 4f40 	tst.w	r3, #3221225472	; 0xc0000000
ffff1682:	bf0b      	itete	eq
ffff1684:	0099      	lsleq	r1, r3, #2
ffff1686:	4619      	movne	r1, r3
ffff1688:	1e93      	subeq	r3, r2, #2
ffff168a:	4613      	movne	r3, r2
ffff168c:	2900      	cmp	r1, #0
ffff168e:	bfa8      	it	ge
ffff1690:	f103 33ff 	addge.w	r3, r3, #4294967295
ffff1694:	2b00      	cmp	r3, #0
ffff1696:	f103 32ff 	add.w	r2, r3, #4294967295
ffff169a:	bf08      	it	eq
ffff169c:	220f      	moveq	r2, #15
ffff169e:	f640 430a 	movw	r3, #3082	; 0xc0a
ffff16a2:	ea43 1242 	orr.w	r2, r3, r2, lsl #5
ffff16a6:	f3bf 8f5f 	dmb	sy
ffff16aa:	4c80      	ldr	r4, [pc, #512]	; (ffff18ac <sdram_mmr_init_full+0x2c8>)
ffff16ac:	4b80      	ldr	r3, [pc, #512]	; (ffff18b0 <sdram_mmr_init_full+0x2cc>)
ffff16ae:	6023      	str	r3, [r4, #0]
ffff16b0:	f3bf 8f5f 	dmb	sy
ffff16b4:	4b7f      	ldr	r3, [pc, #508]	; (ffff18b4 <sdram_mmr_init_full+0x2d0>)
ffff16b6:	6063      	str	r3, [r4, #4]
ffff16b8:	f3bf 8f5f 	dmb	sy
ffff16bc:	4b7e      	ldr	r3, [pc, #504]	; (ffff18b8 <sdram_mmr_init_full+0x2d4>)
ffff16be:	60a3      	str	r3, [r4, #8]
ffff16c0:	f3bf 8f5f 	dmb	sy
ffff16c4:	4b7d      	ldr	r3, [pc, #500]	; (ffff18bc <sdram_mmr_init_full+0x2d8>)
ffff16c6:	60e3      	str	r3, [r4, #12]
ffff16c8:	f3bf 8f5f 	dmb	sy
ffff16cc:	f44f 6360 	mov.w	r3, #3584	; 0xe00
ffff16d0:	6123      	str	r3, [r4, #16]
ffff16d2:	f3bf 8f5f 	dmb	sy
ffff16d6:	f44f 2300 	mov.w	r3, #524288	; 0x80000
ffff16da:	6163      	str	r3, [r4, #20]
ffff16dc:	f3bf 8f5f 	dmb	sy
ffff16e0:	62e2      	str	r2, [r4, #44]	; 0x2c
ffff16e2:	f3bf 8f5f 	dmb	sy
ffff16e6:	2320      	movs	r3, #32
ffff16e8:	6323      	str	r3, [r4, #48]	; 0x30
ffff16ea:	f3bf 8f5f 	dmb	sy
ffff16ee:	2308      	movs	r3, #8
ffff16f0:	6363      	str	r3, [r4, #52]	; 0x34
ffff16f2:	f3bf 8f5f 	dmb	sy
ffff16f6:	2330      	movs	r3, #48	; 0x30
ffff16f8:	6563      	str	r3, [r4, #84]	; 0x54
ffff16fa:	f3bf 8f5f 	dmb	sy
ffff16fe:	2300      	movs	r3, #0
ffff1700:	63e3      	str	r3, [r4, #60]	; 0x3c
ffff1702:	f3bf 8f5f 	dmb	sy
ffff1706:	2202      	movs	r2, #2
ffff1708:	65e2      	str	r2, [r4, #92]	; 0x5c
ffff170a:	f3bf 8f5f 	dmb	sy
ffff170e:	6622      	str	r2, [r4, #96]	; 0x60
ffff1710:	f3bf 8f5f 	dmb	sy
ffff1714:	67e3      	str	r3, [r4, #124]	; 0x7c
ffff1716:	f3bf 8f5f 	dmb	sy
ffff171a:	f8c4 3088 	str.w	r3, [r4, #136]	; 0x88
ffff171e:	f3bf 8f5f 	dmb	sy
ffff1722:	4a67      	ldr	r2, [pc, #412]	; (ffff18c0 <sdram_mmr_init_full+0x2dc>)
ffff1724:	f8c4 20ac 	str.w	r2, [r4, #172]	; 0xac
ffff1728:	f3bf 8f5f 	dmb	sy
ffff172c:	4a65      	ldr	r2, [pc, #404]	; (ffff18c4 <sdram_mmr_init_full+0x2e0>)
ffff172e:	f8c4 20b0 	str.w	r2, [r4, #176]	; 0xb0
ffff1732:	f3bf 8f5f 	dmb	sy
ffff1736:	4a64      	ldr	r2, [pc, #400]	; (ffff18c8 <sdram_mmr_init_full+0x2e4>)
ffff1738:	f8c4 20b4 	str.w	r2, [r4, #180]	; 0xb4
ffff173c:	f3bf 8f5f 	dmb	sy
ffff1740:	f8c4 30b8 	str.w	r3, [r4, #184]	; 0xb8
ffff1744:	f3bf 8f5f 	dmb	sy
ffff1748:	f44f 4278 	mov.w	r2, #63488	; 0xf800
ffff174c:	f8c4 20bc 	str.w	r2, [r4, #188]	; 0xbc
ffff1750:	f3bf 8f5f 	dmb	sy
ffff1754:	4a5d      	ldr	r2, [pc, #372]	; (ffff18cc <sdram_mmr_init_full+0x2e8>)
ffff1756:	f8c4 20c0 	str.w	r2, [r4, #192]	; 0xc0
ffff175a:	f3bf 8f5f 	dmb	sy
ffff175e:	4a5c      	ldr	r2, [pc, #368]	; (ffff18d0 <sdram_mmr_init_full+0x2ec>)
ffff1760:	f8c4 20c4 	str.w	r2, [r4, #196]	; 0xc4
ffff1764:	f3bf 8f5f 	dmb	sy
ffff1768:	4a5a      	ldr	r2, [pc, #360]	; (ffff18d4 <sdram_mmr_init_full+0x2f0>)
ffff176a:	f8c4 20c8 	str.w	r2, [r4, #200]	; 0xc8
ffff176e:	f3bf 8f5f 	dmb	sy
ffff1772:	4a59      	ldr	r2, [pc, #356]	; (ffff18d8 <sdram_mmr_init_full+0x2f4>)
ffff1774:	f8c4 20cc 	str.w	r2, [r4, #204]	; 0xcc
ffff1778:	f3bf 8f5f 	dmb	sy
ffff177c:	f04f 3201 	mov.w	r2, #16843009	; 0x1010101
ffff1780:	f8c4 20d0 	str.w	r2, [r4, #208]	; 0xd0
ffff1784:	f3bf 8f5f 	dmb	sy
ffff1788:	f8c4 20d4 	str.w	r2, [r4, #212]	; 0xd4
ffff178c:	f3bf 8f5f 	dmb	sy
ffff1790:	f240 1201 	movw	r2, #257	; 0x101
ffff1794:	f8c4 20d8 	str.w	r2, [r4, #216]	; 0xd8
ffff1798:	f3bf 8f5f 	dmb	sy
ffff179c:	f44f 7200 	mov.w	r2, #512	; 0x200
ffff17a0:	f8c4 2150 	str.w	r2, [r4, #336]	; 0x150
ffff17a4:	f3bf 8f5f 	dmb	sy
ffff17a8:	4a4c      	ldr	r2, [pc, #304]	; (ffff18dc <sdram_mmr_init_full+0x2f8>)
ffff17aa:	6662      	str	r2, [r4, #100]	; 0x64
ffff17ac:	f3bf 8f5f 	dmb	sy
ffff17b0:	4a4b      	ldr	r2, [pc, #300]	; (ffff18e0 <sdram_mmr_init_full+0x2fc>)
ffff17b2:	66a2      	str	r2, [r4, #104]	; 0x68
ffff17b4:	f3bf 8f5f 	dmb	sy
ffff17b8:	4a4a      	ldr	r2, [pc, #296]	; (ffff18e4 <sdram_mmr_init_full+0x300>)
ffff17ba:	66e2      	str	r2, [r4, #108]	; 0x6c
ffff17bc:	f3bf 8f5f 	dmb	sy
ffff17c0:	4a49      	ldr	r2, [pc, #292]	; (ffff18e8 <sdram_mmr_init_full+0x304>)
ffff17c2:	6722      	str	r2, [r4, #112]	; 0x70
ffff17c4:	f3bf 8f5f 	dmb	sy
ffff17c8:	4a48      	ldr	r2, [pc, #288]	; (ffff18ec <sdram_mmr_init_full+0x308>)
ffff17ca:	6762      	str	r2, [r4, #116]	; 0x74
ffff17cc:	f3bf 8f5f 	dmb	sy
ffff17d0:	4a47      	ldr	r2, [pc, #284]	; (ffff18f0 <sdram_mmr_init_full+0x30c>)
ffff17d2:	67a2      	str	r2, [r4, #120]	; 0x78
ffff17d4:	f3bf 8f5f 	dmb	sy
ffff17d8:	2201      	movs	r2, #1
ffff17da:	61a2      	str	r2, [r4, #24]
ffff17dc:	f3bf 8f5f 	dmb	sy
ffff17e0:	61e3      	str	r3, [r4, #28]
ffff17e2:	f3bf 8f5f 	dmb	sy
ffff17e6:	f5a3 133e 	sub.w	r3, r3, #3112960	; 0x2f8000
ffff17ea:	f240 12ff 	movw	r2, #511	; 0x1ff
ffff17ee:	f8c3 208c 	str.w	r2, [r3, #140]	; 0x8c
ffff17f2:	1c6b      	adds	r3, r5, #1
ffff17f4:	d003      	beq.n	ffff17fe <sdram_mmr_init_full+0x21a>
ffff17f6:	f3bf 8f5f 	dmb	sy
ffff17fa:	f8c4 5150 	str.w	r5, [r4, #336]	; 0x150
ffff17fe:	6de3      	ldr	r3, [r4, #92]	; 0x5c
ffff1800:	f043 0308 	orr.w	r3, r3, #8
ffff1804:	65e3      	str	r3, [r4, #92]	; 0x5c
ffff1806:	f7ff fec7 	bl	ffff1598 <sdram_calculate_size>
ffff180a:	1e46      	subs	r6, r0, #1
ffff180c:	f3bf 8f5f 	dmb	sy
ffff1810:	2500      	movs	r5, #0
ffff1812:	4668      	mov	r0, sp
ffff1814:	4629      	mov	r1, r5
ffff1816:	f8c4 508c 	str.w	r5, [r4, #140]	; 0x8c
ffff181a:	2224      	movs	r2, #36	; 0x24
ffff181c:	f004 fc20 	bl	ffff6060 <memset>
ffff1820:	9502      	str	r5, [sp, #8]
ffff1822:	4668      	mov	r0, sp
ffff1824:	3501      	adds	r5, #1
ffff1826:	f7ff fe65 	bl	ffff14f4 <sdram_set_rule>
ffff182a:	2d14      	cmp	r5, #20
ffff182c:	d1f8      	bne.n	ffff1820 <sdram_mmr_init_full+0x23c>
ffff182e:	2500      	movs	r5, #0
ffff1830:	f640 73ff 	movw	r3, #4095	; 0xfff
ffff1834:	e9cd 5600 	strd	r5, r6, [sp]
ffff1838:	f240 36ff 	movw	r6, #1023	; 0x3ff
ffff183c:	9308      	str	r3, [sp, #32]
ffff183e:	2303      	movs	r3, #3
ffff1840:	9507      	str	r5, [sp, #28]
ffff1842:	e9cd 3604 	strd	r3, r6, [sp, #16]
ffff1846:	2301      	movs	r3, #1
ffff1848:	9506      	str	r5, [sp, #24]
ffff184a:	e9cd 5302 	strd	r5, r3, [sp, #8]
ffff184e:	f7ff fe51 	bl	ffff14f4 <sdram_set_rule>
ffff1852:	f3bf 8f5f 	dmb	sy
ffff1856:	f8c4 608c 	str.w	r6, [r4, #140]	; 0x8c
ffff185a:	f3bf 8f5f 	dmb	sy
ffff185e:	f045 0340 	orr.w	r3, r5, #64	; 0x40
ffff1862:	f8c4 509c 	str.w	r5, [r4, #156]	; 0x9c
ffff1866:	f3bf 8f5f 	dmb	sy
ffff186a:	f8c4 309c 	str.w	r3, [r4, #156]	; 0x9c
ffff186e:	f8d4 3090 	ldr.w	r3, [r4, #144]	; 0x90
ffff1872:	f3bf 8f5f 	dmb	sy
ffff1876:	f8d4 3094 	ldr.w	r3, [r4, #148]	; 0x94
ffff187a:	f3bf 8f5f 	dmb	sy
ffff187e:	f8d4 3098 	ldr.w	r3, [r4, #152]	; 0x98
ffff1882:	f3bf 8f5f 	dmb	sy
ffff1886:	3501      	adds	r5, #1
ffff1888:	2d14      	cmp	r5, #20
ffff188a:	d1e6      	bne.n	ffff185a <sdram_mmr_init_full+0x276>
ffff188c:	2000      	movs	r0, #0
ffff188e:	b00a      	add	sp, #40	; 0x28
ffff1890:	bd70      	pop	{r4, r5, r6, pc}
ffff1892:	4668      	mov	r0, sp
ffff1894:	f44f 5100 	mov.w	r1, #8192	; 0x2000
ffff1898:	f004 fc32 	bl	ffff6100 <__div64_32>
ffff189c:	e6ba      	b.n	ffff1614 <sdram_mmr_init_full+0x30>
ffff189e:	2220      	movs	r2, #32
ffff18a0:	e6e3      	b.n	ffff166a <sdram_mmr_init_full+0x86>
ffff18a2:	220f      	movs	r2, #15
ffff18a4:	e6fb      	b.n	ffff169e <sdram_mmr_init_full+0xba>
ffff18a6:	bf00      	nop
ffff18a8:	ffd08000 	.word	0xffd08000
ffff18ac:	ffc25000 	.word	0xffc25000
ffff18b0:	000a8042 	.word	0x000a8042
ffff18b4:	6830d608 	.word	0x6830d608
ffff18b8:	08cccc30 	.word	0x08cccc30
ffff18bc:	002228e3 	.word	0x002228e3
ffff18c0:	3ffd1088 	.word	0x3ffd1088
ffff18c4:	21084210 	.word	0x21084210
ffff18c8:	8081ef84 	.word	0x8081ef84
ffff18cc:	20820820 	.word	0x20820820
ffff18d0:	08208208 	.word	0x08208208
ffff18d4:	41041041 	.word	0x41041041
ffff18d8:	00410410 	.word	0x00410410
ffff18dc:	00044555 	.word	0x00044555
ffff18e0:	2c011000 	.word	0x2c011000
ffff18e4:	00b00088 	.word	0x00b00088
ffff18e8:	00760210 	.word	0x00760210
ffff18ec:	00980543 	.word	0x00980543
ffff18f0:	0005a56a 	.word	0x0005a56a

ffff18f4 <set_failing_group_stage>:
ffff18f4:	4b04      	ldr	r3, [pc, #16]	; (ffff1908 <set_failing_group_stage+0x14>)
ffff18f6:	b510      	push	{r4, lr}
ffff18f8:	681b      	ldr	r3, [r3, #0]
ffff18fa:	68dc      	ldr	r4, [r3, #12]
ffff18fc:	b914      	cbnz	r4, ffff1904 <set_failing_group_stage+0x10>
ffff18fe:	609a      	str	r2, [r3, #8]
ffff1900:	60d9      	str	r1, [r3, #12]
ffff1902:	6118      	str	r0, [r3, #16]
ffff1904:	bd10      	pop	{r4, pc}
ffff1906:	bf00      	nop
ffff1908:	ffff7a08 	.word	0xffff7a08

ffff190c <reg_file_set_group>:
ffff190c:	4a04      	ldr	r2, [pc, #16]	; (ffff1920 <reg_file_set_group+0x14>)
ffff190e:	f8d2 3808 	ldr.w	r3, [r2, #2056]	; 0x808
ffff1912:	b29b      	uxth	r3, r3
ffff1914:	ea43 4300 	orr.w	r3, r3, r0, lsl #16
ffff1918:	f8c2 3808 	str.w	r3, [r2, #2056]	; 0x808
ffff191c:	4770      	bx	lr
ffff191e:	bf00      	nop
ffff1920:	ffc24000 	.word	0xffc24000

ffff1924 <reg_file_set_stage>:
ffff1924:	4a04      	ldr	r2, [pc, #16]	; (ffff1938 <reg_file_set_stage+0x14>)
ffff1926:	f8d2 3808 	ldr.w	r3, [r2, #2056]	; 0x808
ffff192a:	0c1b      	lsrs	r3, r3, #16
ffff192c:	041b      	lsls	r3, r3, #16
ffff192e:	4303      	orrs	r3, r0
ffff1930:	f8c2 3808 	str.w	r3, [r2, #2056]	; 0x808
ffff1934:	4770      	bx	lr
ffff1936:	bf00      	nop
ffff1938:	ffc24000 	.word	0xffc24000

ffff193c <reg_file_set_sub_stage>:
ffff193c:	4a04      	ldr	r2, [pc, #16]	; (ffff1950 <reg_file_set_sub_stage+0x14>)
ffff193e:	f8d2 3808 	ldr.w	r3, [r2, #2056]	; 0x808
ffff1942:	f423 437f 	bic.w	r3, r3, #65280	; 0xff00
ffff1946:	ea43 2300 	orr.w	r3, r3, r0, lsl #8
ffff194a:	f8c2 3808 	str.w	r3, [r2, #2056]	; 0x808
ffff194e:	4770      	bx	lr
ffff1950:	ffc24000 	.word	0xffc24000

ffff1954 <set_rank_and_odt_mask>:
ffff1954:	2301      	movs	r3, #1
ffff1956:	b510      	push	{r4, lr}
ffff1958:	4083      	lsls	r3, r0
ffff195a:	43da      	mvns	r2, r3
ffff195c:	b341      	cbz	r1, ffff19b0 <set_rank_and_odt_mask+0x5c>
ffff195e:	4917      	ldr	r1, [pc, #92]	; (ffff19bc <set_rank_and_odt_mask+0x68>)
ffff1960:	680c      	ldr	r4, [r1, #0]
ffff1962:	f894 1038 	ldrb.w	r1, [r4, #56]	; 0x38
ffff1966:	2902      	cmp	r1, #2
ffff1968:	d006      	beq.n	ffff1978 <set_rank_and_odt_mask+0x24>
ffff196a:	2904      	cmp	r1, #4
ffff196c:	d019      	beq.n	ffff19a2 <set_rank_and_odt_mask+0x4e>
ffff196e:	3901      	subs	r1, #1
ffff1970:	424b      	negs	r3, r1
ffff1972:	414b      	adcs	r3, r1
ffff1974:	2100      	movs	r1, #0
ffff1976:	e006      	b.n	ffff1986 <set_rank_and_odt_mask+0x32>
ffff1978:	f894 1037 	ldrb.w	r1, [r4, #55]	; 0x37
ffff197c:	2901      	cmp	r1, #1
ffff197e:	d10d      	bne.n	ffff199c <set_rank_and_odt_mask+0x48>
ffff1980:	f002 0103 	and.w	r1, r2, #3
ffff1984:	2303      	movs	r3, #3
ffff1986:	041b      	lsls	r3, r3, #16
ffff1988:	b2d2      	uxtb	r2, r2
ffff198a:	ea43 2301 	orr.w	r3, r3, r1, lsl #8
ffff198e:	4313      	orrs	r3, r2
ffff1990:	f3bf 8f5f 	dmb	sy
ffff1994:	4a0a      	ldr	r2, [pc, #40]	; (ffff19c0 <set_rank_and_odt_mask+0x6c>)
ffff1996:	f8c2 3400 	str.w	r3, [r2, #1024]	; 0x400
ffff199a:	bd10      	pop	{r4, pc}
ffff199c:	f003 0303 	and.w	r3, r3, #3
ffff19a0:	e7e8      	b.n	ffff1974 <set_rank_and_odt_mask+0x20>
ffff19a2:	2803      	cmp	r0, #3
ffff19a4:	d806      	bhi.n	ffff19b4 <set_rank_and_odt_mask+0x60>
ffff19a6:	4b07      	ldr	r3, [pc, #28]	; (ffff19c4 <set_rank_and_odt_mask+0x70>)
ffff19a8:	5c19      	ldrb	r1, [r3, r0]
ffff19aa:	4b07      	ldr	r3, [pc, #28]	; (ffff19c8 <set_rank_and_odt_mask+0x74>)
ffff19ac:	5c1b      	ldrb	r3, [r3, r0]
ffff19ae:	e7ea      	b.n	ffff1986 <set_rank_and_odt_mask+0x32>
ffff19b0:	460b      	mov	r3, r1
ffff19b2:	e7e8      	b.n	ffff1986 <set_rank_and_odt_mask+0x32>
ffff19b4:	2300      	movs	r3, #0
ffff19b6:	4619      	mov	r1, r3
ffff19b8:	e7e5      	b.n	ffff1986 <set_rank_and_odt_mask+0x32>
ffff19ba:	bf00      	nop
ffff19bc:	ffff7a18 	.word	0xffff7a18
ffff19c0:	ffc23000 	.word	0xffc23000
ffff19c4:	ffff6e38 	.word	0xffff6e38
ffff19c8:	ffff6e3c 	.word	0xffff6e3c

ffff19cc <scc_mgr_set>:
ffff19cc:	f3bf 8f5f 	dmb	sy
ffff19d0:	ea40 0181 	orr.w	r1, r0, r1, lsl #2
ffff19d4:	f041 417f 	orr.w	r1, r1, #4278190080	; 0xff000000
ffff19d8:	f441 0142 	orr.w	r1, r1, #12713984	; 0xc20000
ffff19dc:	600a      	str	r2, [r1, #0]
ffff19de:	4770      	bx	lr

ffff19e0 <scc_mgr_set_dqs_out1_delay>:
ffff19e0:	4b04      	ldr	r3, [pc, #16]	; (ffff19f4 <scc_mgr_set_dqs_out1_delay+0x14>)
ffff19e2:	4602      	mov	r2, r0
ffff19e4:	f44f 60e0 	mov.w	r0, #1792	; 0x700
ffff19e8:	681b      	ldr	r3, [r3, #0]
ffff19ea:	f893 1034 	ldrb.w	r1, [r3, #52]	; 0x34
ffff19ee:	f7ff bfed 	b.w	ffff19cc <scc_mgr_set>
ffff19f2:	bf00      	nop
ffff19f4:	ffff7a18 	.word	0xffff7a18

ffff19f8 <scc_mgr_set_all_ranks>:
ffff19f8:	b5f8      	push	{r3, r4, r5, r6, r7, lr}
ffff19fa:	460d      	mov	r5, r1
ffff19fc:	4e0d      	ldr	r6, [pc, #52]	; (ffff1a34 <scc_mgr_set_all_ranks+0x3c>)
ffff19fe:	2400      	movs	r4, #0
ffff1a00:	6831      	ldr	r1, [r6, #0]
ffff1a02:	f891 1038 	ldrb.w	r1, [r1, #56]	; 0x38
ffff1a06:	42a1      	cmp	r1, r4
ffff1a08:	d800      	bhi.n	ffff1a0c <scc_mgr_set_all_ranks+0x14>
ffff1a0a:	bdf8      	pop	{r3, r4, r5, r6, r7, pc}
ffff1a0c:	4629      	mov	r1, r5
ffff1a0e:	f7ff ffdd 	bl	ffff19cc <scc_mgr_set>
ffff1a12:	b903      	cbnz	r3, ffff1a16 <scc_mgr_set_all_ranks+0x1e>
ffff1a14:	b94c      	cbnz	r4, ffff1a2a <scc_mgr_set_all_ranks+0x32>
ffff1a16:	f3bf 8f5f 	dmb	sy
ffff1a1a:	4907      	ldr	r1, [pc, #28]	; (ffff1a38 <scc_mgr_set_all_ranks+0x40>)
ffff1a1c:	f8c1 5e00 	str.w	r5, [r1, #3584]	; 0xe00
ffff1a20:	f3bf 8f5f 	dmb	sy
ffff1a24:	2700      	movs	r7, #0
ffff1a26:	f8c1 7e20 	str.w	r7, [r1, #3616]	; 0xe20
ffff1a2a:	6831      	ldr	r1, [r6, #0]
ffff1a2c:	f891 1038 	ldrb.w	r1, [r1, #56]	; 0x38
ffff1a30:	440c      	add	r4, r1
ffff1a32:	e7e5      	b.n	ffff1a00 <scc_mgr_set_all_ranks+0x8>
ffff1a34:	ffff7a18 	.word	0xffff7a18
ffff1a38:	ffc20000 	.word	0xffc20000

ffff1a3c <scc_mgr_set_dqs_en_phase_all_ranks>:
ffff1a3c:	460a      	mov	r2, r1
ffff1a3e:	2300      	movs	r3, #0
ffff1a40:	4601      	mov	r1, r0
ffff1a42:	f44f 7000 	mov.w	r0, #512	; 0x200
ffff1a46:	f7ff bfd7 	b.w	ffff19f8 <scc_mgr_set_all_ranks>

ffff1a4a <scc_mgr_set_dqs_en_delay_all_ranks>:
ffff1a4a:	460a      	mov	r2, r1
ffff1a4c:	2301      	movs	r3, #1
ffff1a4e:	4601      	mov	r1, r0
ffff1a50:	f44f 7040 	mov.w	r0, #768	; 0x300
ffff1a54:	f7ff bfd0 	b.w	ffff19f8 <scc_mgr_set_all_ranks>

ffff1a58 <scc_mgr_set_oct_out1_delay>:
ffff1a58:	b538      	push	{r3, r4, r5, lr}
ffff1a5a:	4604      	mov	r4, r0
ffff1a5c:	4b0b      	ldr	r3, [pc, #44]	; (ffff1a8c <scc_mgr_set_oct_out1_delay+0x34>)
ffff1a5e:	460d      	mov	r5, r1
ffff1a60:	681b      	ldr	r3, [r3, #0]
ffff1a62:	f893 1036 	ldrb.w	r1, [r3, #54]	; 0x36
ffff1a66:	f893 0035 	ldrb.w	r0, [r3, #53]	; 0x35
ffff1a6a:	f004 e95a 	blx	ffff5d20 <__aeabi_uidiv>
ffff1a6e:	b2c0      	uxtb	r0, r0
ffff1a70:	fb04 f300 	mul.w	r3, r4, r0
ffff1a74:	18c4      	adds	r4, r0, r3
ffff1a76:	42a3      	cmp	r3, r4
ffff1a78:	d100      	bne.n	ffff1a7c <scc_mgr_set_oct_out1_delay+0x24>
ffff1a7a:	bd38      	pop	{r3, r4, r5, pc}
ffff1a7c:	4619      	mov	r1, r3
ffff1a7e:	462a      	mov	r2, r5
ffff1a80:	f44f 60a0 	mov.w	r0, #1280	; 0x500
ffff1a84:	3301      	adds	r3, #1
ffff1a86:	f7ff ffa1 	bl	ffff19cc <scc_mgr_set>
ffff1a8a:	e7f4      	b.n	ffff1a76 <scc_mgr_set_oct_out1_delay+0x1e>
ffff1a8c:	ffff7a18 	.word	0xffff7a18

ffff1a90 <scc_mgr_load_dqs_for_write_group>:
ffff1a90:	4b0b      	ldr	r3, [pc, #44]	; (ffff1ac0 <scc_mgr_load_dqs_for_write_group+0x30>)
ffff1a92:	b510      	push	{r4, lr}
ffff1a94:	4604      	mov	r4, r0
ffff1a96:	681b      	ldr	r3, [r3, #0]
ffff1a98:	f893 1036 	ldrb.w	r1, [r3, #54]	; 0x36
ffff1a9c:	f893 0035 	ldrb.w	r0, [r3, #53]	; 0x35
ffff1aa0:	f004 e93e 	blx	ffff5d20 <__aeabi_uidiv>
ffff1aa4:	b2c0      	uxtb	r0, r0
ffff1aa6:	4a07      	ldr	r2, [pc, #28]	; (ffff1ac4 <scc_mgr_load_dqs_for_write_group+0x34>)
ffff1aa8:	2300      	movs	r3, #0
ffff1aaa:	4344      	muls	r4, r0
ffff1aac:	4283      	cmp	r3, r0
ffff1aae:	db00      	blt.n	ffff1ab2 <scc_mgr_load_dqs_for_write_group+0x22>
ffff1ab0:	bd10      	pop	{r4, pc}
ffff1ab2:	1919      	adds	r1, r3, r4
ffff1ab4:	f3bf 8f5f 	dmb	sy
ffff1ab8:	3301      	adds	r3, #1
ffff1aba:	f8c2 1e00 	str.w	r1, [r2, #3584]	; 0xe00
ffff1abe:	e7f5      	b.n	ffff1aac <scc_mgr_load_dqs_for_write_group+0x1c>
ffff1ac0:	ffff7a18 	.word	0xffff7a18
ffff1ac4:	ffc20000 	.word	0xffc20000

ffff1ac8 <set_jump_as_return>:
ffff1ac8:	f3bf 8f5f 	dmb	sy
ffff1acc:	4b06      	ldr	r3, [pc, #24]	; (ffff1ae8 <set_jump_as_return+0x20>)
ffff1ace:	22ff      	movs	r2, #255	; 0xff
ffff1ad0:	f8c3 2800 	str.w	r2, [r3, #2048]	; 0x800
ffff1ad4:	4a05      	ldr	r2, [pc, #20]	; (ffff1aec <set_jump_as_return+0x24>)
ffff1ad6:	6812      	ldr	r2, [r2, #0]
ffff1ad8:	f892 202c 	ldrb.w	r2, [r2, #44]	; 0x2c
ffff1adc:	f3bf 8f5f 	dmb	sy
ffff1ae0:	f8c3 2c00 	str.w	r2, [r3, #3072]	; 0xc00
ffff1ae4:	4770      	bx	lr
ffff1ae6:	bf00      	nop
ffff1ae8:	ffc22000 	.word	0xffc22000
ffff1aec:	ffff7a18 	.word	0xffff7a18

ffff1af0 <delay_for_n_mem_clocks>:
ffff1af0:	4b29      	ldr	r3, [pc, #164]	; (ffff1b98 <delay_for_n_mem_clocks+0xa8>)
ffff1af2:	b570      	push	{r4, r5, r6, lr}
ffff1af4:	681b      	ldr	r3, [r3, #0]
ffff1af6:	791d      	ldrb	r5, [r3, #4]
ffff1af8:	182c      	adds	r4, r5, r0
ffff1afa:	4629      	mov	r1, r5
ffff1afc:	3c01      	subs	r4, #1
ffff1afe:	4620      	mov	r0, r4
ffff1b00:	f004 e90e 	blx	ffff5d20 <__aeabi_uidiv>
ffff1b04:	42a5      	cmp	r5, r4
ffff1b06:	bf98      	it	ls
ffff1b08:	f100 30ff 	addls.w	r0, r0, #4294967295
ffff1b0c:	0c02      	lsrs	r2, r0, #16
ffff1b0e:	d11d      	bne.n	ffff1b4c <delay_for_n_mem_clocks+0x5c>
ffff1b10:	f3c0 2107 	ubfx	r1, r0, #8, #8
ffff1b14:	0a03      	lsrs	r3, r0, #8
ffff1b16:	d11a      	bne.n	ffff1b4e <delay_for_n_mem_clocks+0x5e>
ffff1b18:	b2c3      	uxtb	r3, r0
ffff1b1a:	4611      	mov	r1, r2
ffff1b1c:	4d1f      	ldr	r5, [pc, #124]	; (ffff1b9c <delay_for_n_mem_clocks+0xac>)
ffff1b1e:	28ff      	cmp	r0, #255	; 0xff
ffff1b20:	4e1f      	ldr	r6, [pc, #124]	; (ffff1ba0 <delay_for_n_mem_clocks+0xb0>)
ffff1b22:	882c      	ldrh	r4, [r5, #0]
ffff1b24:	ea04 0403 	and.w	r4, r4, r3
ffff1b28:	4b1e      	ldr	r3, [pc, #120]	; (ffff1ba4 <delay_for_n_mem_clocks+0xb4>)
ffff1b2a:	d812      	bhi.n	ffff1b52 <delay_for_n_mem_clocks+0x62>
ffff1b2c:	f3bf 8f5f 	dmb	sy
ffff1b30:	6832      	ldr	r2, [r6, #0]
ffff1b32:	f8c3 4804 	str.w	r4, [r3, #2052]	; 0x804
ffff1b36:	7b52      	ldrb	r2, [r2, #13]
ffff1b38:	f3bf 8f5f 	dmb	sy
ffff1b3c:	f8c3 2c04 	str.w	r2, [r3, #3076]	; 0xc04
ffff1b40:	6832      	ldr	r2, [r6, #0]
ffff1b42:	7b52      	ldrb	r2, [r2, #13]
ffff1b44:	f3bf 8f5f 	dmb	sy
ffff1b48:	601a      	str	r2, [r3, #0]
ffff1b4a:	bd70      	pop	{r4, r5, r6, pc}
ffff1b4c:	21ff      	movs	r1, #255	; 0xff
ffff1b4e:	23ff      	movs	r3, #255	; 0xff
ffff1b50:	e7e4      	b.n	ffff1b1c <delay_for_n_mem_clocks+0x2c>
ffff1b52:	b292      	uxth	r2, r2
ffff1b54:	f3bf 8f5f 	dmb	sy
ffff1b58:	8828      	ldrh	r0, [r5, #0]
ffff1b5a:	f8c3 4800 	str.w	r4, [r3, #2048]	; 0x800
ffff1b5e:	4001      	ands	r1, r0
ffff1b60:	f3bf 8f5f 	dmb	sy
ffff1b64:	f8c3 1804 	str.w	r1, [r3, #2052]	; 0x804
ffff1b68:	6831      	ldr	r1, [r6, #0]
ffff1b6a:	7b89      	ldrb	r1, [r1, #14]
ffff1b6c:	f3bf 8f5f 	dmb	sy
ffff1b70:	f8c3 1c00 	str.w	r1, [r3, #3072]	; 0xc00
ffff1b74:	6831      	ldr	r1, [r6, #0]
ffff1b76:	7b89      	ldrb	r1, [r1, #14]
ffff1b78:	f3bf 8f5f 	dmb	sy
ffff1b7c:	f8c3 1c04 	str.w	r1, [r3, #3076]	; 0xc04
ffff1b80:	6831      	ldr	r1, [r6, #0]
ffff1b82:	7b89      	ldrb	r1, [r1, #14]
ffff1b84:	f3bf 8f5f 	dmb	sy
ffff1b88:	6019      	str	r1, [r3, #0]
ffff1b8a:	4611      	mov	r1, r2
ffff1b8c:	3a01      	subs	r2, #1
ffff1b8e:	b292      	uxth	r2, r2
ffff1b90:	2900      	cmp	r1, #0
ffff1b92:	d1f5      	bne.n	ffff1b80 <delay_for_n_mem_clocks+0x90>
ffff1b94:	e7d9      	b.n	ffff1b4a <delay_for_n_mem_clocks+0x5a>
ffff1b96:	bf00      	nop
ffff1b98:	ffff7a10 	.word	0xffff7a10
ffff1b9c:	ffff7a1c 	.word	0xffff7a1c
ffff1ba0:	ffff7a18 	.word	0xffff7a18
ffff1ba4:	ffc22000 	.word	0xffc22000

ffff1ba8 <rw_mgr_mem_init_load_regs>:
ffff1ba8:	b530      	push	{r4, r5, lr}
ffff1baa:	4d12      	ldr	r5, [pc, #72]	; (ffff1bf4 <rw_mgr_mem_init_load_regs+0x4c>)
ffff1bac:	882c      	ldrh	r4, [r5, #0]
ffff1bae:	4020      	ands	r0, r4
ffff1bb0:	f3bf 8f5f 	dmb	sy
ffff1bb4:	4c10      	ldr	r4, [pc, #64]	; (ffff1bf8 <rw_mgr_mem_init_load_regs+0x50>)
ffff1bb6:	f8c4 0800 	str.w	r0, [r4, #2048]	; 0x800
ffff1bba:	8828      	ldrh	r0, [r5, #0]
ffff1bbc:	4001      	ands	r1, r0
ffff1bbe:	f3bf 8f5f 	dmb	sy
ffff1bc2:	f8c4 1804 	str.w	r1, [r4, #2052]	; 0x804
ffff1bc6:	8829      	ldrh	r1, [r5, #0]
ffff1bc8:	400a      	ands	r2, r1
ffff1bca:	f3bf 8f5f 	dmb	sy
ffff1bce:	f8c4 2808 	str.w	r2, [r4, #2056]	; 0x808
ffff1bd2:	f3bf 8f5f 	dmb	sy
ffff1bd6:	f8c4 3c00 	str.w	r3, [r4, #3072]	; 0xc00
ffff1bda:	f3bf 8f5f 	dmb	sy
ffff1bde:	f8c4 3c04 	str.w	r3, [r4, #3076]	; 0xc04
ffff1be2:	f3bf 8f5f 	dmb	sy
ffff1be6:	f8c4 3c08 	str.w	r3, [r4, #3080]	; 0xc08
ffff1bea:	f3bf 8f5f 	dmb	sy
ffff1bee:	6023      	str	r3, [r4, #0]
ffff1bf0:	bd30      	pop	{r4, r5, pc}
ffff1bf2:	bf00      	nop
ffff1bf4:	ffff7a1c 	.word	0xffff7a1c
ffff1bf8:	ffc22000 	.word	0xffc22000

ffff1bfc <rw_mgr_mem_load_user>:
ffff1bfc:	e92d 45f8 	stmdb	sp!, {r3, r4, r5, r6, r7, r8, sl, lr}
ffff1c00:	4680      	mov	r8, r0
ffff1c02:	4c3c      	ldr	r4, [pc, #240]	; (ffff1cf4 <rw_mgr_mem_load_user+0xf8>)
ffff1c04:	468a      	mov	sl, r1
ffff1c06:	4617      	mov	r7, r2
ffff1c08:	2600      	movs	r6, #0
ffff1c0a:	6823      	ldr	r3, [r4, #0]
ffff1c0c:	f893 3038 	ldrb.w	r3, [r3, #56]	; 0x38
ffff1c10:	42b3      	cmp	r3, r6
ffff1c12:	d801      	bhi.n	ffff1c18 <rw_mgr_mem_load_user+0x1c>
ffff1c14:	e8bd 85f8 	ldmia.w	sp!, {r3, r4, r5, r6, r7, r8, sl, pc}
ffff1c18:	4630      	mov	r0, r6
ffff1c1a:	2100      	movs	r1, #0
ffff1c1c:	4d36      	ldr	r5, [pc, #216]	; (ffff1cf8 <rw_mgr_mem_load_user+0xfc>)
ffff1c1e:	f7ff fe99 	bl	ffff1954 <set_rank_and_odt_mask>
ffff1c22:	b12f      	cbz	r7, ffff1c30 <rw_mgr_mem_load_user+0x34>
ffff1c24:	6823      	ldr	r3, [r4, #0]
ffff1c26:	f893 3027 	ldrb.w	r3, [r3, #39]	; 0x27
ffff1c2a:	f3bf 8f5f 	dmb	sy
ffff1c2e:	602b      	str	r3, [r5, #0]
ffff1c30:	6823      	ldr	r3, [r4, #0]
ffff1c32:	f893 3030 	ldrb.w	r3, [r3, #48]	; 0x30
ffff1c36:	4133      	asrs	r3, r6
ffff1c38:	07db      	lsls	r3, r3, #31
ffff1c3a:	d535      	bpl.n	ffff1ca8 <rw_mgr_mem_load_user+0xac>
ffff1c3c:	f7ff ff44 	bl	ffff1ac8 <set_jump_as_return>
ffff1c40:	6823      	ldr	r3, [r4, #0]
ffff1c42:	f893 3024 	ldrb.w	r3, [r3, #36]	; 0x24
ffff1c46:	f3bf 8f5f 	dmb	sy
ffff1c4a:	2004      	movs	r0, #4
ffff1c4c:	602b      	str	r3, [r5, #0]
ffff1c4e:	f7ff ff4f 	bl	ffff1af0 <delay_for_n_mem_clocks>
ffff1c52:	f7ff ff39 	bl	ffff1ac8 <set_jump_as_return>
ffff1c56:	6823      	ldr	r3, [r4, #0]
ffff1c58:	f893 3026 	ldrb.w	r3, [r3, #38]	; 0x26
ffff1c5c:	f3bf 8f5f 	dmb	sy
ffff1c60:	2004      	movs	r0, #4
ffff1c62:	602b      	str	r3, [r5, #0]
ffff1c64:	f7ff ff44 	bl	ffff1af0 <delay_for_n_mem_clocks>
ffff1c68:	f7ff ff2e 	bl	ffff1ac8 <set_jump_as_return>
ffff1c6c:	6823      	ldr	r3, [r4, #0]
ffff1c6e:	f893 3022 	ldrb.w	r3, [r3, #34]	; 0x22
ffff1c72:	f3bf 8f5f 	dmb	sy
ffff1c76:	2004      	movs	r0, #4
ffff1c78:	602b      	str	r3, [r5, #0]
ffff1c7a:	f7ff ff39 	bl	ffff1af0 <delay_for_n_mem_clocks>
ffff1c7e:	f7ff ff23 	bl	ffff1ac8 <set_jump_as_return>
ffff1c82:	f3bf 8f5f 	dmb	sy
ffff1c86:	f8c5 8000 	str.w	r8, [r5]
ffff1c8a:	b95f      	cbnz	r7, ffff1ca4 <rw_mgr_mem_load_user+0xa8>
ffff1c8c:	f7ff ff1c 	bl	ffff1ac8 <set_jump_as_return>
ffff1c90:	6823      	ldr	r3, [r4, #0]
ffff1c92:	f893 302e 	ldrb.w	r3, [r3, #46]	; 0x2e
ffff1c96:	f3bf 8f5f 	dmb	sy
ffff1c9a:	f44f 7000 	mov.w	r0, #512	; 0x200
ffff1c9e:	602b      	str	r3, [r5, #0]
ffff1ca0:	f7ff ff26 	bl	ffff1af0 <delay_for_n_mem_clocks>
ffff1ca4:	3601      	adds	r6, #1
ffff1ca6:	e7b0      	b.n	ffff1c0a <rw_mgr_mem_load_user+0xe>
ffff1ca8:	f7ff ff0e 	bl	ffff1ac8 <set_jump_as_return>
ffff1cac:	6823      	ldr	r3, [r4, #0]
ffff1cae:	f893 3023 	ldrb.w	r3, [r3, #35]	; 0x23
ffff1cb2:	f3bf 8f5f 	dmb	sy
ffff1cb6:	2004      	movs	r0, #4
ffff1cb8:	602b      	str	r3, [r5, #0]
ffff1cba:	f7ff ff19 	bl	ffff1af0 <delay_for_n_mem_clocks>
ffff1cbe:	f7ff ff03 	bl	ffff1ac8 <set_jump_as_return>
ffff1cc2:	6823      	ldr	r3, [r4, #0]
ffff1cc4:	f893 3025 	ldrb.w	r3, [r3, #37]	; 0x25
ffff1cc8:	f3bf 8f5f 	dmb	sy
ffff1ccc:	2004      	movs	r0, #4
ffff1cce:	602b      	str	r3, [r5, #0]
ffff1cd0:	f7ff ff0e 	bl	ffff1af0 <delay_for_n_mem_clocks>
ffff1cd4:	f7ff fef8 	bl	ffff1ac8 <set_jump_as_return>
ffff1cd8:	6823      	ldr	r3, [r4, #0]
ffff1cda:	f893 3021 	ldrb.w	r3, [r3, #33]	; 0x21
ffff1cde:	f3bf 8f5f 	dmb	sy
ffff1ce2:	602b      	str	r3, [r5, #0]
ffff1ce4:	f7ff fef0 	bl	ffff1ac8 <set_jump_as_return>
ffff1ce8:	f3bf 8f5f 	dmb	sy
ffff1cec:	f8c5 a000 	str.w	sl, [r5]
ffff1cf0:	e7cb      	b.n	ffff1c8a <rw_mgr_mem_load_user+0x8e>
ffff1cf2:	bf00      	nop
ffff1cf4:	ffff7a18 	.word	0xffff7a18
ffff1cf8:	ffc22000 	.word	0xffc22000

ffff1cfc <rw_mgr_decr_vfifo>:
ffff1cfc:	b510      	push	{r4, lr}
ffff1cfe:	2300      	movs	r3, #0
ffff1d00:	4906      	ldr	r1, [pc, #24]	; (ffff1d1c <rw_mgr_decr_vfifo+0x20>)
ffff1d02:	4c07      	ldr	r4, [pc, #28]	; (ffff1d20 <rw_mgr_decr_vfifo+0x24>)
ffff1d04:	680a      	ldr	r2, [r1, #0]
ffff1d06:	7a52      	ldrb	r2, [r2, #9]
ffff1d08:	3a01      	subs	r2, #1
ffff1d0a:	429a      	cmp	r2, r3
ffff1d0c:	d800      	bhi.n	ffff1d10 <rw_mgr_decr_vfifo+0x14>
ffff1d0e:	bd10      	pop	{r4, pc}
ffff1d10:	f3bf 8f5f 	dmb	sy
ffff1d14:	3301      	adds	r3, #1
ffff1d16:	6060      	str	r0, [r4, #4]
ffff1d18:	e7f4      	b.n	ffff1d04 <rw_mgr_decr_vfifo+0x8>
ffff1d1a:	bf00      	nop
ffff1d1c:	ffff7a10 	.word	0xffff7a10
ffff1d20:	ffc21000 	.word	0xffc21000

ffff1d24 <mem_precharge_and_activate>:
ffff1d24:	b538      	push	{r3, r4, r5, lr}
ffff1d26:	2000      	movs	r0, #0
ffff1d28:	4d16      	ldr	r5, [pc, #88]	; (ffff1d84 <mem_precharge_and_activate+0x60>)
ffff1d2a:	4c17      	ldr	r4, [pc, #92]	; (ffff1d88 <mem_precharge_and_activate+0x64>)
ffff1d2c:	682b      	ldr	r3, [r5, #0]
ffff1d2e:	f893 3038 	ldrb.w	r3, [r3, #56]	; 0x38
ffff1d32:	4283      	cmp	r3, r0
ffff1d34:	dc00      	bgt.n	ffff1d38 <mem_precharge_and_activate+0x14>
ffff1d36:	bd38      	pop	{r3, r4, r5, pc}
ffff1d38:	2100      	movs	r1, #0
ffff1d3a:	f7ff fe0b 	bl	ffff1954 <set_rank_and_odt_mask>
ffff1d3e:	682b      	ldr	r3, [r5, #0]
ffff1d40:	f893 3027 	ldrb.w	r3, [r3, #39]	; 0x27
ffff1d44:	f3bf 8f5f 	dmb	sy
ffff1d48:	6023      	str	r3, [r4, #0]
ffff1d4a:	f3bf 8f5f 	dmb	sy
ffff1d4e:	682a      	ldr	r2, [r5, #0]
ffff1d50:	230f      	movs	r3, #15
ffff1d52:	f8c4 3800 	str.w	r3, [r4, #2048]	; 0x800
ffff1d56:	7852      	ldrb	r2, [r2, #1]
ffff1d58:	f3bf 8f5f 	dmb	sy
ffff1d5c:	f8c4 2c00 	str.w	r2, [r4, #3072]	; 0xc00
ffff1d60:	f3bf 8f5f 	dmb	sy
ffff1d64:	f8c4 3804 	str.w	r3, [r4, #2052]	; 0x804
ffff1d68:	682b      	ldr	r3, [r5, #0]
ffff1d6a:	789b      	ldrb	r3, [r3, #2]
ffff1d6c:	f3bf 8f5f 	dmb	sy
ffff1d70:	f8c4 3c04 	str.w	r3, [r4, #3076]	; 0xc04
ffff1d74:	682b      	ldr	r3, [r5, #0]
ffff1d76:	781b      	ldrb	r3, [r3, #0]
ffff1d78:	f3bf 8f5f 	dmb	sy
ffff1d7c:	3001      	adds	r0, #1
ffff1d7e:	6023      	str	r3, [r4, #0]
ffff1d80:	e7d4      	b.n	ffff1d2c <mem_precharge_and_activate+0x8>
ffff1d82:	bf00      	nop
ffff1d84:	ffff7a18 	.word	0xffff7a18
ffff1d88:	ffc22000 	.word	0xffc22000

ffff1d8c <rw_mgr_mem_calibrate_read_test.constprop.0>:
ffff1d8c:	e92d 4df0 	stmdb	sp!, {r4, r5, r6, r7, r8, sl, fp, lr}
ffff1d90:	461e      	mov	r6, r3
ffff1d92:	4605      	mov	r5, r0
ffff1d94:	b086      	sub	sp, #24
ffff1d96:	9204      	str	r2, [sp, #16]
ffff1d98:	4a60      	ldr	r2, [pc, #384]	; (ffff1f1c <rw_mgr_mem_calibrate_read_test.constprop.0+0x190>)
ffff1d9a:	9b0f      	ldr	r3, [sp, #60]	; 0x3c
ffff1d9c:	9101      	str	r1, [sp, #4]
ffff1d9e:	6812      	ldr	r2, [r2, #0]
ffff1da0:	f892 a038 	ldrb.w	sl, [r2, #56]	; 0x38
ffff1da4:	b903      	cbnz	r3, ffff1da8 <rw_mgr_mem_calibrate_read_test.constprop.0+0x1c>
ffff1da6:	4482      	add	sl, r0
ffff1da8:	4b5d      	ldr	r3, [pc, #372]	; (ffff1f20 <rw_mgr_mem_calibrate_read_test.constprop.0+0x194>)
ffff1daa:	4c5e      	ldr	r4, [pc, #376]	; (ffff1f24 <rw_mgr_mem_calibrate_read_test.constprop.0+0x198>)
ffff1dac:	681b      	ldr	r3, [r3, #0]
ffff1dae:	685a      	ldr	r2, [r3, #4]
ffff1db0:	681b      	ldr	r3, [r3, #0]
ffff1db2:	9202      	str	r2, [sp, #8]
ffff1db4:	6033      	str	r3, [r6, #0]
ffff1db6:	9a0e      	ldr	r2, [sp, #56]	; 0x38
ffff1db8:	4b5b      	ldr	r3, [pc, #364]	; (ffff1f28 <rw_mgr_mem_calibrate_read_test.constprop.0+0x19c>)
ffff1dba:	2a00      	cmp	r2, #0
ffff1dbc:	bf08      	it	eq
ffff1dbe:	4623      	moveq	r3, r4
ffff1dc0:	9303      	str	r3, [sp, #12]
ffff1dc2:	4f56      	ldr	r7, [pc, #344]	; (ffff1f1c <rw_mgr_mem_calibrate_read_test.constprop.0+0x190>)
ffff1dc4:	4555      	cmp	r5, sl
ffff1dc6:	d31c      	bcc.n	ffff1e02 <rw_mgr_mem_calibrate_read_test.constprop.0+0x76>
ffff1dc8:	683b      	ldr	r3, [r7, #0]
ffff1dca:	791b      	ldrb	r3, [r3, #4]
ffff1dcc:	f3bf 8f5f 	dmb	sy
ffff1dd0:	9a01      	ldr	r2, [sp, #4]
ffff1dd2:	0091      	lsls	r1, r2, #2
ffff1dd4:	f5a1 1177 	sub.w	r1, r1, #4046848	; 0x3dc000
ffff1dd8:	f5a1 5100 	sub.w	r1, r1, #8192	; 0x2000
ffff1ddc:	600b      	str	r3, [r1, #0]
ffff1dde:	2100      	movs	r1, #0
ffff1de0:	4608      	mov	r0, r1
ffff1de2:	f7ff fdb7 	bl	ffff1954 <set_rank_and_odt_mask>
ffff1de6:	9b04      	ldr	r3, [sp, #16]
ffff1de8:	6830      	ldr	r0, [r6, #0]
ffff1dea:	2b00      	cmp	r3, #0
ffff1dec:	f000 8091 	beq.w	ffff1f12 <rw_mgr_mem_calibrate_read_test.constprop.0+0x186>
ffff1df0:	4b4b      	ldr	r3, [pc, #300]	; (ffff1f20 <rw_mgr_mem_calibrate_read_test.constprop.0+0x194>)
ffff1df2:	681b      	ldr	r3, [r3, #0]
ffff1df4:	681b      	ldr	r3, [r3, #0]
ffff1df6:	1a1b      	subs	r3, r3, r0
ffff1df8:	4258      	negs	r0, r3
ffff1dfa:	4158      	adcs	r0, r3
ffff1dfc:	b006      	add	sp, #24
ffff1dfe:	e8bd 8df0 	ldmia.w	sp!, {r4, r5, r6, r7, r8, sl, fp, pc}
ffff1e02:	4628      	mov	r0, r5
ffff1e04:	2101      	movs	r1, #1
ffff1e06:	f7ff fda5 	bl	ffff1954 <set_rank_and_odt_mask>
ffff1e0a:	f3bf 8f5f 	dmb	sy
ffff1e0e:	683a      	ldr	r2, [r7, #0]
ffff1e10:	2310      	movs	r3, #16
ffff1e12:	f8c4 3804 	str.w	r3, [r4, #2052]	; 0x804
ffff1e16:	f892 2029 	ldrb.w	r2, [r2, #41]	; 0x29
ffff1e1a:	f3bf 8f5f 	dmb	sy
ffff1e1e:	f8c4 2c04 	str.w	r2, [r4, #3076]	; 0xc04
ffff1e22:	f3bf 8f5f 	dmb	sy
ffff1e26:	f8c4 3808 	str.w	r3, [r4, #2056]	; 0x808
ffff1e2a:	683b      	ldr	r3, [r7, #0]
ffff1e2c:	f893 302a 	ldrb.w	r3, [r3, #42]	; 0x2a
ffff1e30:	f3bf 8f5f 	dmb	sy
ffff1e34:	f8c4 3c08 	str.w	r3, [r4, #3080]	; 0xc08
ffff1e38:	9b0e      	ldr	r3, [sp, #56]	; 0x38
ffff1e3a:	b38b      	cbz	r3, ffff1ea0 <rw_mgr_mem_calibrate_read_test.constprop.0+0x114>
ffff1e3c:	f3bf 8f5f 	dmb	sy
ffff1e40:	2306      	movs	r3, #6
ffff1e42:	f8c4 3800 	str.w	r3, [r4, #2048]	; 0x800
ffff1e46:	683b      	ldr	r3, [r7, #0]
ffff1e48:	f893 3028 	ldrb.w	r3, [r3, #40]	; 0x28
ffff1e4c:	f3bf 8f5f 	dmb	sy
ffff1e50:	f8c4 3c00 	str.w	r3, [r4, #3072]	; 0xc00
ffff1e54:	9b0e      	ldr	r3, [sp, #56]	; 0x38
ffff1e56:	b33b      	cbz	r3, ffff1ea8 <rw_mgr_mem_calibrate_read_test.constprop.0+0x11c>
ffff1e58:	683a      	ldr	r2, [r7, #0]
ffff1e5a:	f892 3035 	ldrb.w	r3, [r2, #53]	; 0x35
ffff1e5e:	f892 2039 	ldrb.w	r2, [r2, #57]	; 0x39
ffff1e62:	fb13 f302 	smulbb	r3, r3, r2
ffff1e66:	3b01      	subs	r3, #1
ffff1e68:	f3bf 8f5f 	dmb	sy
ffff1e6c:	f8c4 380c 	str.w	r3, [r4, #2060]	; 0x80c
ffff1e70:	683b      	ldr	r3, [r7, #0]
ffff1e72:	f893 3028 	ldrb.w	r3, [r3, #40]	; 0x28
ffff1e76:	f3bf 8f5f 	dmb	sy
ffff1e7a:	f8c4 3c0c 	str.w	r3, [r4, #3084]	; 0xc0c
ffff1e7e:	f04f 0800 	mov.w	r8, #0
ffff1e82:	683b      	ldr	r3, [r7, #0]
ffff1e84:	4642      	mov	r2, r8
ffff1e86:	f8df b094 	ldr.w	fp, [pc, #148]	; ffff1f1c <rw_mgr_mem_calibrate_read_test.constprop.0+0x190>
ffff1e8a:	f893 7039 	ldrb.w	r7, [r3, #57]	; 0x39
ffff1e8e:	3f01      	subs	r7, #1
ffff1e90:	1c79      	adds	r1, r7, #1
ffff1e92:	d10d      	bne.n	ffff1eb0 <rw_mgr_mem_calibrate_read_test.constprop.0+0x124>
ffff1e94:	6833      	ldr	r3, [r6, #0]
ffff1e96:	3501      	adds	r5, #1
ffff1e98:	ea03 0308 	and.w	r3, r3, r8
ffff1e9c:	6033      	str	r3, [r6, #0]
ffff1e9e:	e790      	b.n	ffff1dc2 <rw_mgr_mem_calibrate_read_test.constprop.0+0x36>
ffff1ea0:	f3bf 8f5f 	dmb	sy
ffff1ea4:	2332      	movs	r3, #50	; 0x32
ffff1ea6:	e7cc      	b.n	ffff1e42 <rw_mgr_mem_calibrate_read_test.constprop.0+0xb6>
ffff1ea8:	f3bf 8f5f 	dmb	sy
ffff1eac:	9b0e      	ldr	r3, [sp, #56]	; 0x38
ffff1eae:	e7dd      	b.n	ffff1e6c <rw_mgr_mem_calibrate_read_test.constprop.0+0xe0>
ffff1eb0:	f3bf 8f5f 	dmb	sy
ffff1eb4:	4b1d      	ldr	r3, [pc, #116]	; (ffff1f2c <rw_mgr_mem_calibrate_read_test.constprop.0+0x1a0>)
ffff1eb6:	609a      	str	r2, [r3, #8]
ffff1eb8:	f3bf 8f5f 	dmb	sy
ffff1ebc:	f503 5300 	add.w	r3, r3, #8192	; 0x2000
ffff1ec0:	601a      	str	r2, [r3, #0]
ffff1ec2:	f8db 3000 	ldr.w	r3, [fp]
ffff1ec6:	f893 1028 	ldrb.w	r1, [r3, #40]	; 0x28
ffff1eca:	f3bf 8f5f 	dmb	sy
ffff1ece:	f8db 3000 	ldr.w	r3, [fp]
ffff1ed2:	9a01      	ldr	r2, [sp, #4]
ffff1ed4:	f893 3039 	ldrb.w	r3, [r3, #57]	; 0x39
ffff1ed8:	fb02 7303 	mla	r3, r2, r3, r7
ffff1edc:	9a03      	ldr	r2, [sp, #12]
ffff1ede:	f842 1023 	str.w	r1, [r2, r3, lsl #2]
ffff1ee2:	6823      	ldr	r3, [r4, #0]
ffff1ee4:	9305      	str	r3, [sp, #20]
ffff1ee6:	f3bf 8f5f 	dmb	sy
ffff1eea:	f8db 0000 	ldr.w	r0, [fp]
ffff1eee:	3f01      	subs	r7, #1
ffff1ef0:	f890 1039 	ldrb.w	r1, [r0, #57]	; 0x39
ffff1ef4:	f890 0033 	ldrb.w	r0, [r0, #51]	; 0x33
ffff1ef8:	f003 ef12 	blx	ffff5d20 <__aeabi_uidiv>
ffff1efc:	9a02      	ldr	r2, [sp, #8]
ffff1efe:	9b05      	ldr	r3, [sp, #20]
ffff1f00:	b2c0      	uxtb	r0, r0
ffff1f02:	ea22 0303 	bic.w	r3, r2, r3
ffff1f06:	fa08 f800 	lsl.w	r8, r8, r0
ffff1f0a:	ea43 0808 	orr.w	r8, r3, r8
ffff1f0e:	2200      	movs	r2, #0
ffff1f10:	e7be      	b.n	ffff1e90 <rw_mgr_mem_calibrate_read_test.constprop.0+0x104>
ffff1f12:	3800      	subs	r0, #0
ffff1f14:	bf18      	it	ne
ffff1f16:	2001      	movne	r0, #1
ffff1f18:	e770      	b.n	ffff1dfc <rw_mgr_mem_calibrate_read_test.constprop.0+0x70>
ffff1f1a:	bf00      	nop
ffff1f1c:	ffff7a18 	.word	0xffff7a18
ffff1f20:	ffff7a14 	.word	0xffff7a14
ffff1f24:	ffc22000 	.word	0xffc22000
ffff1f28:	ffc22400 	.word	0xffc22400
ffff1f2c:	ffc21000 	.word	0xffc21000

ffff1f30 <rw_mgr_mem_calibrate_read_load_patterns.constprop.0>:
ffff1f30:	b570      	push	{r4, r5, r6, lr}
ffff1f32:	2000      	movs	r0, #0
ffff1f34:	4d20      	ldr	r5, [pc, #128]	; (ffff1fb8 <rw_mgr_mem_calibrate_read_load_patterns.constprop.0+0x88>)
ffff1f36:	4c21      	ldr	r4, [pc, #132]	; (ffff1fbc <rw_mgr_mem_calibrate_read_load_patterns.constprop.0+0x8c>)
ffff1f38:	682b      	ldr	r3, [r5, #0]
ffff1f3a:	f893 6038 	ldrb.w	r6, [r3, #56]	; 0x38
ffff1f3e:	4286      	cmp	r6, r0
ffff1f40:	d805      	bhi.n	ffff1f4e <rw_mgr_mem_calibrate_read_load_patterns.constprop.0+0x1e>
ffff1f42:	2100      	movs	r1, #0
ffff1f44:	4608      	mov	r0, r1
ffff1f46:	e8bd 4070 	ldmia.w	sp!, {r4, r5, r6, lr}
ffff1f4a:	f7ff bd03 	b.w	ffff1954 <set_rank_and_odt_mask>
ffff1f4e:	2101      	movs	r1, #1
ffff1f50:	f7ff fd00 	bl	ffff1954 <set_rank_and_odt_mask>
ffff1f54:	f3bf 8f5f 	dmb	sy
ffff1f58:	682a      	ldr	r2, [r5, #0]
ffff1f5a:	2320      	movs	r3, #32
ffff1f5c:	f8c4 3800 	str.w	r3, [r4, #2048]	; 0x800
ffff1f60:	7a12      	ldrb	r2, [r2, #8]
ffff1f62:	f3bf 8f5f 	dmb	sy
ffff1f66:	f8c4 2c00 	str.w	r2, [r4, #3072]	; 0xc00
ffff1f6a:	f3bf 8f5f 	dmb	sy
ffff1f6e:	f8c4 3804 	str.w	r3, [r4, #2052]	; 0x804
ffff1f72:	682b      	ldr	r3, [r5, #0]
ffff1f74:	7a5b      	ldrb	r3, [r3, #9]
ffff1f76:	f3bf 8f5f 	dmb	sy
ffff1f7a:	f8c4 3c04 	str.w	r3, [r4, #3076]	; 0xc04
ffff1f7e:	f3bf 8f5f 	dmb	sy
ffff1f82:	682a      	ldr	r2, [r5, #0]
ffff1f84:	2304      	movs	r3, #4
ffff1f86:	f8c4 3808 	str.w	r3, [r4, #2056]	; 0x808
ffff1f8a:	7a92      	ldrb	r2, [r2, #10]
ffff1f8c:	f3bf 8f5f 	dmb	sy
ffff1f90:	f8c4 2c08 	str.w	r2, [r4, #3080]	; 0xc08
ffff1f94:	f3bf 8f5f 	dmb	sy
ffff1f98:	f8c4 380c 	str.w	r3, [r4, #2060]	; 0x80c
ffff1f9c:	682b      	ldr	r3, [r5, #0]
ffff1f9e:	7adb      	ldrb	r3, [r3, #11]
ffff1fa0:	f3bf 8f5f 	dmb	sy
ffff1fa4:	f8c4 3c0c 	str.w	r3, [r4, #3084]	; 0xc0c
ffff1fa8:	682b      	ldr	r3, [r5, #0]
ffff1faa:	79db      	ldrb	r3, [r3, #7]
ffff1fac:	f3bf 8f5f 	dmb	sy
ffff1fb0:	3001      	adds	r0, #1
ffff1fb2:	6023      	str	r3, [r4, #0]
ffff1fb4:	e7c3      	b.n	ffff1f3e <rw_mgr_mem_calibrate_read_load_patterns.constprop.0+0xe>
ffff1fb6:	bf00      	nop
ffff1fb8:	ffff7a18 	.word	0xffff7a18
ffff1fbc:	ffc22000 	.word	0xffc22000

ffff1fc0 <rw_mgr_mem_calibrate_write_test.constprop.0>:
ffff1fc0:	e92d 4df0 	stmdb	sp!, {r4, r5, r6, r7, r8, sl, fp, lr}
ffff1fc4:	4614      	mov	r4, r2
ffff1fc6:	4605      	mov	r5, r0
ffff1fc8:	b086      	sub	sp, #24
ffff1fca:	9305      	str	r3, [sp, #20]
ffff1fcc:	4b68      	ldr	r3, [pc, #416]	; (ffff2170 <rw_mgr_mem_calibrate_write_test.constprop.0+0x1b0>)
ffff1fce:	9104      	str	r1, [sp, #16]
ffff1fd0:	f8dd 8038 	ldr.w	r8, [sp, #56]	; 0x38
ffff1fd4:	681b      	ldr	r3, [r3, #0]
ffff1fd6:	f893 2038 	ldrb.w	r2, [r3, #56]	; 0x38
ffff1fda:	f893 103a 	ldrb.w	r1, [r3, #58]	; 0x3a
ffff1fde:	4402      	add	r2, r0
ffff1fe0:	f893 0034 	ldrb.w	r0, [r3, #52]	; 0x34
ffff1fe4:	9201      	str	r2, [sp, #4]
ffff1fe6:	f003 ee9c 	blx	ffff5d20 <__aeabi_uidiv>
ffff1fea:	b2c3      	uxtb	r3, r0
ffff1fec:	9302      	str	r3, [sp, #8]
ffff1fee:	4b61      	ldr	r3, [pc, #388]	; (ffff2174 <rw_mgr_mem_calibrate_write_test.constprop.0+0x1b4>)
ffff1ff0:	4628      	mov	r0, r5
ffff1ff2:	681b      	ldr	r3, [r3, #0]
ffff1ff4:	68da      	ldr	r2, [r3, #12]
ffff1ff6:	689b      	ldr	r3, [r3, #8]
ffff1ff8:	9203      	str	r2, [sp, #12]
ffff1ffa:	f8c8 3000 	str.w	r3, [r8]
ffff1ffe:	9b01      	ldr	r3, [sp, #4]
ffff2000:	4283      	cmp	r3, r0
ffff2002:	d812      	bhi.n	ffff202a <rw_mgr_mem_calibrate_write_test.constprop.0+0x6a>
ffff2004:	2100      	movs	r1, #0
ffff2006:	4608      	mov	r0, r1
ffff2008:	f7ff fca4 	bl	ffff1954 <set_rank_and_odt_mask>
ffff200c:	9b05      	ldr	r3, [sp, #20]
ffff200e:	f8d8 0000 	ldr.w	r0, [r8]
ffff2012:	2b00      	cmp	r3, #0
ffff2014:	f000 80a8 	beq.w	ffff2168 <rw_mgr_mem_calibrate_write_test.constprop.0+0x1a8>
ffff2018:	4b56      	ldr	r3, [pc, #344]	; (ffff2174 <rw_mgr_mem_calibrate_write_test.constprop.0+0x1b4>)
ffff201a:	681b      	ldr	r3, [r3, #0]
ffff201c:	689b      	ldr	r3, [r3, #8]
ffff201e:	1a1b      	subs	r3, r3, r0
ffff2020:	4258      	negs	r0, r3
ffff2022:	4158      	adcs	r0, r3
ffff2024:	b006      	add	sp, #24
ffff2026:	e8bd 8df0 	ldmia.w	sp!, {r4, r5, r6, r7, r8, sl, fp, pc}
ffff202a:	2101      	movs	r1, #1
ffff202c:	f8df a148 	ldr.w	sl, [pc, #328]	; ffff2178 <rw_mgr_mem_calibrate_write_test.constprop.0+0x1b8>
ffff2030:	f7ff fc90 	bl	ffff1954 <set_rank_and_odt_mask>
ffff2034:	494e      	ldr	r1, [pc, #312]	; (ffff2170 <rw_mgr_mem_calibrate_write_test.constprop.0+0x1b0>)
ffff2036:	2200      	movs	r2, #0
ffff2038:	4616      	mov	r6, r2
ffff203a:	f04f 0eff 	mov.w	lr, #255	; 0xff
ffff203e:	680b      	ldr	r3, [r1, #0]
ffff2040:	f893 503a 	ldrb.w	r5, [r3, #58]	; 0x3a
ffff2044:	4b4d      	ldr	r3, [pc, #308]	; (ffff217c <rw_mgr_mem_calibrate_write_test.constprop.0+0x1bc>)
ffff2046:	3d01      	subs	r5, #1
ffff2048:	1c6f      	adds	r7, r5, #1
ffff204a:	d106      	bne.n	ffff205a <rw_mgr_mem_calibrate_write_test.constprop.0+0x9a>
ffff204c:	f8d8 3000 	ldr.w	r3, [r8]
ffff2050:	3001      	adds	r0, #1
ffff2052:	4013      	ands	r3, r2
ffff2054:	f8c8 3000 	str.w	r3, [r8]
ffff2058:	e7d1      	b.n	ffff1ffe <rw_mgr_mem_calibrate_write_test.constprop.0+0x3e>
ffff205a:	f3bf 8f5f 	dmb	sy
ffff205e:	4f48      	ldr	r7, [pc, #288]	; (ffff2180 <rw_mgr_mem_calibrate_write_test.constprop.0+0x1c0>)
ffff2060:	60be      	str	r6, [r7, #8]
ffff2062:	680f      	ldr	r7, [r1, #0]
ffff2064:	f897 b03a 	ldrb.w	fp, [r7, #58]	; 0x3a
ffff2068:	9f04      	ldr	r7, [sp, #16]
ffff206a:	fb07 5b0b 	mla	fp, r7, fp, r5
ffff206e:	f8da 7000 	ldr.w	r7, [sl]
ffff2072:	69ff      	ldr	r7, [r7, #28]
ffff2074:	f1b7 3fff 	cmp.w	r7, #4294967295
ffff2078:	d11d      	bne.n	ffff20b6 <rw_mgr_mem_calibrate_write_test.constprop.0+0xf6>
ffff207a:	f3bf 8f5f 	dmb	sy
ffff207e:	680f      	ldr	r7, [r1, #0]
ffff2080:	f8c3 e808 	str.w	lr, [r3, #2056]	; 0x808
ffff2084:	b16c      	cbz	r4, ffff20a2 <rw_mgr_mem_calibrate_write_test.constprop.0+0xe2>
ffff2086:	f897 c01c 	ldrb.w	ip, [r7, #28]
ffff208a:	7e3f      	ldrb	r7, [r7, #24]
ffff208c:	f3bf 8f5f 	dmb	sy
ffff2090:	f8c3 7c08 	str.w	r7, [r3, #3080]	; 0xc08
ffff2094:	680f      	ldr	r7, [r1, #0]
ffff2096:	7ebf      	ldrb	r7, [r7, #26]
ffff2098:	f3bf 8f5f 	dmb	sy
ffff209c:	f8c3 7c0c 	str.w	r7, [r3, #3084]	; 0xc0c
ffff20a0:	e018      	b.n	ffff20d4 <rw_mgr_mem_calibrate_write_test.constprop.0+0x114>
ffff20a2:	f897 c016 	ldrb.w	ip, [r7, #22]
ffff20a6:	7cbf      	ldrb	r7, [r7, #18]
ffff20a8:	f3bf 8f5f 	dmb	sy
ffff20ac:	f8c3 7c08 	str.w	r7, [r3, #3080]	; 0xc08
ffff20b0:	680f      	ldr	r7, [r1, #0]
ffff20b2:	7d3f      	ldrb	r7, [r7, #20]
ffff20b4:	e7f0      	b.n	ffff2098 <rw_mgr_mem_calibrate_write_test.constprop.0+0xd8>
ffff20b6:	2f00      	cmp	r7, #0
ffff20b8:	d13f      	bne.n	ffff213a <rw_mgr_mem_calibrate_write_test.constprop.0+0x17a>
ffff20ba:	f3bf 8f5f 	dmb	sy
ffff20be:	680f      	ldr	r7, [r1, #0]
ffff20c0:	f8c3 e808 	str.w	lr, [r3, #2056]	; 0x808
ffff20c4:	b3ac      	cbz	r4, ffff2132 <rw_mgr_mem_calibrate_write_test.constprop.0+0x172>
ffff20c6:	f897 c017 	ldrb.w	ip, [r7, #23]
ffff20ca:	7e7f      	ldrb	r7, [r7, #25]
ffff20cc:	f3bf 8f5f 	dmb	sy
ffff20d0:	f8c3 7c08 	str.w	r7, [r3, #3080]	; 0xc08
ffff20d4:	f3bf 8f5f 	dmb	sy
ffff20d8:	4f2a      	ldr	r7, [pc, #168]	; (ffff2184 <rw_mgr_mem_calibrate_write_test.constprop.0+0x1c4>)
ffff20da:	603e      	str	r6, [r7, #0]
ffff20dc:	f3bf 8f5f 	dmb	sy
ffff20e0:	2740      	movs	r7, #64	; 0x40
ffff20e2:	f8c3 7800 	str.w	r7, [r3, #2048]	; 0x800
ffff20e6:	f3bf 8f5f 	dmb	sy
ffff20ea:	f8c3 cc00 	str.w	ip, [r3, #3072]	; 0xc00
ffff20ee:	f3bf 8f5f 	dmb	sy
ffff20f2:	2730      	movs	r7, #48	; 0x30
ffff20f4:	f8c3 7804 	str.w	r7, [r3, #2052]	; 0x804
ffff20f8:	680f      	ldr	r7, [r1, #0]
ffff20fa:	b39c      	cbz	r4, ffff2164 <rw_mgr_mem_calibrate_write_test.constprop.0+0x1a4>
ffff20fc:	7eff      	ldrb	r7, [r7, #27]
ffff20fe:	f3bf 8f5f 	dmb	sy
ffff2102:	f8c3 7c04 	str.w	r7, [r3, #3076]	; 0xc04
ffff2106:	f3bf 8f5f 	dmb	sy
ffff210a:	ea4f 0b8b 	mov.w	fp, fp, lsl #2
ffff210e:	f5ab 1b77 	sub.w	fp, fp, #4046848	; 0x3dc000
ffff2112:	f5ab 5b00 	sub.w	fp, fp, #8192	; 0x2000
ffff2116:	f8cb c000 	str.w	ip, [fp]
ffff211a:	f8d3 c000 	ldr.w	ip, [r3]
ffff211e:	f3bf 8f5f 	dmb	sy
ffff2122:	9f02      	ldr	r7, [sp, #8]
ffff2124:	3d01      	subs	r5, #1
ffff2126:	40ba      	lsls	r2, r7
ffff2128:	9f03      	ldr	r7, [sp, #12]
ffff212a:	ea27 070c 	bic.w	r7, r7, ip
ffff212e:	433a      	orrs	r2, r7
ffff2130:	e78a      	b.n	ffff2048 <rw_mgr_mem_calibrate_write_test.constprop.0+0x88>
ffff2132:	f897 c011 	ldrb.w	ip, [r7, #17]
ffff2136:	7cff      	ldrb	r7, [r7, #19]
ffff2138:	e7c8      	b.n	ffff20cc <rw_mgr_mem_calibrate_write_test.constprop.0+0x10c>
ffff213a:	f3bf 8f5f 	dmb	sy
ffff213e:	f8c3 6808 	str.w	r6, [r3, #2056]	; 0x808
ffff2142:	f3bf 8f5f 	dmb	sy
ffff2146:	3f01      	subs	r7, #1
ffff2148:	f8c3 6c08 	str.w	r6, [r3, #3080]	; 0xc08
ffff214c:	f3bf 8f5f 	dmb	sy
ffff2150:	f8c3 780c 	str.w	r7, [r3, #2060]	; 0x80c
ffff2154:	680f      	ldr	r7, [r1, #0]
ffff2156:	b114      	cbz	r4, ffff215e <rw_mgr_mem_calibrate_write_test.constprop.0+0x19e>
ffff2158:	f897 c017 	ldrb.w	ip, [r7, #23]
ffff215c:	e79b      	b.n	ffff2096 <rw_mgr_mem_calibrate_write_test.constprop.0+0xd6>
ffff215e:	f897 c011 	ldrb.w	ip, [r7, #17]
ffff2162:	e7a6      	b.n	ffff20b2 <rw_mgr_mem_calibrate_write_test.constprop.0+0xf2>
ffff2164:	7d7f      	ldrb	r7, [r7, #21]
ffff2166:	e7ca      	b.n	ffff20fe <rw_mgr_mem_calibrate_write_test.constprop.0+0x13e>
ffff2168:	3800      	subs	r0, #0
ffff216a:	bf18      	it	ne
ffff216c:	2001      	movne	r0, #1
ffff216e:	e759      	b.n	ffff2024 <rw_mgr_mem_calibrate_write_test.constprop.0+0x64>
ffff2170:	ffff7a18 	.word	0xffff7a18
ffff2174:	ffff7a14 	.word	0xffff7a14
ffff2178:	ffff7a08 	.word	0xffff7a08
ffff217c:	ffc22000 	.word	0xffc22000
ffff2180:	ffc21000 	.word	0xffc21000
ffff2184:	ffc23000 	.word	0xffc23000

ffff2188 <search_stop_check.constprop.0>:
ffff2188:	e92d 4df3 	stmdb	sp!, {r0, r1, r4, r5, r6, r7, r8, sl, fp, lr}
ffff218c:	4616      	mov	r6, r2
ffff218e:	4a22      	ldr	r2, [pc, #136]	; (ffff2218 <search_stop_check.constprop.0+0x90>)
ffff2190:	4607      	mov	r7, r0
ffff2192:	461c      	mov	r4, r3
ffff2194:	4608      	mov	r0, r1
ffff2196:	9d0a      	ldr	r5, [sp, #40]	; 0x28
ffff2198:	9b0c      	ldr	r3, [sp, #48]	; 0x30
ffff219a:	6811      	ldr	r1, [r2, #0]
ffff219c:	463a      	mov	r2, r7
ffff219e:	b1b7      	cbz	r7, ffff21ce <search_stop_check.constprop.0+0x46>
ffff21a0:	688f      	ldr	r7, [r1, #8]
ffff21a2:	2300      	movs	r3, #0
ffff21a4:	4631      	mov	r1, r6
ffff21a6:	461a      	mov	r2, r3
ffff21a8:	9500      	str	r5, [sp, #0]
ffff21aa:	f7ff ff09 	bl	ffff1fc0 <rw_mgr_mem_calibrate_write_test.constprop.0>
ffff21ae:	9b0b      	ldr	r3, [sp, #44]	; 0x2c
ffff21b0:	fab0 f080 	clz	r0, r0
ffff21b4:	682a      	ldr	r2, [r5, #0]
ffff21b6:	0940      	lsrs	r0, r0, #5
ffff21b8:	681b      	ldr	r3, [r3, #0]
ffff21ba:	4313      	orrs	r3, r2
ffff21bc:	9a0b      	ldr	r2, [sp, #44]	; 0x2c
ffff21be:	6013      	str	r3, [r2, #0]
ffff21c0:	b110      	cbz	r0, ffff21c8 <search_stop_check.constprop.0+0x40>
ffff21c2:	1bdb      	subs	r3, r3, r7
ffff21c4:	4258      	negs	r0, r3
ffff21c6:	4158      	adcs	r0, r3
ffff21c8:	b002      	add	sp, #8
ffff21ca:	e8bd 8df0 	ldmia.w	sp!, {r4, r5, r6, r7, r8, sl, fp, pc}
ffff21ce:	680f      	ldr	r7, [r1, #0]
ffff21d0:	b133      	cbz	r3, ffff21e0 <search_stop_check.constprop.0+0x58>
ffff21d2:	462b      	mov	r3, r5
ffff21d4:	4621      	mov	r1, r4
ffff21d6:	9201      	str	r2, [sp, #4]
ffff21d8:	9200      	str	r2, [sp, #0]
ffff21da:	f7ff fdd7 	bl	ffff1d8c <rw_mgr_mem_calibrate_read_test.constprop.0>
ffff21de:	e7e6      	b.n	ffff21ae <search_stop_check.constprop.0+0x26>
ffff21e0:	4a0e      	ldr	r2, [pc, #56]	; (ffff221c <search_stop_check.constprop.0+0x94>)
ffff21e2:	4631      	mov	r1, r6
ffff21e4:	6812      	ldr	r2, [r2, #0]
ffff21e6:	f892 a035 	ldrb.w	sl, [r2, #53]	; 0x35
ffff21ea:	f892 b036 	ldrb.w	fp, [r2, #54]	; 0x36
ffff21ee:	f892 8033 	ldrb.w	r8, [r2, #51]	; 0x33
ffff21f2:	461a      	mov	r2, r3
ffff21f4:	9500      	str	r5, [sp, #0]
ffff21f6:	f7ff fee3 	bl	ffff1fc0 <rw_mgr_mem_calibrate_write_test.constprop.0>
ffff21fa:	4659      	mov	r1, fp
ffff21fc:	4650      	mov	r0, sl
ffff21fe:	f003 ed90 	blx	ffff5d20 <__aeabi_uidiv>
ffff2202:	b2c0      	uxtb	r0, r0
ffff2204:	fb06 4010 	mls	r0, r6, r0, r4
ffff2208:	fb08 f800 	mul.w	r8, r8, r0
ffff220c:	6828      	ldr	r0, [r5, #0]
ffff220e:	fa20 f008 	lsr.w	r0, r0, r8
ffff2212:	6028      	str	r0, [r5, #0]
ffff2214:	e7cb      	b.n	ffff21ae <search_stop_check.constprop.0+0x26>
ffff2216:	bf00      	nop
ffff2218:	ffff7a14 	.word	0xffff7a14
ffff221c:	ffff7a18 	.word	0xffff7a18

ffff2220 <scc_mgr_zero_group>:
ffff2220:	e92d 45f8 	stmdb	sp!, {r3, r4, r5, r6, r7, r8, sl, lr}
ffff2224:	4607      	mov	r7, r0
ffff2226:	4d39      	ldr	r5, [pc, #228]	; (ffff230c <scc_mgr_zero_group+0xec>)
ffff2228:	460c      	mov	r4, r1
ffff222a:	f04f 0800 	mov.w	r8, #0
ffff222e:	682b      	ldr	r3, [r5, #0]
ffff2230:	f893 3038 	ldrb.w	r3, [r3, #56]	; 0x38
ffff2234:	4543      	cmp	r3, r8
ffff2236:	dc50      	bgt.n	ffff22da <scc_mgr_zero_group+0xba>
ffff2238:	e8bd 85f8 	ldmia.w	sp!, {r3, r4, r5, r6, r7, r8, sl, pc}
ffff223c:	4619      	mov	r1, r3
ffff223e:	2200      	movs	r2, #0
ffff2240:	f44f 60e0 	mov.w	r0, #1792	; 0x700
ffff2244:	f7ff fbc2 	bl	ffff19cc <scc_mgr_set>
ffff2248:	b924      	cbnz	r4, ffff2254 <scc_mgr_zero_group+0x34>
ffff224a:	4619      	mov	r1, r3
ffff224c:	f44f 6010 	mov.w	r0, #2304	; 0x900
ffff2250:	f7ff fbbc 	bl	ffff19cc <scc_mgr_set>
ffff2254:	3301      	adds	r3, #1
ffff2256:	682a      	ldr	r2, [r5, #0]
ffff2258:	f892 2034 	ldrb.w	r2, [r2, #52]	; 0x34
ffff225c:	429a      	cmp	r2, r3
ffff225e:	dced      	bgt.n	ffff223c <scc_mgr_zero_group+0x1c>
ffff2260:	f3bf 8f5f 	dmb	sy
ffff2264:	4b2a      	ldr	r3, [pc, #168]	; (ffff2310 <scc_mgr_zero_group+0xf0>)
ffff2266:	22ff      	movs	r2, #255	; 0xff
ffff2268:	2600      	movs	r6, #0
ffff226a:	f8c3 2e08 	str.w	r2, [r3, #3592]	; 0xe08
ffff226e:	f8d5 a000 	ldr.w	sl, [r5]
ffff2272:	f89a 1036 	ldrb.w	r1, [sl, #54]	; 0x36
ffff2276:	f89a 0031 	ldrb.w	r0, [sl, #49]	; 0x31
ffff227a:	f003 ed52 	blx	ffff5d20 <__aeabi_uidiv>
ffff227e:	b2c0      	uxtb	r0, r0
ffff2280:	42b0      	cmp	r0, r6
ffff2282:	dc2c      	bgt.n	ffff22de <scc_mgr_zero_group+0xbe>
ffff2284:	f3bf 8f5f 	dmb	sy
ffff2288:	4b21      	ldr	r3, [pc, #132]	; (ffff2310 <scc_mgr_zero_group+0xf0>)
ffff228a:	22ff      	movs	r2, #255	; 0xff
ffff228c:	f8c3 2e0c 	str.w	r2, [r3, #3596]	; 0xe0c
ffff2290:	b93c      	cbnz	r4, ffff22a2 <scc_mgr_zero_group+0x82>
ffff2292:	682b      	ldr	r3, [r5, #0]
ffff2294:	4622      	mov	r2, r4
ffff2296:	f44f 6010 	mov.w	r0, #2304	; 0x900
ffff229a:	f893 1034 	ldrb.w	r1, [r3, #52]	; 0x34
ffff229e:	f7ff fb95 	bl	ffff19cc <scc_mgr_set>
ffff22a2:	4e1c      	ldr	r6, [pc, #112]	; (ffff2314 <scc_mgr_zero_group+0xf4>)
ffff22a4:	6833      	ldr	r3, [r6, #0]
ffff22a6:	7ad8      	ldrb	r0, [r3, #11]
ffff22a8:	f7ff fb9a 	bl	ffff19e0 <scc_mgr_set_dqs_out1_delay>
ffff22ac:	6833      	ldr	r3, [r6, #0]
ffff22ae:	4638      	mov	r0, r7
ffff22b0:	7ad9      	ldrb	r1, [r3, #11]
ffff22b2:	f7ff fbd1 	bl	ffff1a58 <scc_mgr_set_oct_out1_delay>
ffff22b6:	4638      	mov	r0, r7
ffff22b8:	f7ff fbea 	bl	ffff1a90 <scc_mgr_load_dqs_for_write_group>
ffff22bc:	f3bf 8f5f 	dmb	sy
ffff22c0:	4b13      	ldr	r3, [pc, #76]	; (ffff2310 <scc_mgr_zero_group+0xf0>)
ffff22c2:	2200      	movs	r2, #0
ffff22c4:	f8c3 2e04 	str.w	r2, [r3, #3588]	; 0xe04
ffff22c8:	f3bf 8f5f 	dmb	sy
ffff22cc:	f8c3 2e20 	str.w	r2, [r3, #3616]	; 0xe20
ffff22d0:	682b      	ldr	r3, [r5, #0]
ffff22d2:	f893 3038 	ldrb.w	r3, [r3, #56]	; 0x38
ffff22d6:	4498      	add	r8, r3
ffff22d8:	e7a9      	b.n	ffff222e <scc_mgr_zero_group+0xe>
ffff22da:	2300      	movs	r3, #0
ffff22dc:	e7bb      	b.n	ffff2256 <scc_mgr_zero_group+0x36>
ffff22de:	b944      	cbnz	r4, ffff22f2 <scc_mgr_zero_group+0xd2>
ffff22e0:	f89a 1034 	ldrb.w	r1, [sl, #52]	; 0x34
ffff22e4:	4622      	mov	r2, r4
ffff22e6:	f44f 6010 	mov.w	r0, #2304	; 0x900
ffff22ea:	3101      	adds	r1, #1
ffff22ec:	4431      	add	r1, r6
ffff22ee:	f7ff fb6d 	bl	ffff19cc <scc_mgr_set>
ffff22f2:	682b      	ldr	r3, [r5, #0]
ffff22f4:	2200      	movs	r2, #0
ffff22f6:	f44f 60e0 	mov.w	r0, #1792	; 0x700
ffff22fa:	f893 1034 	ldrb.w	r1, [r3, #52]	; 0x34
ffff22fe:	3101      	adds	r1, #1
ffff2300:	4431      	add	r1, r6
ffff2302:	3601      	adds	r6, #1
ffff2304:	f7ff fb62 	bl	ffff19cc <scc_mgr_set>
ffff2308:	e7b1      	b.n	ffff226e <scc_mgr_zero_group+0x4e>
ffff230a:	bf00      	nop
ffff230c:	ffff7a18 	.word	0xffff7a18
ffff2310:	ffc20000 	.word	0xffc20000
ffff2314:	ffff7a0c 	.word	0xffff7a0c

ffff2318 <rw_mgr_mem_calibrate_read_test_all_ranks.isra.0>:
ffff2318:	b51f      	push	{r0, r1, r2, r3, r4, lr}
ffff231a:	2301      	movs	r3, #1
ffff231c:	e9cd 2300 	strd	r2, r3, [sp]
ffff2320:	460a      	mov	r2, r1
ffff2322:	ab03      	add	r3, sp, #12
ffff2324:	4601      	mov	r1, r0
ffff2326:	2000      	movs	r0, #0
ffff2328:	f7ff fd30 	bl	ffff1d8c <rw_mgr_mem_calibrate_read_test.constprop.0>
ffff232c:	b005      	add	sp, #20
ffff232e:	f85d fb04 	ldr.w	pc, [sp], #4
	...

ffff2334 <sdr_find_phase_delay>:
ffff2334:	e92d 49f8 	stmdb	sp!, {r3, r4, r5, r6, r7, r8, fp, lr}
ffff2338:	461e      	mov	r6, r3
ffff233a:	4b18      	ldr	r3, [pc, #96]	; (ffff239c <sdr_find_phase_delay+0x68>)
ffff233c:	9f09      	ldr	r7, [sp, #36]	; 0x24
ffff233e:	4604      	mov	r4, r0
ffff2340:	4615      	mov	r5, r2
ffff2342:	4688      	mov	r8, r1
ffff2344:	681b      	ldr	r3, [r3, #0]
ffff2346:	b139      	cbz	r1, ffff2358 <sdr_find_phase_delay+0x24>
ffff2348:	f893 b006 	ldrb.w	fp, [r3, #6]
ffff234c:	6839      	ldr	r1, [r7, #0]
ffff234e:	4559      	cmp	r1, fp
ffff2350:	d905      	bls.n	ffff235e <sdr_find_phase_delay+0x2a>
ffff2352:	f06f 0415 	mvn.w	r4, #21
ffff2356:	e00f      	b.n	ffff2378 <sdr_find_phase_delay+0x44>
ffff2358:	f893 b008 	ldrb.w	fp, [r3, #8]
ffff235c:	e7f6      	b.n	ffff234c <sdr_find_phase_delay+0x18>
ffff235e:	4628      	mov	r0, r5
ffff2360:	f1b8 0f00 	cmp.w	r8, #0
ffff2364:	d00b      	beq.n	ffff237e <sdr_find_phase_delay+0x4a>
ffff2366:	f7ff fb70 	bl	ffff1a4a <scc_mgr_set_dqs_en_delay_all_ranks>
ffff236a:	2200      	movs	r2, #0
ffff236c:	4628      	mov	r0, r5
ffff236e:	4611      	mov	r1, r2
ffff2370:	f7ff ffd2 	bl	ffff2318 <rw_mgr_mem_calibrate_read_test_all_ranks.isra.0>
ffff2374:	b934      	cbnz	r4, ffff2384 <sdr_find_phase_delay+0x50>
ffff2376:	b930      	cbnz	r0, ffff2386 <sdr_find_phase_delay+0x52>
ffff2378:	4620      	mov	r0, r4
ffff237a:	e8bd 89f8 	ldmia.w	sp!, {r3, r4, r5, r6, r7, r8, fp, pc}
ffff237e:	f7ff fb5d 	bl	ffff1a3c <scc_mgr_set_dqs_en_phase_all_ranks>
ffff2382:	e7f2      	b.n	ffff236a <sdr_find_phase_delay+0x36>
ffff2384:	b940      	cbnz	r0, ffff2398 <sdr_find_phase_delay+0x64>
ffff2386:	b11e      	cbz	r6, ffff2390 <sdr_find_phase_delay+0x5c>
ffff2388:	6833      	ldr	r3, [r6, #0]
ffff238a:	9a08      	ldr	r2, [sp, #32]
ffff238c:	4413      	add	r3, r2
ffff238e:	6033      	str	r3, [r6, #0]
ffff2390:	683b      	ldr	r3, [r7, #0]
ffff2392:	3301      	adds	r3, #1
ffff2394:	603b      	str	r3, [r7, #0]
ffff2396:	e7d9      	b.n	ffff234c <sdr_find_phase_delay+0x18>
ffff2398:	2400      	movs	r4, #0
ffff239a:	e7ed      	b.n	ffff2378 <sdr_find_phase_delay+0x44>
ffff239c:	ffff7a0c 	.word	0xffff7a0c

ffff23a0 <scc_mgr_apply_group_dqs_io_and_oct_out1>:
ffff23a0:	b538      	push	{r3, r4, r5, lr}
ffff23a2:	4604      	mov	r4, r0
ffff23a4:	4608      	mov	r0, r1
ffff23a6:	460d      	mov	r5, r1
ffff23a8:	f7ff fb1a 	bl	ffff19e0 <scc_mgr_set_dqs_out1_delay>
ffff23ac:	f3bf 8f5f 	dmb	sy
ffff23b0:	4b06      	ldr	r3, [pc, #24]	; (ffff23cc <scc_mgr_apply_group_dqs_io_and_oct_out1+0x2c>)
ffff23b2:	4620      	mov	r0, r4
ffff23b4:	4629      	mov	r1, r5
ffff23b6:	2200      	movs	r2, #0
ffff23b8:	f8c3 2e04 	str.w	r2, [r3, #3588]	; 0xe04
ffff23bc:	f7ff fb4c 	bl	ffff1a58 <scc_mgr_set_oct_out1_delay>
ffff23c0:	4620      	mov	r0, r4
ffff23c2:	e8bd 4038 	ldmia.w	sp!, {r3, r4, r5, lr}
ffff23c6:	f7ff bb63 	b.w	ffff1a90 <scc_mgr_load_dqs_for_write_group>
ffff23ca:	bf00      	nop
ffff23cc:	ffc20000 	.word	0xffc20000

ffff23d0 <sdr_find_phase>:
ffff23d0:	e92d 4df3 	stmdb	sp!, {r0, r1, r4, r5, r6, r7, r8, sl, fp, lr}
ffff23d4:	461d      	mov	r5, r3
ffff23d6:	4b1a      	ldr	r3, [pc, #104]	; (ffff2440 <sdr_find_phase+0x70>)
ffff23d8:	4690      	mov	r8, r2
ffff23da:	9f0a      	ldr	r7, [sp, #40]	; 0x28
ffff23dc:	f8df a064 	ldr.w	sl, [pc, #100]	; ffff2444 <sdr_find_phase+0x74>
ffff23e0:	4604      	mov	r4, r0
ffff23e2:	460e      	mov	r6, r1
ffff23e4:	681b      	ldr	r3, [r3, #0]
ffff23e6:	7a5a      	ldrb	r2, [r3, #9]
ffff23e8:	f080 0301 	eor.w	r3, r0, #1
ffff23ec:	eb02 0b03 	add.w	fp, r2, r3
ffff23f0:	682b      	ldr	r3, [r5, #0]
ffff23f2:	455b      	cmp	r3, fp
ffff23f4:	d304      	bcc.n	ffff2400 <sdr_find_phase+0x30>
ffff23f6:	f06f 0015 	mvn.w	r0, #21
ffff23fa:	b002      	add	sp, #8
ffff23fc:	e8bd 8df0 	ldmia.w	sp!, {r4, r5, r6, r7, r8, sl, fp, pc}
ffff2400:	b10c      	cbz	r4, ffff2406 <sdr_find_phase+0x36>
ffff2402:	2300      	movs	r3, #0
ffff2404:	603b      	str	r3, [r7, #0]
ffff2406:	f8da 3000 	ldr.w	r3, [sl]
ffff240a:	4632      	mov	r2, r6
ffff240c:	9701      	str	r7, [sp, #4]
ffff240e:	4620      	mov	r0, r4
ffff2410:	2100      	movs	r1, #0
ffff2412:	881b      	ldrh	r3, [r3, #0]
ffff2414:	9300      	str	r3, [sp, #0]
ffff2416:	4643      	mov	r3, r8
ffff2418:	f7ff ff8c 	bl	ffff2334 <sdr_find_phase_delay>
ffff241c:	2800      	cmp	r0, #0
ffff241e:	d0ec      	beq.n	ffff23fa <sdr_find_phase+0x2a>
ffff2420:	f8da 3000 	ldr.w	r3, [sl]
ffff2424:	683a      	ldr	r2, [r7, #0]
ffff2426:	7a1b      	ldrb	r3, [r3, #8]
ffff2428:	429a      	cmp	r2, r3
ffff242a:	d905      	bls.n	ffff2438 <sdr_find_phase+0x68>
ffff242c:	f3bf 8f5f 	dmb	sy
ffff2430:	4b05      	ldr	r3, [pc, #20]	; (ffff2448 <sdr_find_phase+0x78>)
ffff2432:	605e      	str	r6, [r3, #4]
ffff2434:	b904      	cbnz	r4, ffff2438 <sdr_find_phase+0x68>
ffff2436:	603c      	str	r4, [r7, #0]
ffff2438:	682b      	ldr	r3, [r5, #0]
ffff243a:	3301      	adds	r3, #1
ffff243c:	602b      	str	r3, [r5, #0]
ffff243e:	e7d7      	b.n	ffff23f0 <sdr_find_phase+0x20>
ffff2440:	ffff7a10 	.word	0xffff7a10
ffff2444:	ffff7a0c 	.word	0xffff7a0c
ffff2448:	ffc21000 	.word	0xffc21000

ffff244c <scc_mgr_apply_group_dm_out1_delay>:
ffff244c:	e92d 41f0 	stmdb	sp!, {r4, r5, r6, r7, r8, lr}
ffff2450:	4606      	mov	r6, r0
ffff2452:	4f0f      	ldr	r7, [pc, #60]	; (ffff2490 <scc_mgr_apply_group_dm_out1_delay+0x44>)
ffff2454:	f8df 803c 	ldr.w	r8, [pc, #60]	; ffff2494 <scc_mgr_apply_group_dm_out1_delay+0x48>
ffff2458:	2400      	movs	r4, #0
ffff245a:	683d      	ldr	r5, [r7, #0]
ffff245c:	f895 1036 	ldrb.w	r1, [r5, #54]	; 0x36
ffff2460:	f895 0031 	ldrb.w	r0, [r5, #49]	; 0x31
ffff2464:	f003 ec5c 	blx	ffff5d20 <__aeabi_uidiv>
ffff2468:	b2c3      	uxtb	r3, r0
ffff246a:	42a3      	cmp	r3, r4
ffff246c:	d801      	bhi.n	ffff2472 <scc_mgr_apply_group_dm_out1_delay+0x26>
ffff246e:	e8bd 81f0 	ldmia.w	sp!, {r4, r5, r6, r7, r8, pc}
ffff2472:	f895 1034 	ldrb.w	r1, [r5, #52]	; 0x34
ffff2476:	4632      	mov	r2, r6
ffff2478:	f44f 60e0 	mov.w	r0, #1792	; 0x700
ffff247c:	3101      	adds	r1, #1
ffff247e:	4421      	add	r1, r4
ffff2480:	f7ff faa4 	bl	ffff19cc <scc_mgr_set>
ffff2484:	f3bf 8f5f 	dmb	sy
ffff2488:	f8c8 4e0c 	str.w	r4, [r8, #3596]	; 0xe0c
ffff248c:	3401      	adds	r4, #1
ffff248e:	e7e4      	b.n	ffff245a <scc_mgr_apply_group_dm_out1_delay+0xe>
ffff2490:	ffff7a18 	.word	0xffff7a18
ffff2494:	ffc20000 	.word	0xffc20000

ffff2498 <search_window>:
ffff2498:	e92d 4df0 	stmdb	sp!, {r4, r5, r6, r7, r8, sl, fp, lr}
ffff249c:	461d      	mov	r5, r3
ffff249e:	f8df b0c8 	ldr.w	fp, [pc, #200]	; ffff2568 <search_window+0xd0>
ffff24a2:	b086      	sub	sp, #24
ffff24a4:	4690      	mov	r8, r2
ffff24a6:	2700      	movs	r7, #0
ffff24a8:	f8db 3000 	ldr.w	r3, [fp]
ffff24ac:	f8dd a038 	ldr.w	sl, [sp, #56]	; 0x38
ffff24b0:	9002      	str	r0, [sp, #8]
ffff24b2:	7b5c      	ldrb	r4, [r3, #13]
ffff24b4:	9b12      	ldr	r3, [sp, #72]	; 0x48
ffff24b6:	9103      	str	r1, [sp, #12]
ffff24b8:	1ae4      	subs	r4, r4, r3
ffff24ba:	2c00      	cmp	r4, #0
ffff24bc:	db50      	blt.n	ffff2560 <search_window+0xc8>
ffff24be:	9b02      	ldr	r3, [sp, #8]
ffff24c0:	2b00      	cmp	r3, #0
ffff24c2:	d034      	beq.n	ffff252e <search_window+0x96>
ffff24c4:	4626      	mov	r6, r4
ffff24c6:	4620      	mov	r0, r4
ffff24c8:	f7ff ffc0 	bl	ffff244c <scc_mgr_apply_group_dm_out1_delay>
ffff24cc:	f3bf 8f5f 	dmb	sy
ffff24d0:	4a26      	ldr	r2, [pc, #152]	; (ffff256c <search_window+0xd4>)
ffff24d2:	2300      	movs	r3, #0
ffff24d4:	9803      	ldr	r0, [sp, #12]
ffff24d6:	4641      	mov	r1, r8
ffff24d8:	f8c2 3e20 	str.w	r3, [r2, #3616]	; 0xe20
ffff24dc:	ab05      	add	r3, sp, #20
ffff24de:	9300      	str	r3, [sp, #0]
ffff24e0:	2301      	movs	r3, #1
ffff24e2:	461a      	mov	r2, r3
ffff24e4:	f7ff fd6c 	bl	ffff1fc0 <rw_mgr_mem_calibrate_write_test.constprop.0>
ffff24e8:	b340      	cbz	r0, ffff253c <search_window+0xa4>
ffff24ea:	9b02      	ldr	r3, [sp, #8]
ffff24ec:	b103      	cbz	r3, ffff24f0 <search_window+0x58>
ffff24ee:	4276      	negs	r6, r6
ffff24f0:	f8db 3000 	ldr.w	r3, [fp]
ffff24f4:	f8ca 6000 	str.w	r6, [sl]
ffff24f8:	7b5b      	ldrb	r3, [r3, #13]
ffff24fa:	682a      	ldr	r2, [r5, #0]
ffff24fc:	3301      	adds	r3, #1
ffff24fe:	429a      	cmp	r2, r3
ffff2500:	bf08      	it	eq
ffff2502:	602e      	streq	r6, [r5, #0]
ffff2504:	682a      	ldr	r2, [r5, #0]
ffff2506:	f8da 3000 	ldr.w	r3, [sl]
ffff250a:	1a9b      	subs	r3, r3, r2
ffff250c:	9a11      	ldr	r2, [sp, #68]	; 0x44
ffff250e:	6812      	ldr	r2, [r2, #0]
ffff2510:	4293      	cmp	r3, r2
ffff2512:	db09      	blt.n	ffff2528 <search_window+0x90>
ffff2514:	9a11      	ldr	r2, [sp, #68]	; 0x44
ffff2516:	3301      	adds	r3, #1
ffff2518:	6013      	str	r3, [r2, #0]
ffff251a:	9a0f      	ldr	r2, [sp, #60]	; 0x3c
ffff251c:	682b      	ldr	r3, [r5, #0]
ffff251e:	6013      	str	r3, [r2, #0]
ffff2520:	9a10      	ldr	r2, [sp, #64]	; 0x40
ffff2522:	f8da 3000 	ldr.w	r3, [sl]
ffff2526:	6013      	str	r3, [r2, #0]
ffff2528:	3c01      	subs	r4, #1
ffff252a:	3701      	adds	r7, #1
ffff252c:	e7c5      	b.n	ffff24ba <search_window+0x22>
ffff252e:	9b12      	ldr	r3, [sp, #72]	; 0x48
ffff2530:	4640      	mov	r0, r8
ffff2532:	463e      	mov	r6, r7
ffff2534:	19d9      	adds	r1, r3, r7
ffff2536:	f7ff ff33 	bl	ffff23a0 <scc_mgr_apply_group_dqs_io_and_oct_out1>
ffff253a:	e7c7      	b.n	ffff24cc <search_window+0x34>
ffff253c:	f8db 3000 	ldr.w	r3, [fp]
ffff2540:	7b5b      	ldrb	r3, [r3, #13]
ffff2542:	1c5a      	adds	r2, r3, #1
ffff2544:	602a      	str	r2, [r5, #0]
ffff2546:	f8ca 2000 	str.w	r2, [sl]
ffff254a:	9a02      	ldr	r2, [sp, #8]
ffff254c:	2a00      	cmp	r2, #0
ffff254e:	d1eb      	bne.n	ffff2528 <search_window+0x90>
ffff2550:	9a11      	ldr	r2, [sp, #68]	; 0x44
ffff2552:	9912      	ldr	r1, [sp, #72]	; 0x48
ffff2554:	6812      	ldr	r2, [r2, #0]
ffff2556:	1a5b      	subs	r3, r3, r1
ffff2558:	1b9e      	subs	r6, r3, r6
ffff255a:	3a01      	subs	r2, #1
ffff255c:	42b2      	cmp	r2, r6
ffff255e:	dde3      	ble.n	ffff2528 <search_window+0x90>
ffff2560:	b006      	add	sp, #24
ffff2562:	e8bd 8df0 	ldmia.w	sp!, {r4, r5, r6, r7, r8, sl, fp, pc}
ffff2566:	bf00      	nop
ffff2568:	ffff7a0c 	.word	0xffff7a0c
ffff256c:	ffc20000 	.word	0xffc20000

ffff2570 <scc_mgr_apply_group_dq_out1_delay>:
ffff2570:	b538      	push	{r3, r4, r5, lr}
ffff2572:	4602      	mov	r2, r0
ffff2574:	4c09      	ldr	r4, [pc, #36]	; (ffff259c <scc_mgr_apply_group_dq_out1_delay+0x2c>)
ffff2576:	4d0a      	ldr	r5, [pc, #40]	; (ffff25a0 <scc_mgr_apply_group_dq_out1_delay+0x30>)
ffff2578:	2300      	movs	r3, #0
ffff257a:	6821      	ldr	r1, [r4, #0]
ffff257c:	f891 1034 	ldrb.w	r1, [r1, #52]	; 0x34
ffff2580:	4299      	cmp	r1, r3
ffff2582:	dc00      	bgt.n	ffff2586 <scc_mgr_apply_group_dq_out1_delay+0x16>
ffff2584:	bd38      	pop	{r3, r4, r5, pc}
ffff2586:	4619      	mov	r1, r3
ffff2588:	f44f 60e0 	mov.w	r0, #1792	; 0x700
ffff258c:	f7ff fa1e 	bl	ffff19cc <scc_mgr_set>
ffff2590:	f3bf 8f5f 	dmb	sy
ffff2594:	f8c5 3e08 	str.w	r3, [r5, #3592]	; 0xe08
ffff2598:	3301      	adds	r3, #1
ffff259a:	e7ee      	b.n	ffff257a <scc_mgr_apply_group_dq_out1_delay+0xa>
ffff259c:	ffff7a18 	.word	0xffff7a18
ffff25a0:	ffc20000 	.word	0xffc20000

ffff25a4 <center_dq_windows>:
ffff25a4:	e92d 4df0 	stmdb	sp!, {r4, r5, r6, r7, r8, sl, fp, lr}
ffff25a8:	4d3b      	ldr	r5, [pc, #236]	; (ffff2698 <center_dq_windows+0xf4>)
ffff25aa:	b086      	sub	sp, #24
ffff25ac:	682e      	ldr	r6, [r5, #0]
ffff25ae:	4d3b      	ldr	r5, [pc, #236]	; (ffff269c <center_dq_windows+0xf8>)
ffff25b0:	9c0f      	ldr	r4, [sp, #60]	; 0x3c
ffff25b2:	9001      	str	r0, [sp, #4]
ffff25b4:	682d      	ldr	r5, [r5, #0]
ffff25b6:	b308      	cbz	r0, ffff25fc <center_dq_windows+0x58>
ffff25b8:	f896 800d 	ldrb.w	r8, [r6, #13]
ffff25bc:	f44f 60e0 	mov.w	r0, #1792	; 0x700
ffff25c0:	f895 a034 	ldrb.w	sl, [r5, #52]	; 0x34
ffff25c4:	9d12      	ldr	r5, [sp, #72]	; 0x48
ffff25c6:	f040 407f 	orr.w	r0, r0, #4278190080	; 0xff000000
ffff25ca:	f440 0042 	orr.w	r0, r0, #12713984	; 0xc20000
ffff25ce:	9002      	str	r0, [sp, #8]
ffff25d0:	f108 0001 	add.w	r0, r8, #1
ffff25d4:	1f16      	subs	r6, r2, #4
ffff25d6:	6028      	str	r0, [r5, #0]
ffff25d8:	2700      	movs	r7, #0
ffff25da:	9d11      	ldr	r5, [sp, #68]	; 0x44
ffff25dc:	6028      	str	r0, [r5, #0]
ffff25de:	eb01 0084 	add.w	r0, r1, r4, lsl #2
ffff25e2:	9003      	str	r0, [sp, #12]
ffff25e4:	eb02 0084 	add.w	r0, r2, r4, lsl #2
ffff25e8:	9a0e      	ldr	r2, [sp, #56]	; 0x38
ffff25ea:	1f0d      	subs	r5, r1, #4
ffff25ec:	9004      	str	r0, [sp, #16]
ffff25ee:	1ad2      	subs	r2, r2, r3
ffff25f0:	9205      	str	r2, [sp, #20]
ffff25f2:	4557      	cmp	r7, sl
ffff25f4:	d109      	bne.n	ffff260a <center_dq_windows+0x66>
ffff25f6:	b006      	add	sp, #24
ffff25f8:	e8bd 8df0 	ldmia.w	sp!, {r4, r5, r6, r7, r8, sl, fp, pc}
ffff25fc:	f896 800c 	ldrb.w	r8, [r6, #12]
ffff2600:	f44f 6010 	mov.w	r0, #2304	; 0x900
ffff2604:	f895 a033 	ldrb.w	sl, [r5, #51]	; 0x33
ffff2608:	e7dc      	b.n	ffff25c4 <center_dq_windows+0x20>
ffff260a:	6872      	ldr	r2, [r6, #4]
ffff260c:	686c      	ldr	r4, [r5, #4]
ffff260e:	9904      	ldr	r1, [sp, #16]
ffff2610:	1aa4      	subs	r4, r4, r2
ffff2612:	9a03      	ldr	r2, [sp, #12]
ffff2614:	6809      	ldr	r1, [r1, #0]
ffff2616:	6812      	ldr	r2, [r2, #0]
ffff2618:	1a52      	subs	r2, r2, r1
ffff261a:	1aa4      	subs	r4, r4, r2
ffff261c:	9a05      	ldr	r2, [sp, #20]
ffff261e:	eb04 74d4 	add.w	r4, r4, r4, lsr #31
ffff2622:	eb02 0464 	add.w	r4, r2, r4, asr #1
ffff2626:	9a02      	ldr	r2, [sp, #8]
ffff2628:	f852 2027 	ldr.w	r2, [r2, r7, lsl #2]
ffff262c:	f3bf 8f5f 	dmb	sy
ffff2630:	18a1      	adds	r1, r4, r2
ffff2632:	4541      	cmp	r1, r8
ffff2634:	dd27      	ble.n	ffff2686 <center_dq_windows+0xe2>
ffff2636:	eba8 0402 	sub.w	r4, r8, r2
ffff263a:	9910      	ldr	r1, [sp, #64]	; 0x40
ffff263c:	4422      	add	r2, r4
ffff263e:	eb01 0b07 	add.w	fp, r1, r7
ffff2642:	9901      	ldr	r1, [sp, #4]
ffff2644:	b319      	cbz	r1, ffff268e <center_dq_windows+0xea>
ffff2646:	4639      	mov	r1, r7
ffff2648:	f44f 60e0 	mov.w	r0, #1792	; 0x700
ffff264c:	f7ff f9be 	bl	ffff19cc <scc_mgr_set>
ffff2650:	f3bf 8f5f 	dmb	sy
ffff2654:	4a12      	ldr	r2, [pc, #72]	; (ffff26a0 <center_dq_windows+0xfc>)
ffff2656:	3701      	adds	r7, #1
ffff2658:	9911      	ldr	r1, [sp, #68]	; 0x44
ffff265a:	f8c2 be08 	str.w	fp, [r2, #3592]	; 0xe08
ffff265e:	f855 2f04 	ldr.w	r2, [r5, #4]!
ffff2662:	6809      	ldr	r1, [r1, #0]
ffff2664:	1b12      	subs	r2, r2, r4
ffff2666:	1ad2      	subs	r2, r2, r3
ffff2668:	428a      	cmp	r2, r1
ffff266a:	bfbc      	itt	lt
ffff266c:	9911      	ldrlt	r1, [sp, #68]	; 0x44
ffff266e:	600a      	strlt	r2, [r1, #0]
ffff2670:	f856 2f04 	ldr.w	r2, [r6, #4]!
ffff2674:	4414      	add	r4, r2
ffff2676:	9a12      	ldr	r2, [sp, #72]	; 0x48
ffff2678:	441c      	add	r4, r3
ffff267a:	6812      	ldr	r2, [r2, #0]
ffff267c:	4294      	cmp	r4, r2
ffff267e:	bfbc      	itt	lt
ffff2680:	9a12      	ldrlt	r2, [sp, #72]	; 0x48
ffff2682:	6014      	strlt	r4, [r2, #0]
ffff2684:	e7b5      	b.n	ffff25f2 <center_dq_windows+0x4e>
ffff2686:	2900      	cmp	r1, #0
ffff2688:	bfb8      	it	lt
ffff268a:	4254      	neglt	r4, r2
ffff268c:	e7d5      	b.n	ffff263a <center_dq_windows+0x96>
ffff268e:	4659      	mov	r1, fp
ffff2690:	f44f 6010 	mov.w	r0, #2304	; 0x900
ffff2694:	e7da      	b.n	ffff264c <center_dq_windows+0xa8>
ffff2696:	bf00      	nop
ffff2698:	ffff7a0c 	.word	0xffff7a0c
ffff269c:	ffff7a18 	.word	0xffff7a18
ffff26a0:	ffc20000 	.word	0xffc20000

ffff26a4 <scc_mgr_apply_group_dq_in_delay>:
ffff26a4:	b5f8      	push	{r3, r4, r5, r6, r7, lr}
ffff26a6:	460a      	mov	r2, r1
ffff26a8:	4e0a      	ldr	r6, [pc, #40]	; (ffff26d4 <scc_mgr_apply_group_dq_in_delay+0x30>)
ffff26aa:	4f0b      	ldr	r7, [pc, #44]	; (ffff26d8 <scc_mgr_apply_group_dq_in_delay+0x34>)
ffff26ac:	4604      	mov	r4, r0
ffff26ae:	2300      	movs	r3, #0
ffff26b0:	6831      	ldr	r1, [r6, #0]
ffff26b2:	191d      	adds	r5, r3, r4
ffff26b4:	f891 1033 	ldrb.w	r1, [r1, #51]	; 0x33
ffff26b8:	4299      	cmp	r1, r3
ffff26ba:	d800      	bhi.n	ffff26be <scc_mgr_apply_group_dq_in_delay+0x1a>
ffff26bc:	bdf8      	pop	{r3, r4, r5, r6, r7, pc}
ffff26be:	4629      	mov	r1, r5
ffff26c0:	f44f 6010 	mov.w	r0, #2304	; 0x900
ffff26c4:	f7ff f982 	bl	ffff19cc <scc_mgr_set>
ffff26c8:	f3bf 8f5f 	dmb	sy
ffff26cc:	3301      	adds	r3, #1
ffff26ce:	f8c7 5e08 	str.w	r5, [r7, #3592]	; 0xe08
ffff26d2:	e7ed      	b.n	ffff26b0 <scc_mgr_apply_group_dq_in_delay+0xc>
ffff26d4:	ffff7a18 	.word	0xffff7a18
ffff26d8:	ffc20000 	.word	0xffc20000

ffff26dc <search_left_edge.constprop.0>:
ffff26dc:	e92d 4df0 	stmdb	sp!, {r4, r5, r6, r7, r8, sl, fp, lr}
ffff26e0:	4606      	mov	r6, r0
ffff26e2:	b08a      	sub	sp, #40	; 0x28
ffff26e4:	9206      	str	r2, [sp, #24]
ffff26e6:	9307      	str	r3, [sp, #28]
ffff26e8:	4a43      	ldr	r2, [pc, #268]	; (ffff27f8 <search_left_edge.constprop.0+0x11c>)
ffff26ea:	4b44      	ldr	r3, [pc, #272]	; (ffff27fc <search_left_edge.constprop.0+0x120>)
ffff26ec:	f8dd 804c 	ldr.w	r8, [sp, #76]	; 0x4c
ffff26f0:	f8dd a050 	ldr.w	sl, [sp, #80]	; 0x50
ffff26f4:	6812      	ldr	r2, [r2, #0]
ffff26f6:	681b      	ldr	r3, [r3, #0]
ffff26f8:	9105      	str	r1, [sp, #20]
ffff26fa:	b318      	cbz	r0, ffff2744 <search_left_edge.constprop.0+0x68>
ffff26fc:	7b5c      	ldrb	r4, [r3, #13]
ffff26fe:	f892 5034 	ldrb.w	r5, [r2, #52]	; 0x34
ffff2702:	46a3      	mov	fp, r4
ffff2704:	2700      	movs	r7, #0
ffff2706:	455f      	cmp	r7, fp
ffff2708:	d816      	bhi.n	ffff2738 <search_left_edge.constprop.0+0x5c>
ffff270a:	b30e      	cbz	r6, ffff2750 <search_left_edge.constprop.0+0x74>
ffff270c:	4638      	mov	r0, r7
ffff270e:	f7ff ff2f 	bl	ffff2570 <scc_mgr_apply_group_dq_out1_delay>
ffff2712:	f3bf 8f5f 	dmb	sy
ffff2716:	4b3a      	ldr	r3, [pc, #232]	; (ffff2800 <search_left_edge.constprop.0+0x124>)
ffff2718:	2200      	movs	r2, #0
ffff271a:	a905      	add	r1, sp, #20
ffff271c:	4630      	mov	r0, r6
ffff271e:	f8c3 2e20 	str.w	r2, [r3, #3616]	; 0xe20
ffff2722:	9b16      	ldr	r3, [sp, #88]	; 0x58
ffff2724:	9302      	str	r3, [sp, #8]
ffff2726:	ab09      	add	r3, sp, #36	; 0x24
ffff2728:	f8cd 8004 	str.w	r8, [sp, #4]
ffff272c:	9300      	str	r3, [sp, #0]
ffff272e:	c90e      	ldmia	r1, {r1, r2, r3}
ffff2730:	f7ff fd2a 	bl	ffff2188 <search_stop_check.constprop.0>
ffff2734:	2801      	cmp	r0, #1
ffff2736:	d110      	bne.n	ffff275a <search_left_edge.constprop.0+0x7e>
ffff2738:	bb5e      	cbnz	r6, ffff2792 <search_left_edge.constprop.0+0xb6>
ffff273a:	9812      	ldr	r0, [sp, #72]	; 0x48
ffff273c:	4631      	mov	r1, r6
ffff273e:	f7ff ffb1 	bl	ffff26a4 <scc_mgr_apply_group_dq_in_delay>
ffff2742:	e029      	b.n	ffff2798 <search_left_edge.constprop.0+0xbc>
ffff2744:	7b1c      	ldrb	r4, [r3, #12]
ffff2746:	f893 b009 	ldrb.w	fp, [r3, #9]
ffff274a:	f892 5033 	ldrb.w	r5, [r2, #51]	; 0x33
ffff274e:	e7d9      	b.n	ffff2704 <search_left_edge.constprop.0+0x28>
ffff2750:	9812      	ldr	r0, [sp, #72]	; 0x48
ffff2752:	4639      	mov	r1, r7
ffff2754:	f7ff ffa6 	bl	ffff26a4 <scc_mgr_apply_group_dq_in_delay>
ffff2758:	e7db      	b.n	ffff2712 <search_left_edge.constprop.0+0x36>
ffff275a:	9a09      	ldr	r2, [sp, #36]	; 0x24
ffff275c:	2100      	movs	r1, #0
ffff275e:	1c60      	adds	r0, r4, #1
ffff2760:	460b      	mov	r3, r1
ffff2762:	ea6f 0c07 	mvn.w	ip, r7
ffff2766:	42ab      	cmp	r3, r5
ffff2768:	d103      	bne.n	ffff2772 <search_left_edge.constprop.0+0x96>
ffff276a:	b101      	cbz	r1, ffff276e <search_left_edge.constprop.0+0x92>
ffff276c:	9209      	str	r2, [sp, #36]	; 0x24
ffff276e:	3701      	adds	r7, #1
ffff2770:	e7c9      	b.n	ffff2706 <search_left_edge.constprop.0+0x2a>
ffff2772:	07d1      	lsls	r1, r2, #31
ffff2774:	d505      	bpl.n	ffff2782 <search_left_edge.constprop.0+0xa6>
ffff2776:	f84a 7023 	str.w	r7, [sl, r3, lsl #2]
ffff277a:	0852      	lsrs	r2, r2, #1
ffff277c:	3301      	adds	r3, #1
ffff277e:	2101      	movs	r1, #1
ffff2780:	e7f1      	b.n	ffff2766 <search_left_edge.constprop.0+0x8a>
ffff2782:	f85a 1023 	ldr.w	r1, [sl, r3, lsl #2]
ffff2786:	4281      	cmp	r1, r0
ffff2788:	bf04      	itt	eq
ffff278a:	9915      	ldreq	r1, [sp, #84]	; 0x54
ffff278c:	f841 c023 	streq.w	ip, [r1, r3, lsl #2]
ffff2790:	e7f3      	b.n	ffff277a <search_left_edge.constprop.0+0x9e>
ffff2792:	2000      	movs	r0, #0
ffff2794:	f7ff feec 	bl	ffff2570 <scc_mgr_apply_group_dq_out1_delay>
ffff2798:	2300      	movs	r3, #0
ffff279a:	f8c8 3000 	str.w	r3, [r8]
ffff279e:	9b15      	ldr	r3, [sp, #84]	; 0x54
ffff27a0:	3401      	adds	r4, #1
ffff27a2:	eb03 0285 	add.w	r2, r3, r5, lsl #2
ffff27a6:	eb0a 0585 	add.w	r5, sl, r5, lsl #2
ffff27aa:	9b15      	ldr	r3, [sp, #84]	; 0x54
ffff27ac:	4293      	cmp	r3, r2
ffff27ae:	d102      	bne.n	ffff27b6 <search_left_edge.constprop.0+0xda>
ffff27b0:	b00a      	add	sp, #40	; 0x28
ffff27b2:	e8bd 8df0 	ldmia.w	sp!, {r4, r5, r6, r7, r8, sl, fp, pc}
ffff27b6:	f855 3c04 	ldr.w	r3, [r5, #-4]
ffff27ba:	42a3      	cmp	r3, r4
ffff27bc:	d105      	bne.n	ffff27ca <search_left_edge.constprop.0+0xee>
ffff27be:	f852 3c04 	ldr.w	r3, [r2, #-4]
ffff27c2:	429c      	cmp	r4, r3
ffff27c4:	bf18      	it	ne
ffff27c6:	f842 4c04 	strne.w	r4, [r2, #-4]
ffff27ca:	f8d8 3000 	ldr.w	r3, [r8]
ffff27ce:	005b      	lsls	r3, r3, #1
ffff27d0:	f8c8 3000 	str.w	r3, [r8]
ffff27d4:	f855 1c04 	ldr.w	r1, [r5, #-4]
ffff27d8:	b146      	cbz	r6, ffff27ec <search_left_edge.constprop.0+0x110>
ffff27da:	428c      	cmp	r4, r1
ffff27dc:	bf1c      	itt	ne
ffff27de:	f043 0301 	orrne.w	r3, r3, #1
ffff27e2:	f8c8 3000 	strne.w	r3, [r8]
ffff27e6:	3a04      	subs	r2, #4
ffff27e8:	3d04      	subs	r5, #4
ffff27ea:	e7de      	b.n	ffff27aa <search_left_edge.constprop.0+0xce>
ffff27ec:	428c      	cmp	r4, r1
ffff27ee:	d0fa      	beq.n	ffff27e6 <search_left_edge.constprop.0+0x10a>
ffff27f0:	f852 1c04 	ldr.w	r1, [r2, #-4]
ffff27f4:	e7f1      	b.n	ffff27da <search_left_edge.constprop.0+0xfe>
ffff27f6:	bf00      	nop
ffff27f8:	ffff7a18 	.word	0xffff7a18
ffff27fc:	ffff7a0c 	.word	0xffff7a0c
ffff2800:	ffc20000 	.word	0xffc20000

ffff2804 <search_right_edge>:
ffff2804:	e92d 4df0 	stmdb	sp!, {r4, r5, r6, r7, r8, sl, fp, lr}
ffff2808:	4693      	mov	fp, r2
ffff280a:	4698      	mov	r8, r3
ffff280c:	4a57      	ldr	r2, [pc, #348]	; (ffff296c <search_right_edge+0x168>)
ffff280e:	b08a      	sub	sp, #40	; 0x28
ffff2810:	4b57      	ldr	r3, [pc, #348]	; (ffff2970 <search_right_edge+0x16c>)
ffff2812:	4607      	mov	r7, r0
ffff2814:	9d16      	ldr	r5, [sp, #88]	; 0x58
ffff2816:	6812      	ldr	r2, [r2, #0]
ffff2818:	681b      	ldr	r3, [r3, #0]
ffff281a:	9107      	str	r1, [sp, #28]
ffff281c:	2800      	cmp	r0, #0
ffff281e:	d03b      	beq.n	ffff2898 <search_right_edge+0x94>
ffff2820:	7b5e      	ldrb	r6, [r3, #13]
ffff2822:	f892 3034 	ldrb.w	r3, [r2, #52]	; 0x34
ffff2826:	9304      	str	r3, [sp, #16]
ffff2828:	9605      	str	r6, [sp, #20]
ffff282a:	9b04      	ldr	r3, [sp, #16]
ffff282c:	2400      	movs	r4, #0
ffff282e:	eb05 0383 	add.w	r3, r5, r3, lsl #2
ffff2832:	9306      	str	r3, [sp, #24]
ffff2834:	9b12      	ldr	r3, [sp, #72]	; 0x48
ffff2836:	191a      	adds	r2, r3, r4
ffff2838:	2f00      	cmp	r7, #0
ffff283a:	d034      	beq.n	ffff28a6 <search_right_edge+0xa2>
ffff283c:	4611      	mov	r1, r2
ffff283e:	4658      	mov	r0, fp
ffff2840:	f7ff fdae 	bl	ffff23a0 <scc_mgr_apply_group_dqs_io_and_oct_out1>
ffff2844:	f3bf 8f5f 	dmb	sy
ffff2848:	4b4a      	ldr	r3, [pc, #296]	; (ffff2974 <search_right_edge+0x170>)
ffff284a:	f04f 0a00 	mov.w	sl, #0
ffff284e:	9907      	ldr	r1, [sp, #28]
ffff2850:	465a      	mov	r2, fp
ffff2852:	4638      	mov	r0, r7
ffff2854:	f8c3 ae20 	str.w	sl, [r3, #3616]	; 0xe20
ffff2858:	9b17      	ldr	r3, [sp, #92]	; 0x5c
ffff285a:	9302      	str	r3, [sp, #8]
ffff285c:	9b14      	ldr	r3, [sp, #80]	; 0x50
ffff285e:	9301      	str	r3, [sp, #4]
ffff2860:	ab09      	add	r3, sp, #36	; 0x24
ffff2862:	9300      	str	r3, [sp, #0]
ffff2864:	4643      	mov	r3, r8
ffff2866:	f7ff fc8f 	bl	ffff2188 <search_stop_check.constprop.0>
ffff286a:	2801      	cmp	r0, #1
ffff286c:	d035      	beq.n	ffff28da <search_right_edge+0xd6>
ffff286e:	9909      	ldr	r1, [sp, #36]	; 0x24
ffff2870:	4650      	mov	r0, sl
ffff2872:	9a15      	ldr	r2, [sp, #84]	; 0x54
ffff2874:	462b      	mov	r3, r5
ffff2876:	f106 0c01 	add.w	ip, r6, #1
ffff287a:	ea6f 0a04 	mvn.w	sl, r4
ffff287e:	f8dd e018 	ldr.w	lr, [sp, #24]
ffff2882:	459e      	cmp	lr, r3
ffff2884:	d14b      	bne.n	ffff291e <search_right_edge+0x11a>
ffff2886:	b100      	cbz	r0, ffff288a <search_right_edge+0x86>
ffff2888:	9109      	str	r1, [sp, #36]	; 0x24
ffff288a:	9b05      	ldr	r3, [sp, #20]
ffff288c:	3401      	adds	r4, #1
ffff288e:	9a12      	ldr	r2, [sp, #72]	; 0x48
ffff2890:	1a9b      	subs	r3, r3, r2
ffff2892:	429c      	cmp	r4, r3
ffff2894:	d9ce      	bls.n	ffff2834 <search_right_edge+0x30>
ffff2896:	e021      	b.n	ffff28dc <search_right_edge+0xd8>
ffff2898:	7b1e      	ldrb	r6, [r3, #12]
ffff289a:	7a5b      	ldrb	r3, [r3, #9]
ffff289c:	9305      	str	r3, [sp, #20]
ffff289e:	f892 3033 	ldrb.w	r3, [r2, #51]	; 0x33
ffff28a2:	9304      	str	r3, [sp, #16]
ffff28a4:	e7c1      	b.n	ffff282a <search_right_edge+0x26>
ffff28a6:	4b32      	ldr	r3, [pc, #200]	; (ffff2970 <search_right_edge+0x16c>)
ffff28a8:	4641      	mov	r1, r8
ffff28aa:	f44f 7080 	mov.w	r0, #256	; 0x100
ffff28ae:	f7ff f88d 	bl	ffff19cc <scc_mgr_set>
ffff28b2:	681b      	ldr	r3, [r3, #0]
ffff28b4:	7bda      	ldrb	r2, [r3, #15]
ffff28b6:	b152      	cbz	r2, ffff28ce <search_right_edge+0xca>
ffff28b8:	799a      	ldrb	r2, [r3, #6]
ffff28ba:	4641      	mov	r1, r8
ffff28bc:	9b13      	ldr	r3, [sp, #76]	; 0x4c
ffff28be:	f44f 7040 	mov.w	r0, #768	; 0x300
ffff28c2:	4423      	add	r3, r4
ffff28c4:	429a      	cmp	r2, r3
ffff28c6:	bf28      	it	cs
ffff28c8:	461a      	movcs	r2, r3
ffff28ca:	f7ff f87f 	bl	ffff19cc <scc_mgr_set>
ffff28ce:	f3bf 8f5f 	dmb	sy
ffff28d2:	4b28      	ldr	r3, [pc, #160]	; (ffff2974 <search_right_edge+0x170>)
ffff28d4:	f8c3 8e00 	str.w	r8, [r3, #3584]	; 0xe00
ffff28d8:	e7b4      	b.n	ffff2844 <search_right_edge+0x40>
ffff28da:	b947      	cbnz	r7, ffff28ee <search_right_edge+0xea>
ffff28dc:	9b05      	ldr	r3, [sp, #20]
ffff28de:	3d04      	subs	r5, #4
ffff28e0:	2000      	movs	r0, #0
ffff28e2:	3301      	adds	r3, #1
ffff28e4:	9a04      	ldr	r2, [sp, #16]
ffff28e6:	4282      	cmp	r2, r0
ffff28e8:	d132      	bne.n	ffff2950 <search_right_edge+0x14c>
ffff28ea:	2000      	movs	r0, #0
ffff28ec:	e03a      	b.n	ffff2964 <search_right_edge+0x160>
ffff28ee:	2c00      	cmp	r4, #0
ffff28f0:	d1f4      	bne.n	ffff28dc <search_right_edge+0xd8>
ffff28f2:	4b1e      	ldr	r3, [pc, #120]	; (ffff296c <search_right_edge+0x168>)
ffff28f4:	3601      	adds	r6, #1
ffff28f6:	f04f 32ff 	mov.w	r2, #4294967295
ffff28fa:	681b      	ldr	r3, [r3, #0]
ffff28fc:	f893 3034 	ldrb.w	r3, [r3, #52]	; 0x34
ffff2900:	42a3      	cmp	r3, r4
ffff2902:	ddeb      	ble.n	ffff28dc <search_right_edge+0xd8>
ffff2904:	f855 1024 	ldr.w	r1, [r5, r4, lsl #2]
ffff2908:	42b1      	cmp	r1, r6
ffff290a:	d106      	bne.n	ffff291a <search_right_edge+0x116>
ffff290c:	9915      	ldr	r1, [sp, #84]	; 0x54
ffff290e:	f851 1024 	ldr.w	r1, [r1, r4, lsl #2]
ffff2912:	428e      	cmp	r6, r1
ffff2914:	bf18      	it	ne
ffff2916:	f845 2024 	strne.w	r2, [r5, r4, lsl #2]
ffff291a:	3401      	adds	r4, #1
ffff291c:	e7f0      	b.n	ffff2900 <search_right_edge+0xfc>
ffff291e:	07c8      	lsls	r0, r1, #31
ffff2920:	d505      	bpl.n	ffff292e <search_right_edge+0x12a>
ffff2922:	601c      	str	r4, [r3, #0]
ffff2924:	0849      	lsrs	r1, r1, #1
ffff2926:	3304      	adds	r3, #4
ffff2928:	3204      	adds	r2, #4
ffff292a:	2001      	movs	r0, #1
ffff292c:	e7a7      	b.n	ffff287e <search_right_edge+0x7a>
ffff292e:	6818      	ldr	r0, [r3, #0]
ffff2930:	b124      	cbz	r4, ffff293c <search_right_edge+0x138>
ffff2932:	4584      	cmp	ip, r0
ffff2934:	d1f6      	bne.n	ffff2924 <search_right_edge+0x120>
ffff2936:	f8c2 a000 	str.w	sl, [r2]
ffff293a:	e7f3      	b.n	ffff2924 <search_right_edge+0x120>
ffff293c:	4584      	cmp	ip, r0
ffff293e:	d1f1      	bne.n	ffff2924 <search_right_edge+0x120>
ffff2940:	6810      	ldr	r0, [r2, #0]
ffff2942:	4560      	cmp	r0, ip
ffff2944:	f04f 30ff 	mov.w	r0, #4294967295
ffff2948:	bf14      	ite	ne
ffff294a:	6018      	strne	r0, [r3, #0]
ffff294c:	6010      	streq	r0, [r2, #0]
ffff294e:	e7e9      	b.n	ffff2924 <search_right_edge+0x120>
ffff2950:	9a15      	ldr	r2, [sp, #84]	; 0x54
ffff2952:	f852 2020 	ldr.w	r2, [r2, r0, lsl #2]
ffff2956:	3001      	adds	r0, #1
ffff2958:	429a      	cmp	r2, r3
ffff295a:	d003      	beq.n	ffff2964 <search_right_edge+0x160>
ffff295c:	f855 2f04 	ldr.w	r2, [r5, #4]!
ffff2960:	4293      	cmp	r3, r2
ffff2962:	d1bf      	bne.n	ffff28e4 <search_right_edge+0xe0>
ffff2964:	b00a      	add	sp, #40	; 0x28
ffff2966:	e8bd 8df0 	ldmia.w	sp!, {r4, r5, r6, r7, r8, sl, fp, pc}
ffff296a:	bf00      	nop
ffff296c:	ffff7a18 	.word	0xffff7a18
ffff2970:	ffff7a0c 	.word	0xffff7a0c
ffff2974:	ffc20000 	.word	0xffc20000

ffff2978 <rw_mgr_mem_calibrate_dq_dqs_centering.isra.0>:
ffff2978:	e92d 4df0 	stmdb	sp!, {r4, r5, r6, r7, r8, sl, fp, lr}
ffff297c:	0083      	lsls	r3, r0, #2
ffff297e:	4d97      	ldr	r5, [pc, #604]	; (ffff2bdc <rw_mgr_mem_calibrate_dq_dqs_centering.isra.0+0x264>)
ffff2980:	b092      	sub	sp, #72	; 0x48
ffff2982:	af06      	add	r7, sp, #24
ffff2984:	f5a3 1377 	sub.w	r3, r3, #4046848	; 0x3dc000
ffff2988:	4604      	mov	r4, r0
ffff298a:	f5a3 537c 	sub.w	r3, r3, #16128	; 0x3f00
ffff298e:	6039      	str	r1, [r7, #0]
ffff2990:	613b      	str	r3, [r7, #16]
ffff2992:	2300      	movs	r3, #0
ffff2994:	60fa      	str	r2, [r7, #12]
ffff2996:	61bb      	str	r3, [r7, #24]
ffff2998:	2301      	movs	r3, #1
ffff299a:	60bb      	str	r3, [r7, #8]
ffff299c:	682b      	ldr	r3, [r5, #0]
ffff299e:	69b9      	ldr	r1, [r7, #24]
ffff29a0:	f893 2038 	ldrb.w	r2, [r3, #56]	; 0x38
ffff29a4:	4291      	cmp	r1, r2
ffff29a6:	d309      	bcc.n	ffff29bc <rw_mgr_mem_calibrate_dq_dqs_centering.isra.0+0x44>
ffff29a8:	68bb      	ldr	r3, [r7, #8]
ffff29aa:	3730      	adds	r7, #48	; 0x30
ffff29ac:	2b00      	cmp	r3, #0
ffff29ae:	bf0c      	ite	eq
ffff29b0:	f06f 0004 	mvneq.w	r0, #4
ffff29b4:	2000      	movne	r0, #0
ffff29b6:	46bd      	mov	sp, r7
ffff29b8:	e8bd 8df0 	ldmia.w	sp!, {r4, r5, r6, r7, r8, sl, fp, pc}
ffff29bc:	f893 3033 	ldrb.w	r3, [r3, #51]	; 0x33
ffff29c0:	46eb      	mov	fp, sp
ffff29c2:	009b      	lsls	r3, r3, #2
ffff29c4:	3307      	adds	r3, #7
ffff29c6:	f403 63ff 	and.w	r3, r3, #2040	; 0x7f8
ffff29ca:	ebad 0d03 	sub.w	sp, sp, r3
ffff29ce:	f10d 0818 	add.w	r8, sp, #24
ffff29d2:	ebad 0d03 	sub.w	sp, sp, r3
ffff29d6:	693b      	ldr	r3, [r7, #16]
ffff29d8:	f10d 0a18 	add.w	sl, sp, #24
ffff29dc:	681b      	ldr	r3, [r3, #0]
ffff29de:	617b      	str	r3, [r7, #20]
ffff29e0:	f3bf 8f5f 	dmb	sy
ffff29e4:	4a7e      	ldr	r2, [pc, #504]	; (ffff2be0 <rw_mgr_mem_calibrate_dq_dqs_centering.isra.0+0x268>)
ffff29e6:	6811      	ldr	r1, [r2, #0]
ffff29e8:	7bcb      	ldrb	r3, [r1, #15]
ffff29ea:	b12b      	cbz	r3, ffff29f8 <rw_mgr_mem_calibrate_dq_dqs_centering.isra.0+0x80>
ffff29ec:	79cb      	ldrb	r3, [r1, #7]
ffff29ee:	6939      	ldr	r1, [r7, #16]
ffff29f0:	1acb      	subs	r3, r1, r3
ffff29f2:	681b      	ldr	r3, [r3, #0]
ffff29f4:	f3bf 8f5f 	dmb	sy
ffff29f8:	6829      	ldr	r1, [r5, #0]
ffff29fa:	61fb      	str	r3, [r7, #28]
ffff29fc:	2300      	movs	r3, #0
ffff29fe:	627b      	str	r3, [r7, #36]	; 0x24
ffff2a00:	f891 1033 	ldrb.w	r1, [r1, #51]	; 0x33
ffff2a04:	6079      	str	r1, [r7, #4]
ffff2a06:	6811      	ldr	r1, [r2, #0]
ffff2a08:	687a      	ldr	r2, [r7, #4]
ffff2a0a:	4293      	cmp	r3, r2
ffff2a0c:	db4c      	blt.n	ffff2aa8 <rw_mgr_mem_calibrate_dq_dqs_centering.isra.0+0x130>
ffff2a0e:	68fb      	ldr	r3, [r7, #12]
ffff2a10:	f107 0624 	add.w	r6, r7, #36	; 0x24
ffff2a14:	9304      	str	r3, [sp, #16]
ffff2a16:	4622      	mov	r2, r4
ffff2a18:	9601      	str	r6, [sp, #4]
ffff2a1a:	2000      	movs	r0, #0
ffff2a1c:	f8cd a00c 	str.w	sl, [sp, #12]
ffff2a20:	f8cd 8008 	str.w	r8, [sp, #8]
ffff2a24:	683b      	ldr	r3, [r7, #0]
ffff2a26:	9300      	str	r3, [sp, #0]
ffff2a28:	4623      	mov	r3, r4
ffff2a2a:	69b9      	ldr	r1, [r7, #24]
ffff2a2c:	f7ff fe56 	bl	ffff26dc <search_left_edge.constprop.0>
ffff2a30:	68fb      	ldr	r3, [r7, #12]
ffff2a32:	9305      	str	r3, [sp, #20]
ffff2a34:	4622      	mov	r2, r4
ffff2a36:	9602      	str	r6, [sp, #8]
ffff2a38:	2000      	movs	r0, #0
ffff2a3a:	f8cd a010 	str.w	sl, [sp, #16]
ffff2a3e:	f8cd 800c 	str.w	r8, [sp, #12]
ffff2a42:	69fb      	ldr	r3, [r7, #28]
ffff2a44:	9301      	str	r3, [sp, #4]
ffff2a46:	697b      	ldr	r3, [r7, #20]
ffff2a48:	9300      	str	r3, [sp, #0]
ffff2a4a:	4623      	mov	r3, r4
ffff2a4c:	69b9      	ldr	r1, [r7, #24]
ffff2a4e:	f7ff fed9 	bl	ffff2804 <search_right_edge>
ffff2a52:	4606      	mov	r6, r0
ffff2a54:	2800      	cmp	r0, #0
ffff2a56:	d043      	beq.n	ffff2ae0 <rw_mgr_mem_calibrate_dq_dqs_centering.isra.0+0x168>
ffff2a58:	4b61      	ldr	r3, [pc, #388]	; (ffff2be0 <rw_mgr_mem_calibrate_dq_dqs_centering.isra.0+0x268>)
ffff2a5a:	4621      	mov	r1, r4
ffff2a5c:	697a      	ldr	r2, [r7, #20]
ffff2a5e:	f44f 7080 	mov.w	r0, #256	; 0x100
ffff2a62:	f7fe ffb3 	bl	ffff19cc <scc_mgr_set>
ffff2a66:	681b      	ldr	r3, [r3, #0]
ffff2a68:	7bdb      	ldrb	r3, [r3, #15]
ffff2a6a:	b12b      	cbz	r3, ffff2a78 <rw_mgr_mem_calibrate_dq_dqs_centering.isra.0+0x100>
ffff2a6c:	69fa      	ldr	r2, [r7, #28]
ffff2a6e:	4621      	mov	r1, r4
ffff2a70:	f44f 7040 	mov.w	r0, #768	; 0x300
ffff2a74:	f7fe ffaa 	bl	ffff19cc <scc_mgr_set>
ffff2a78:	f3bf 8f5f 	dmb	sy
ffff2a7c:	4b59      	ldr	r3, [pc, #356]	; (ffff2be4 <rw_mgr_mem_calibrate_dq_dqs_centering.isra.0+0x26c>)
ffff2a7e:	f8c3 4e00 	str.w	r4, [r3, #3584]	; 0xe00
ffff2a82:	f3bf 8f5f 	dmb	sy
ffff2a86:	2600      	movs	r6, #0
ffff2a88:	f8c3 6e20 	str.w	r6, [r3, #3616]	; 0xe20
ffff2a8c:	68fb      	ldr	r3, [r7, #12]
ffff2a8e:	b19b      	cbz	r3, ffff2ab8 <rw_mgr_mem_calibrate_dq_dqs_centering.isra.0+0x140>
ffff2a90:	682b      	ldr	r3, [r5, #0]
ffff2a92:	2203      	movs	r2, #3
ffff2a94:	2101      	movs	r1, #1
ffff2a96:	f893 0033 	ldrb.w	r0, [r3, #51]	; 0x33
ffff2a9a:	687b      	ldr	r3, [r7, #4]
ffff2a9c:	fb04 3000 	mla	r0, r4, r0, r3
ffff2aa0:	f7fe ff28 	bl	ffff18f4 <set_failing_group_stage>
ffff2aa4:	46dd      	mov	sp, fp
ffff2aa6:	e013      	b.n	ffff2ad0 <rw_mgr_mem_calibrate_dq_dqs_centering.isra.0+0x158>
ffff2aa8:	7b0a      	ldrb	r2, [r1, #12]
ffff2aaa:	3201      	adds	r2, #1
ffff2aac:	f848 2023 	str.w	r2, [r8, r3, lsl #2]
ffff2ab0:	f84a 2023 	str.w	r2, [sl, r3, lsl #2]
ffff2ab4:	3301      	adds	r3, #1
ffff2ab6:	e7a7      	b.n	ffff2a08 <rw_mgr_mem_calibrate_dq_dqs_centering.isra.0+0x90>
ffff2ab8:	682b      	ldr	r3, [r5, #0]
ffff2aba:	2203      	movs	r2, #3
ffff2abc:	2109      	movs	r1, #9
ffff2abe:	f893 0033 	ldrb.w	r0, [r3, #51]	; 0x33
ffff2ac2:	687b      	ldr	r3, [r7, #4]
ffff2ac4:	fb04 3000 	mla	r0, r4, r0, r3
ffff2ac8:	f7fe ff14 	bl	ffff18f4 <set_failing_group_stage>
ffff2acc:	68fe      	ldr	r6, [r7, #12]
ffff2ace:	46dd      	mov	sp, fp
ffff2ad0:	682b      	ldr	r3, [r5, #0]
ffff2ad2:	69ba      	ldr	r2, [r7, #24]
ffff2ad4:	60be      	str	r6, [r7, #8]
ffff2ad6:	f893 3038 	ldrb.w	r3, [r3, #56]	; 0x38
ffff2ada:	441a      	add	r2, r3
ffff2adc:	61ba      	str	r2, [r7, #24]
ffff2ade:	e75d      	b.n	ffff299c <rw_mgr_mem_calibrate_dq_dqs_centering.isra.0+0x24>
ffff2ae0:	682b      	ldr	r3, [r5, #0]
ffff2ae2:	4601      	mov	r1, r0
ffff2ae4:	f8d8 2000 	ldr.w	r2, [r8]
ffff2ae8:	f04f 0c01 	mov.w	ip, #1
ffff2aec:	f893 e033 	ldrb.w	lr, [r3, #51]	; 0x33
ffff2af0:	f8da 3000 	ldr.w	r3, [sl]
ffff2af4:	1ad3      	subs	r3, r2, r3
ffff2af6:	45e6      	cmp	lr, ip
ffff2af8:	d85d      	bhi.n	ffff2bb6 <rw_mgr_mem_calibrate_dq_dqs_centering.isra.0+0x23e>
ffff2afa:	4a39      	ldr	r2, [pc, #228]	; (ffff2be0 <rw_mgr_mem_calibrate_dq_dqs_centering.isra.0+0x268>)
ffff2afc:	2b00      	cmp	r3, #0
ffff2afe:	bfc8      	it	gt
ffff2b00:	3301      	addgt	r3, #1
ffff2b02:	eb03 73d3 	add.w	r3, r3, r3, lsr #31
ffff2b06:	6810      	ldr	r0, [r2, #0]
ffff2b08:	697a      	ldr	r2, [r7, #20]
ffff2b0a:	ea4f 0c63 	mov.w	ip, r3, asr #1
ffff2b0e:	f890 e009 	ldrb.w	lr, [r0, #9]
ffff2b12:	eba2 0263 	sub.w	r2, r2, r3, asr #1
ffff2b16:	697b      	ldr	r3, [r7, #20]
ffff2b18:	ea22 72e2 	bic.w	r2, r2, r2, asr #31
ffff2b1c:	4596      	cmp	lr, r2
ffff2b1e:	bfc8      	it	gt
ffff2b20:	1a9b      	subgt	r3, r3, r2
ffff2b22:	7bc2      	ldrb	r2, [r0, #15]
ffff2b24:	bfd8      	it	le
ffff2b26:	eba3 030e 	suble.w	r3, r3, lr
ffff2b2a:	b132      	cbz	r2, ffff2b3a <rw_mgr_mem_calibrate_dq_dqs_centering.isra.0+0x1c2>
ffff2b2c:	69fa      	ldr	r2, [r7, #28]
ffff2b2e:	7980      	ldrb	r0, [r0, #6]
ffff2b30:	1ad2      	subs	r2, r2, r3
ffff2b32:	4282      	cmp	r2, r0
ffff2b34:	dd4b      	ble.n	ffff2bce <rw_mgr_mem_calibrate_dq_dqs_centering.isra.0+0x256>
ffff2b36:	1a12      	subs	r2, r2, r0
ffff2b38:	4413      	add	r3, r2
ffff2b3a:	697a      	ldr	r2, [r7, #20]
ffff2b3c:	2000      	movs	r0, #0
ffff2b3e:	1ad2      	subs	r2, r2, r3
ffff2b40:	617a      	str	r2, [r7, #20]
ffff2b42:	f107 022c 	add.w	r2, r7, #44	; 0x2c
ffff2b46:	9204      	str	r2, [sp, #16]
ffff2b48:	f107 0228 	add.w	r2, r7, #40	; 0x28
ffff2b4c:	9203      	str	r2, [sp, #12]
ffff2b4e:	683a      	ldr	r2, [r7, #0]
ffff2b50:	9202      	str	r2, [sp, #8]
ffff2b52:	4652      	mov	r2, sl
ffff2b54:	9101      	str	r1, [sp, #4]
ffff2b56:	4641      	mov	r1, r8
ffff2b58:	f8cd c000 	str.w	ip, [sp]
ffff2b5c:	f7ff fd22 	bl	ffff25a4 <center_dq_windows>
ffff2b60:	4a1f      	ldr	r2, [pc, #124]	; (ffff2be0 <rw_mgr_mem_calibrate_dq_dqs_centering.isra.0+0x268>)
ffff2b62:	6812      	ldr	r2, [r2, #0]
ffff2b64:	7bd2      	ldrb	r2, [r2, #15]
ffff2b66:	b15a      	cbz	r2, ffff2b80 <rw_mgr_mem_calibrate_dq_dqs_centering.isra.0+0x208>
ffff2b68:	69fa      	ldr	r2, [r7, #28]
ffff2b6a:	4621      	mov	r1, r4
ffff2b6c:	f44f 7040 	mov.w	r0, #768	; 0x300
ffff2b70:	1ad2      	subs	r2, r2, r3
ffff2b72:	f7fe ff2b 	bl	ffff19cc <scc_mgr_set>
ffff2b76:	f3bf 8f5f 	dmb	sy
ffff2b7a:	4b1a      	ldr	r3, [pc, #104]	; (ffff2be4 <rw_mgr_mem_calibrate_dq_dqs_centering.isra.0+0x26c>)
ffff2b7c:	f8c3 4e00 	str.w	r4, [r3, #3584]	; 0xe00
ffff2b80:	697a      	ldr	r2, [r7, #20]
ffff2b82:	4621      	mov	r1, r4
ffff2b84:	f44f 7080 	mov.w	r0, #256	; 0x100
ffff2b88:	f7fe ff20 	bl	ffff19cc <scc_mgr_set>
ffff2b8c:	f3bf 8f5f 	dmb	sy
ffff2b90:	4b14      	ldr	r3, [pc, #80]	; (ffff2be4 <rw_mgr_mem_calibrate_dq_dqs_centering.isra.0+0x26c>)
ffff2b92:	f8c3 4e00 	str.w	r4, [r3, #3584]	; 0xe00
ffff2b96:	f3bf 8f5f 	dmb	sy
ffff2b9a:	2200      	movs	r2, #0
ffff2b9c:	f8c3 2e20 	str.w	r2, [r3, #3616]	; 0xe20
ffff2ba0:	6abb      	ldr	r3, [r7, #40]	; 0x28
ffff2ba2:	4293      	cmp	r3, r2
ffff2ba4:	f6ff af7e 	blt.w	ffff2aa4 <rw_mgr_mem_calibrate_dq_dqs_centering.isra.0+0x12c>
ffff2ba8:	6afb      	ldr	r3, [r7, #44]	; 0x2c
ffff2baa:	4293      	cmp	r3, r2
ffff2bac:	f6ff af7a 	blt.w	ffff2aa4 <rw_mgr_mem_calibrate_dq_dqs_centering.isra.0+0x12c>
ffff2bb0:	46dd      	mov	sp, fp
ffff2bb2:	68be      	ldr	r6, [r7, #8]
ffff2bb4:	e78c      	b.n	ffff2ad0 <rw_mgr_mem_calibrate_dq_dqs_centering.isra.0+0x158>
ffff2bb6:	f858 202c 	ldr.w	r2, [r8, ip, lsl #2]
ffff2bba:	f85a 002c 	ldr.w	r0, [sl, ip, lsl #2]
ffff2bbe:	1a12      	subs	r2, r2, r0
ffff2bc0:	429a      	cmp	r2, r3
ffff2bc2:	bfbc      	itt	lt
ffff2bc4:	4661      	movlt	r1, ip
ffff2bc6:	4613      	movlt	r3, r2
ffff2bc8:	f10c 0c01 	add.w	ip, ip, #1
ffff2bcc:	e793      	b.n	ffff2af6 <rw_mgr_mem_calibrate_dq_dqs_centering.isra.0+0x17e>
ffff2bce:	69f8      	ldr	r0, [r7, #28]
ffff2bd0:	ea33 0322 	bics.w	r3, r3, r2, asr #32
ffff2bd4:	bf28      	it	cs
ffff2bd6:	4603      	movcs	r3, r0
ffff2bd8:	e7af      	b.n	ffff2b3a <rw_mgr_mem_calibrate_dq_dqs_centering.isra.0+0x1c2>
ffff2bda:	bf00      	nop
ffff2bdc:	ffff7a18 	.word	0xffff7a18
ffff2be0:	ffff7a0c 	.word	0xffff7a0c
ffff2be4:	ffc20000 	.word	0xffc20000

ffff2be8 <sdram_calibration_full>:
ffff2be8:	e92d 4df0 	stmdb	sp!, {r4, r5, r6, r7, r8, sl, fp, lr}
ffff2bec:	2210      	movs	r2, #16
ffff2bee:	f8df 8328 	ldr.w	r8, [pc, #808]	; ffff2f18 <sdram_calibration_full+0x330>
ffff2bf2:	b0aa      	sub	sp, #168	; 0xa8
ffff2bf4:	4dc9      	ldr	r5, [pc, #804]	; (ffff2f1c <sdram_calibration_full+0x334>)
ffff2bf6:	af06      	add	r7, sp, #24
ffff2bf8:	f107 0660 	add.w	r6, r7, #96	; 0x60
ffff2bfc:	f107 0470 	add.w	r4, r7, #112	; 0x70
ffff2c00:	4630      	mov	r0, r6
ffff2c02:	2100      	movs	r1, #0
ffff2c04:	f003 fa2c 	bl	ffff6060 <memset>
ffff2c08:	2220      	movs	r2, #32
ffff2c0a:	2100      	movs	r1, #0
ffff2c0c:	4620      	mov	r0, r4
ffff2c0e:	f003 fa27 	bl	ffff6060 <memset>
ffff2c12:	602e      	str	r6, [r5, #0]
ffff2c14:	f8c8 4000 	str.w	r4, [r8]
ffff2c18:	f7fe fcb2 	bl	ffff1580 <socfpga_get_sdram_rwmgr_config>
ffff2c1c:	4cc0      	ldr	r4, [pc, #768]	; (ffff2f20 <sdram_calibration_full+0x338>)
ffff2c1e:	4ec1      	ldr	r6, [pc, #772]	; (ffff2f24 <sdram_calibration_full+0x33c>)
ffff2c20:	f8df a304 	ldr.w	sl, [pc, #772]	; ffff2f28 <sdram_calibration_full+0x340>
ffff2c24:	6020      	str	r0, [r4, #0]
ffff2c26:	f7fe fcaf 	bl	ffff1588 <socfpga_get_sdram_io_config>
ffff2c2a:	6030      	str	r0, [r6, #0]
ffff2c2c:	f7fe fcb0 	bl	ffff1590 <socfpga_get_sdram_misc_config>
ffff2c30:	f8d8 2000 	ldr.w	r2, [r8]
ffff2c34:	f8ca 0000 	str.w	r0, [sl]
ffff2c38:	6813      	ldr	r3, [r2, #0]
ffff2c3a:	f043 0302 	orr.w	r3, r3, #2
ffff2c3e:	6013      	str	r3, [r2, #0]
ffff2c40:	6802      	ldr	r2, [r0, #0]
ffff2c42:	f3bf 8f5f 	dmb	sy
ffff2c46:	4bb9      	ldr	r3, [pc, #740]	; (ffff2f2c <sdram_calibration_full+0x344>)
ffff2c48:	f8c3 2800 	str.w	r2, [r3, #2048]	; 0x800
ffff2c4c:	f3bf 8f5f 	dmb	sy
ffff2c50:	2100      	movs	r1, #0
ffff2c52:	f8c3 1804 	str.w	r1, [r3, #2052]	; 0x804
ffff2c56:	f3bf 8f5f 	dmb	sy
ffff2c5a:	f8c3 1808 	str.w	r1, [r3, #2056]	; 0x808
ffff2c5e:	f3bf 8f5f 	dmb	sy
ffff2c62:	f8c3 180c 	str.w	r1, [r3, #2060]	; 0x80c
ffff2c66:	f3bf 8f5f 	dmb	sy
ffff2c6a:	f8c3 1810 	str.w	r1, [r3, #2064]	; 0x810
ffff2c6e:	f3bf 8f5f 	dmb	sy
ffff2c72:	f8c3 1814 	str.w	r1, [r3, #2068]	; 0x814
ffff2c76:	f3bf 8f5f 	dmb	sy
ffff2c7a:	f8c3 1818 	str.w	r1, [r3, #2072]	; 0x818
ffff2c7e:	f3bf 8f5f 	dmb	sy
ffff2c82:	4aab      	ldr	r2, [pc, #684]	; (ffff2f30 <sdram_calibration_full+0x348>)
ffff2c84:	4bab      	ldr	r3, [pc, #684]	; (ffff2f34 <sdram_calibration_full+0x34c>)
ffff2c86:	f8c2 3150 	str.w	r3, [r2, #336]	; 0x150
ffff2c8a:	f3bf 8f5f 	dmb	sy
ffff2c8e:	4baa      	ldr	r3, [pc, #680]	; (ffff2f38 <sdram_calibration_full+0x350>)
ffff2c90:	f8c2 3154 	str.w	r3, [r2, #340]	; 0x154
ffff2c94:	f3bf 8f5f 	dmb	sy
ffff2c98:	460b      	mov	r3, r1
ffff2c9a:	f8c2 1158 	str.w	r1, [r2, #344]	; 0x158
ffff2c9e:	4619      	mov	r1, r3
ffff2ca0:	2200      	movs	r2, #0
ffff2ca2:	3301      	adds	r3, #1
ffff2ca4:	f44f 6030 	mov.w	r0, #2816	; 0xb00
ffff2ca8:	f7fe fe90 	bl	ffff19cc <scc_mgr_set>
ffff2cac:	2b10      	cmp	r3, #16
ffff2cae:	d1f6      	bne.n	ffff2c9e <sdram_calibration_full+0xb6>
ffff2cb0:	6833      	ldr	r3, [r6, #0]
ffff2cb2:	7899      	ldrb	r1, [r3, #2]
ffff2cb4:	8818      	ldrh	r0, [r3, #0]
ffff2cb6:	4408      	add	r0, r1
ffff2cb8:	3801      	subs	r0, #1
ffff2cba:	f003 e880 	blx	ffff5dbc <__aeabi_idiv>
ffff2cbe:	3801      	subs	r0, #1
ffff2cc0:	f3bf 8f5f 	dmb	sy
ffff2cc4:	4a99      	ldr	r2, [pc, #612]	; (ffff2f2c <sdram_calibration_full+0x344>)
ffff2cc6:	f8c2 081c 	str.w	r0, [r2, #2076]	; 0x81c
ffff2cca:	f3bf 8f5f 	dmb	sy
ffff2cce:	f641 534c 	movw	r3, #7500	; 0x1d4c
ffff2cd2:	f8c2 3820 	str.w	r3, [r2, #2080]	; 0x820
ffff2cd6:	f3bf 8f5f 	dmb	sy
ffff2cda:	4b98      	ldr	r3, [pc, #608]	; (ffff2f3c <sdram_calibration_full+0x354>)
ffff2cdc:	f8c2 3824 	str.w	r3, [r2, #2084]	; 0x824
ffff2ce0:	f3bf 8f5f 	dmb	sy
ffff2ce4:	4b96      	ldr	r3, [pc, #600]	; (ffff2f40 <sdram_calibration_full+0x358>)
ffff2ce6:	6821      	ldr	r1, [r4, #0]
ffff2ce8:	f8c2 3828 	str.w	r3, [r2, #2088]	; 0x828
ffff2cec:	78cb      	ldrb	r3, [r1, #3]
ffff2cee:	7b08      	ldrb	r0, [r1, #12]
ffff2cf0:	041b      	lsls	r3, r3, #16
ffff2cf2:	ea43 6300 	orr.w	r3, r3, r0, lsl #24
ffff2cf6:	f891 0027 	ldrb.w	r0, [r1, #39]	; 0x27
ffff2cfa:	f891 102d 	ldrb.w	r1, [r1, #45]	; 0x2d
ffff2cfe:	4303      	orrs	r3, r0
ffff2d00:	ea43 2301 	orr.w	r3, r3, r1, lsl #8
ffff2d04:	f3bf 8f5f 	dmb	sy
ffff2d08:	f8c2 382c 	str.w	r3, [r2, #2092]	; 0x82c
ffff2d0c:	6823      	ldr	r3, [r4, #0]
ffff2d0e:	f893 3035 	ldrb.w	r3, [r3, #53]	; 0x35
ffff2d12:	f3bf 8f5f 	dmb	sy
ffff2d16:	f8c2 3830 	str.w	r3, [r2, #2096]	; 0x830
ffff2d1a:	6823      	ldr	r3, [r4, #0]
ffff2d1c:	f893 302b 	ldrb.w	r3, [r3, #43]	; 0x2b
ffff2d20:	061b      	lsls	r3, r3, #24
ffff2d22:	f443 737a 	orr.w	r3, r3, #1000	; 0x3e8
ffff2d26:	f3bf 8f5f 	dmb	sy
ffff2d2a:	f8c2 3834 	str.w	r3, [r2, #2100]	; 0x834
ffff2d2e:	f107 0158 	add.w	r1, r7, #88	; 0x58
ffff2d32:	f107 005c 	add.w	r0, r7, #92	; 0x5c
ffff2d36:	f04f 0b00 	mov.w	fp, #0
ffff2d3a:	f8c7 b058 	str.w	fp, [r7, #88]	; 0x58
ffff2d3e:	f7fe fc17 	bl	ffff1570 <socfpga_get_seq_inst_init>
ffff2d42:	465b      	mov	r3, fp
ffff2d44:	6dba      	ldr	r2, [r7, #88]	; 0x58
ffff2d46:	4293      	cmp	r3, r2
ffff2d48:	f0c0 8147 	bcc.w	ffff2fda <sdram_calibration_full+0x3f2>
ffff2d4c:	f107 0158 	add.w	r1, r7, #88	; 0x58
ffff2d50:	f107 005c 	add.w	r0, r7, #92	; 0x5c
ffff2d54:	f7fe fc04 	bl	ffff1560 <socfpga_get_seq_ac_init>
ffff2d58:	2300      	movs	r3, #0
ffff2d5a:	6dba      	ldr	r2, [r7, #88]	; 0x58
ffff2d5c:	4293      	cmp	r3, r2
ffff2d5e:	f0c0 8149 	bcc.w	ffff2ff4 <sdram_calibration_full+0x40c>
ffff2d62:	2000      	movs	r0, #0
ffff2d64:	21ff      	movs	r1, #255	; 0xff
ffff2d66:	f7fe fddd 	bl	ffff1924 <reg_file_set_stage>
ffff2d6a:	f7fe fdcf 	bl	ffff190c <reg_file_set_group>
ffff2d6e:	4b75      	ldr	r3, [pc, #468]	; (ffff2f44 <sdram_calibration_full+0x35c>)
ffff2d70:	2280      	movs	r2, #128	; 0x80
ffff2d72:	801a      	strh	r2, [r3, #0]
ffff2d74:	4a74      	ldr	r2, [pc, #464]	; (ffff2f48 <sdram_calibration_full+0x360>)
ffff2d76:	8011      	strh	r1, [r2, #0]
ffff2d78:	f3bf 8f5f 	dmb	sy
ffff2d7c:	4973      	ldr	r1, [pc, #460]	; (ffff2f4c <sdram_calibration_full+0x364>)
ffff2d7e:	f8df c1b0 	ldr.w	ip, [pc, #432]	; ffff2f30 <sdram_calibration_full+0x348>
ffff2d82:	64c8      	str	r0, [r1, #76]	; 0x4c
ffff2d84:	f8dc 2000 	ldr.w	r2, [ip]
ffff2d88:	61ba      	str	r2, [r7, #24]
ffff2d8a:	f3bf 8f5f 	dmb	sy
ffff2d8e:	69ba      	ldr	r2, [r7, #24]
ffff2d90:	f422 0280 	bic.w	r2, r2, #4194304	; 0x400000
ffff2d94:	f3bf 8f5f 	dmb	sy
ffff2d98:	f8cc 2000 	str.w	r2, [ip]
ffff2d9c:	f3bf 8f5f 	dmb	sy
ffff2da0:	2203      	movs	r2, #3
ffff2da2:	648a      	str	r2, [r1, #72]	; 0x48
ffff2da4:	f3bf 8f5f 	dmb	sy
ffff2da8:	6448      	str	r0, [r1, #68]	; 0x44
ffff2daa:	f3bf 8f5f 	dmb	sy
ffff2dae:	64c8      	str	r0, [r1, #76]	; 0x4c
ffff2db0:	f3bf 8f5f 	dmb	sy
ffff2db4:	881b      	ldrh	r3, [r3, #0]
ffff2db6:	6508      	str	r0, [r1, #80]	; 0x50
ffff2db8:	f003 03f8 	and.w	r3, r3, #248	; 0xf8
ffff2dbc:	2bf8      	cmp	r3, #248	; 0xf8
ffff2dbe:	d01b      	beq.n	ffff2df8 <sdram_calibration_full+0x210>
ffff2dc0:	6823      	ldr	r3, [r4, #0]
ffff2dc2:	682d      	ldr	r5, [r5, #0]
ffff2dc4:	63fb      	str	r3, [r7, #60]	; 0x3c
ffff2dc6:	f893 b033 	ldrb.w	fp, [r3, #51]	; 0x33
ffff2dca:	f893 1039 	ldrb.w	r1, [r3, #57]	; 0x39
ffff2dce:	4658      	mov	r0, fp
ffff2dd0:	f002 efa6 	blx	ffff5d20 <__aeabi_uidiv>
ffff2dd4:	b2c0      	uxtb	r0, r0
ffff2dd6:	2201      	movs	r2, #1
ffff2dd8:	6bfb      	ldr	r3, [r7, #60]	; 0x3c
ffff2dda:	fa02 f000 	lsl.w	r0, r2, r0
ffff2dde:	fa02 fb0b 	lsl.w	fp, r2, fp
ffff2de2:	3801      	subs	r0, #1
ffff2de4:	f10b 31ff 	add.w	r1, fp, #4294967295
ffff2de8:	6068      	str	r0, [r5, #4]
ffff2dea:	60e8      	str	r0, [r5, #12]
ffff2dec:	6029      	str	r1, [r5, #0]
ffff2dee:	f893 3034 	ldrb.w	r3, [r3, #52]	; 0x34
ffff2df2:	409a      	lsls	r2, r3
ffff2df4:	3a01      	subs	r2, #1
ffff2df6:	60aa      	str	r2, [r5, #8]
ffff2df8:	f3bf 8f5f 	dmb	sy
ffff2dfc:	4b54      	ldr	r3, [pc, #336]	; (ffff2f50 <sdram_calibration_full+0x368>)
ffff2dfe:	2500      	movs	r5, #0
ffff2e00:	f8da 0000 	ldr.w	r0, [sl]
ffff2e04:	f8c3 5400 	str.w	r5, [r3, #1024]	; 0x400
ffff2e08:	6823      	ldr	r3, [r4, #0]
ffff2e0a:	7b02      	ldrb	r2, [r0, #12]
ffff2e0c:	7ac1      	ldrb	r1, [r0, #11]
ffff2e0e:	7bdb      	ldrb	r3, [r3, #15]
ffff2e10:	7a80      	ldrb	r0, [r0, #10]
ffff2e12:	f7fe fec9 	bl	ffff1ba8 <rw_mgr_mem_init_load_regs>
ffff2e16:	f3bf 8f5f 	dmb	sy
ffff2e1a:	4b4c      	ldr	r3, [pc, #304]	; (ffff2f4c <sdram_calibration_full+0x364>)
ffff2e1c:	f04f 0b01 	mov.w	fp, #1
ffff2e20:	f8da 0000 	ldr.w	r0, [sl]
ffff2e24:	f8c3 b044 	str.w	fp, [r3, #68]	; 0x44
ffff2e28:	6823      	ldr	r3, [r4, #0]
ffff2e2a:	7bc2      	ldrb	r2, [r0, #15]
ffff2e2c:	7b81      	ldrb	r1, [r0, #14]
ffff2e2e:	7c1b      	ldrb	r3, [r3, #16]
ffff2e30:	7b40      	ldrb	r0, [r0, #13]
ffff2e32:	f7fe feb9 	bl	ffff1ba8 <rw_mgr_mem_init_load_regs>
ffff2e36:	20fa      	movs	r0, #250	; 0xfa
ffff2e38:	f7fe fe5a 	bl	ffff1af0 <delay_for_n_mem_clocks>
ffff2e3c:	6823      	ldr	r3, [r4, #0]
ffff2e3e:	462a      	mov	r2, r5
ffff2e40:	7f59      	ldrb	r1, [r3, #29]
ffff2e42:	7f98      	ldrb	r0, [r3, #30]
ffff2e44:	f7fe feda 	bl	ffff1bfc <rw_mgr_mem_load_user>
ffff2e48:	6823      	ldr	r3, [r4, #0]
ffff2e4a:	22ff      	movs	r2, #255	; 0xff
ffff2e4c:	f893 1035 	ldrb.w	r1, [r3, #53]	; 0x35
ffff2e50:	63f9      	str	r1, [r7, #60]	; 0x3c
ffff2e52:	f893 1036 	ldrb.w	r1, [r3, #54]	; 0x36
ffff2e56:	f8d8 3000 	ldr.w	r3, [r8]
ffff2e5a:	63b9      	str	r1, [r7, #56]	; 0x38
ffff2e5c:	4933      	ldr	r1, [pc, #204]	; (ffff2f2c <sdram_calibration_full+0x344>)
ffff2e5e:	609d      	str	r5, [r3, #8]
ffff2e60:	60dd      	str	r5, [r3, #12]
ffff2e62:	611a      	str	r2, [r3, #16]
ffff2e64:	615d      	str	r5, [r3, #20]
ffff2e66:	619d      	str	r5, [r3, #24]
ffff2e68:	f8da 3000 	ldr.w	r3, [sl]
ffff2e6c:	6848      	ldr	r0, [r1, #4]
ffff2e6e:	7a1b      	ldrb	r3, [r3, #8]
ffff2e70:	fa0b fb03 	lsl.w	fp, fp, r3
ffff2e74:	f10b 3bff 	add.w	fp, fp, #4294967295
ffff2e78:	f3bf 8f5f 	dmb	sy
ffff2e7c:	688b      	ldr	r3, [r1, #8]
ffff2e7e:	f3bf 8f5f 	dmb	sy
ffff2e82:	f8d8 c000 	ldr.w	ip, [r8]
ffff2e86:	4418      	add	r0, r3
ffff2e88:	1e43      	subs	r3, r0, #1
ffff2e8a:	f8cc 301c 	str.w	r3, [ip, #28]
ffff2e8e:	68cb      	ldr	r3, [r1, #12]
ffff2e90:	f3bf 8f5f 	dmb	sy
ffff2e94:	f8d8 1000 	ldr.w	r1, [r8]
ffff2e98:	3310      	adds	r3, #16
ffff2e9a:	455b      	cmp	r3, fp
ffff2e9c:	bf28      	it	cs
ffff2e9e:	465b      	movcs	r3, fp
ffff2ea0:	604b      	str	r3, [r1, #4]
ffff2ea2:	f3bf 8f5f 	dmb	sy
ffff2ea6:	4a29      	ldr	r2, [pc, #164]	; (ffff2f4c <sdram_calibration_full+0x364>)
ffff2ea8:	6413      	str	r3, [r2, #64]	; 0x40
ffff2eaa:	f3bf 8f5f 	dmb	sy
ffff2eae:	6590      	str	r0, [r2, #88]	; 0x58
ffff2eb0:	f7fe ff38 	bl	ffff1d24 <mem_precharge_and_activate>
ffff2eb4:	4b27      	ldr	r3, [pc, #156]	; (ffff2f54 <sdram_calibration_full+0x36c>)
ffff2eb6:	4628      	mov	r0, r5
ffff2eb8:	f04f 0c27 	mov.w	ip, #39	; 0x27
ffff2ebc:	22ff      	movs	r2, #255	; 0xff
ffff2ebe:	6821      	ldr	r1, [r4, #0]
ffff2ec0:	f891 1035 	ldrb.w	r1, [r1, #53]	; 0x35
ffff2ec4:	428d      	cmp	r5, r1
ffff2ec6:	f0c0 80a2 	bcc.w	ffff300e <sdram_calibration_full+0x426>
ffff2eca:	4b1e      	ldr	r3, [pc, #120]	; (ffff2f44 <sdram_calibration_full+0x35c>)
ffff2ecc:	881b      	ldrh	r3, [r3, #0]
ffff2ece:	f003 03f8 	and.w	r3, r3, #248	; 0xf8
ffff2ed2:	2bf8      	cmp	r3, #248	; 0xf8
ffff2ed4:	f000 8135 	beq.w	ffff3142 <sdram_calibration_full+0x55a>
ffff2ed8:	f04f 0800 	mov.w	r8, #0
ffff2edc:	6823      	ldr	r3, [r4, #0]
ffff2ede:	f893 3038 	ldrb.w	r3, [r3, #56]	; 0x38
ffff2ee2:	4598      	cmp	r8, r3
ffff2ee4:	f2c0 8164 	blt.w	ffff31b0 <sdram_calibration_full+0x5c8>
ffff2ee8:	6bb9      	ldr	r1, [r7, #56]	; 0x38
ffff2eea:	6bf8      	ldr	r0, [r7, #60]	; 0x3c
ffff2eec:	f002 ef18 	blx	ffff5d20 <__aeabi_uidiv>
ffff2ef0:	b2c3      	uxtb	r3, r0
ffff2ef2:	617b      	str	r3, [r7, #20]
ffff2ef4:	f3bf 8f5f 	dmb	sy
ffff2ef8:	4a16      	ldr	r2, [pc, #88]	; (ffff2f54 <sdram_calibration_full+0x36c>)
ffff2efa:	23ff      	movs	r3, #255	; 0xff
ffff2efc:	f8c2 3e00 	str.w	r3, [r2, #3584]	; 0xe00
ffff2f00:	f3bf 8f5f 	dmb	sy
ffff2f04:	2300      	movs	r3, #0
ffff2f06:	f8c2 3e20 	str.w	r3, [r2, #3616]	; 0xe20
ffff2f0a:	633b      	str	r3, [r7, #48]	; 0x30
ffff2f0c:	63fb      	str	r3, [r7, #60]	; 0x3c
ffff2f0e:	63bb      	str	r3, [r7, #56]	; 0x38
ffff2f10:	f04f 33ff 	mov.w	r3, #4294967295
ffff2f14:	e020      	b.n	ffff2f58 <sdram_calibration_full+0x370>
ffff2f16:	bf00      	nop
ffff2f18:	ffff7a08 	.word	0xffff7a08
ffff2f1c:	ffff7a14 	.word	0xffff7a14
ffff2f20:	ffff7a18 	.word	0xffff7a18
ffff2f24:	ffff7a0c 	.word	0xffff7a0c
ffff2f28:	ffff7a10 	.word	0xffff7a10
ffff2f2c:	ffc24000 	.word	0xffc24000
ffff2f30:	ffc25000 	.word	0xffc25000
ffff2f34:	01d4c256 	.word	0x01d4c256
ffff2f38:	a0064000 	.word	0xa0064000
ffff2f3c:	000a0064 	.word	0x000a0064
ffff2f40:	f30e0a04 	.word	0xf30e0a04
ffff2f44:	ffff7a04 	.word	0xffff7a04
ffff2f48:	ffff7a1c 	.word	0xffff7a1c
ffff2f4c:	ffc21000 	.word	0xffc21000
ffff2f50:	ffc23000 	.word	0xffc23000
ffff2f54:	ffc20000 	.word	0xffc20000
ffff2f58:	623b      	str	r3, [r7, #32]
ffff2f5a:	2300      	movs	r3, #0
ffff2f5c:	62bb      	str	r3, [r7, #40]	; 0x28
ffff2f5e:	4b9c      	ldr	r3, [pc, #624]	; (ffff31d0 <sdram_calibration_full+0x5e8>)
ffff2f60:	6bfa      	ldr	r2, [r7, #60]	; 0x3c
ffff2f62:	681b      	ldr	r3, [r3, #0]
ffff2f64:	f893 1036 	ldrb.w	r1, [r3, #54]	; 0x36
ffff2f68:	4291      	cmp	r1, r2
ffff2f6a:	f200 813b 	bhi.w	ffff31e4 <sdram_calibration_full+0x5fc>
ffff2f6e:	6bbb      	ldr	r3, [r7, #56]	; 0x38
ffff2f70:	2b00      	cmp	r3, #0
ffff2f72:	f040 82b7 	bne.w	ffff34e4 <sdram_calibration_full+0x8fc>
ffff2f76:	2003      	movs	r0, #3
ffff2f78:	4c96      	ldr	r4, [pc, #600]	; (ffff31d4 <sdram_calibration_full+0x5ec>)
ffff2f7a:	f7fe fcd3 	bl	ffff1924 <reg_file_set_stage>
ffff2f7e:	2001      	movs	r0, #1
ffff2f80:	f7fe fcdc 	bl	ffff193c <reg_file_set_sub_stage>
ffff2f84:	f7fe ffd4 	bl	ffff1f30 <rw_mgr_mem_calibrate_read_load_patterns.constprop.0>
ffff2f88:	6bbd      	ldr	r5, [r7, #56]	; 0x38
ffff2f8a:	6823      	ldr	r3, [r4, #0]
ffff2f8c:	685b      	ldr	r3, [r3, #4]
ffff2f8e:	f3bf 8f5f 	dmb	sy
ffff2f92:	4a91      	ldr	r2, [pc, #580]	; (ffff31d8 <sdram_calibration_full+0x5f0>)
ffff2f94:	2000      	movs	r0, #0
ffff2f96:	6413      	str	r3, [r2, #64]	; 0x40
ffff2f98:	2201      	movs	r2, #1
ffff2f9a:	4611      	mov	r1, r2
ffff2f9c:	f7ff f9bc 	bl	ffff2318 <rw_mgr_mem_calibrate_read_test_all_ranks.isra.0>
ffff2fa0:	b130      	cbz	r0, ffff2fb0 <sdram_calibration_full+0x3c8>
ffff2fa2:	6822      	ldr	r2, [r4, #0]
ffff2fa4:	2501      	movs	r5, #1
ffff2fa6:	6853      	ldr	r3, [r2, #4]
ffff2fa8:	3b01      	subs	r3, #1
ffff2faa:	6053      	str	r3, [r2, #4]
ffff2fac:	2b00      	cmp	r3, #0
ffff2fae:	d1ec      	bne.n	ffff2f8a <sdram_calibration_full+0x3a2>
ffff2fb0:	f3bf 8f5f 	dmb	sy
ffff2fb4:	4888      	ldr	r0, [pc, #544]	; (ffff31d8 <sdram_calibration_full+0x5f0>)
ffff2fb6:	2200      	movs	r2, #0
ffff2fb8:	6082      	str	r2, [r0, #8]
ffff2fba:	2d00      	cmp	r5, #0
ffff2fbc:	f000 84e4 	beq.w	ffff3988 <sdram_calibration_full+0xda0>
ffff2fc0:	6821      	ldr	r1, [r4, #0]
ffff2fc2:	684b      	ldr	r3, [r1, #4]
ffff2fc4:	3302      	adds	r3, #2
ffff2fc6:	604b      	str	r3, [r1, #4]
ffff2fc8:	f3bf 8f5f 	dmb	sy
ffff2fcc:	6403      	str	r3, [r0, #64]	; 0x40
ffff2fce:	f3bf 8f5f 	dmb	sy
ffff2fd2:	4b82      	ldr	r3, [pc, #520]	; (ffff31dc <sdram_calibration_full+0x5f4>)
ffff2fd4:	f8c3 2e20 	str.w	r2, [r3, #3616]	; 0xe20
ffff2fd8:	e0a9      	b.n	ffff312e <sdram_calibration_full+0x546>
ffff2fda:	6df9      	ldr	r1, [r7, #92]	; 0x5c
ffff2fdc:	009a      	lsls	r2, r3, #2
ffff2fde:	f851 1023 	ldr.w	r1, [r1, r3, lsl #2]
ffff2fe2:	f3bf 8f5f 	dmb	sy
ffff2fe6:	f5a2 1277 	sub.w	r2, r2, #4046848	; 0x3dc000
ffff2fea:	3301      	adds	r3, #1
ffff2fec:	f5a2 6200 	sub.w	r2, r2, #2048	; 0x800
ffff2ff0:	6011      	str	r1, [r2, #0]
ffff2ff2:	e6a7      	b.n	ffff2d44 <sdram_calibration_full+0x15c>
ffff2ff4:	6df9      	ldr	r1, [r7, #92]	; 0x5c
ffff2ff6:	009a      	lsls	r2, r3, #2
ffff2ff8:	f851 1023 	ldr.w	r1, [r1, r3, lsl #2]
ffff2ffc:	f3bf 8f5f 	dmb	sy
ffff3000:	f5a2 1277 	sub.w	r2, r2, #4046848	; 0x3dc000
ffff3004:	3301      	adds	r3, #1
ffff3006:	f5a2 6280 	sub.w	r2, r2, #1024	; 0x400
ffff300a:	6011      	str	r1, [r2, #0]
ffff300c:	e6a5      	b.n	ffff2d5a <sdram_calibration_full+0x172>
ffff300e:	f3bf 8f5f 	dmb	sy
ffff3012:	601d      	str	r5, [r3, #0]
ffff3014:	b91d      	cbnz	r5, ffff301e <sdram_calibration_full+0x436>
ffff3016:	f3bf 8f5f 	dmb	sy
ffff301a:	f8c3 ca00 	str.w	ip, [r3, #2560]	; 0xa00
ffff301e:	f3bf 8f5f 	dmb	sy
ffff3022:	f8c3 2e08 	str.w	r2, [r3, #3592]	; 0xe08
ffff3026:	f3bf 8f5f 	dmb	sy
ffff302a:	f8c3 2e0c 	str.w	r2, [r3, #3596]	; 0xe0c
ffff302e:	f3bf 8f5f 	dmb	sy
ffff3032:	f8c3 0e04 	str.w	r0, [r3, #3588]	; 0xe04
ffff3036:	f3bf 8f5f 	dmb	sy
ffff303a:	f8c3 5e00 	str.w	r5, [r3, #3584]	; 0xe00
ffff303e:	f3bf 8f5f 	dmb	sy
ffff3042:	3501      	adds	r5, #1
ffff3044:	f8c3 0e20 	str.w	r0, [r3, #3616]	; 0xe20
ffff3048:	e739      	b.n	ffff2ebe <sdram_calibration_full+0x2d6>
ffff304a:	4659      	mov	r1, fp
ffff304c:	2200      	movs	r2, #0
ffff304e:	f44f 7000 	mov.w	r0, #512	; 0x200
ffff3052:	f7fe fcbb 	bl	ffff19cc <scc_mgr_set>
ffff3056:	6832      	ldr	r2, [r6, #0]
ffff3058:	4659      	mov	r1, fp
ffff305a:	f44f 6080 	mov.w	r0, #1024	; 0x400
ffff305e:	7912      	ldrb	r2, [r2, #4]
ffff3060:	2a06      	cmp	r2, #6
ffff3062:	bf18      	it	ne
ffff3064:	2207      	movne	r2, #7
ffff3066:	f7fe fcb1 	bl	ffff19cc <scc_mgr_set>
ffff306a:	6832      	ldr	r2, [r6, #0]
ffff306c:	f44f 6080 	mov.w	r0, #1024	; 0x400
ffff3070:	7912      	ldrb	r2, [r2, #4]
ffff3072:	ebc2 1142 	rsb	r1, r2, r2, lsl #5
ffff3076:	eb02 0281 	add.w	r2, r2, r1, lsl #2
ffff307a:	fba2 2105 	umull	r2, r1, r2, r5
ffff307e:	094a      	lsrs	r2, r1, #5
ffff3080:	4659      	mov	r1, fp
ffff3082:	f10b 0b01 	add.w	fp, fp, #1
ffff3086:	3a02      	subs	r2, #2
ffff3088:	f7fe fca0 	bl	ffff19cc <scc_mgr_set>
ffff308c:	6822      	ldr	r2, [r4, #0]
ffff308e:	f892 2035 	ldrb.w	r2, [r2, #53]	; 0x35
ffff3092:	4593      	cmp	fp, r2
ffff3094:	d3d9      	bcc.n	ffff304a <sdram_calibration_full+0x462>
ffff3096:	f3bf 8f5f 	dmb	sy
ffff309a:	4a50      	ldr	r2, [pc, #320]	; (ffff31dc <sdram_calibration_full+0x5f4>)
ffff309c:	21ff      	movs	r1, #255	; 0xff
ffff309e:	f8c2 1e00 	str.w	r1, [r2, #3584]	; 0xe00
ffff30a2:	f3bf 8f5f 	dmb	sy
ffff30a6:	f8c2 1e04 	str.w	r1, [r2, #3588]	; 0xe04
ffff30aa:	2100      	movs	r1, #0
ffff30ac:	6820      	ldr	r0, [r4, #0]
ffff30ae:	f890 0036 	ldrb.w	r0, [r0, #54]	; 0x36
ffff30b2:	4281      	cmp	r1, r0
ffff30b4:	d340      	bcc.n	ffff3138 <sdram_calibration_full+0x550>
ffff30b6:	f3bf 8f5f 	dmb	sy
ffff30ba:	21ff      	movs	r1, #255	; 0xff
ffff30bc:	f8c2 1e08 	str.w	r1, [r2, #3592]	; 0xe08
ffff30c0:	f3bf 8f5f 	dmb	sy
ffff30c4:	f8c2 1e0c 	str.w	r1, [r2, #3596]	; 0xe0c
ffff30c8:	f3bf 8f5f 	dmb	sy
ffff30cc:	2100      	movs	r1, #0
ffff30ce:	f8c2 1e20 	str.w	r1, [r2, #3616]	; 0xe20
ffff30d2:	6822      	ldr	r2, [r4, #0]
ffff30d4:	f892 2038 	ldrb.w	r2, [r2, #56]	; 0x38
ffff30d8:	4413      	add	r3, r2
ffff30da:	6822      	ldr	r2, [r4, #0]
ffff30dc:	f892 2038 	ldrb.w	r2, [r2, #56]	; 0x38
ffff30e0:	4293      	cmp	r3, r2
ffff30e2:	d326      	bcc.n	ffff3132 <sdram_calibration_full+0x54a>
ffff30e4:	4d3d      	ldr	r5, [pc, #244]	; (ffff31dc <sdram_calibration_full+0x5f4>)
ffff30e6:	2300      	movs	r3, #0
ffff30e8:	6822      	ldr	r2, [r4, #0]
ffff30ea:	f892 2035 	ldrb.w	r2, [r2, #53]	; 0x35
ffff30ee:	4293      	cmp	r3, r2
ffff30f0:	d32a      	bcc.n	ffff3148 <sdram_calibration_full+0x560>
ffff30f2:	f3bf 8f5f 	dmb	sy
ffff30f6:	f8da 2000 	ldr.w	r2, [sl]
ffff30fa:	2300      	movs	r3, #0
ffff30fc:	f8c5 3e20 	str.w	r3, [r5, #3616]	; 0xe20
ffff3100:	21ff      	movs	r1, #255	; 0xff
ffff3102:	7992      	ldrb	r2, [r2, #6]
ffff3104:	429a      	cmp	r2, r3
ffff3106:	d82b      	bhi.n	ffff3160 <sdram_calibration_full+0x578>
ffff3108:	f3bf 8f5f 	dmb	sy
ffff310c:	4832      	ldr	r0, [pc, #200]	; (ffff31d8 <sdram_calibration_full+0x5f0>)
ffff310e:	2300      	movs	r3, #0
ffff3110:	f8da 2000 	ldr.w	r2, [sl]
ffff3114:	f8d8 1000 	ldr.w	r1, [r8]
ffff3118:	6083      	str	r3, [r0, #8]
ffff311a:	7952      	ldrb	r2, [r2, #5]
ffff311c:	604a      	str	r2, [r1, #4]
ffff311e:	f3bf 8f5f 	dmb	sy
ffff3122:	6402      	str	r2, [r0, #64]	; 0x40
ffff3124:	f3bf 8f5f 	dmb	sy
ffff3128:	4a2c      	ldr	r2, [pc, #176]	; (ffff31dc <sdram_calibration_full+0x5f4>)
ffff312a:	f8c2 3e20 	str.w	r3, [r2, #3616]	; 0xe20
ffff312e:	2301      	movs	r3, #1
ffff3130:	e1d9      	b.n	ffff34e6 <sdram_calibration_full+0x8fe>
ffff3132:	f04f 0b00 	mov.w	fp, #0
ffff3136:	e7a9      	b.n	ffff308c <sdram_calibration_full+0x4a4>
ffff3138:	f3bf 8f5f 	dmb	sy
ffff313c:	6011      	str	r1, [r2, #0]
ffff313e:	3101      	adds	r1, #1
ffff3140:	e7b4      	b.n	ffff30ac <sdram_calibration_full+0x4c4>
ffff3142:	4d27      	ldr	r5, [pc, #156]	; (ffff31e0 <sdram_calibration_full+0x5f8>)
ffff3144:	2300      	movs	r3, #0
ffff3146:	e7c8      	b.n	ffff30da <sdram_calibration_full+0x4f2>
ffff3148:	4619      	mov	r1, r3
ffff314a:	220a      	movs	r2, #10
ffff314c:	f44f 7080 	mov.w	r0, #256	; 0x100
ffff3150:	f7fe fc3c 	bl	ffff19cc <scc_mgr_set>
ffff3154:	f3bf 8f5f 	dmb	sy
ffff3158:	f8c5 3e00 	str.w	r3, [r5, #3584]	; 0xe00
ffff315c:	3301      	adds	r3, #1
ffff315e:	e7c3      	b.n	ffff30e8 <sdram_calibration_full+0x500>
ffff3160:	f3bf 8f5f 	dmb	sy
ffff3164:	481c      	ldr	r0, [pc, #112]	; (ffff31d8 <sdram_calibration_full+0x5f0>)
ffff3166:	3301      	adds	r3, #1
ffff3168:	6041      	str	r1, [r0, #4]
ffff316a:	e7cb      	b.n	ffff3104 <sdram_calibration_full+0x51c>
ffff316c:	6832      	ldr	r2, [r6, #0]
ffff316e:	4619      	mov	r1, r3
ffff3170:	f44f 7080 	mov.w	r0, #256	; 0x100
ffff3174:	7a92      	ldrb	r2, [r2, #10]
ffff3176:	f7fe fc29 	bl	ffff19cc <scc_mgr_set>
ffff317a:	4619      	mov	r1, r3
ffff317c:	2200      	movs	r2, #0
ffff317e:	f44f 7000 	mov.w	r0, #512	; 0x200
ffff3182:	f7fe fc23 	bl	ffff19cc <scc_mgr_set>
ffff3186:	4619      	mov	r1, r3
ffff3188:	3301      	adds	r3, #1
ffff318a:	f44f 7040 	mov.w	r0, #768	; 0x300
ffff318e:	f7fe fc1d 	bl	ffff19cc <scc_mgr_set>
ffff3192:	6822      	ldr	r2, [r4, #0]
ffff3194:	f892 2035 	ldrb.w	r2, [r2, #53]	; 0x35
ffff3198:	4293      	cmp	r3, r2
ffff319a:	dbe7      	blt.n	ffff316c <sdram_calibration_full+0x584>
ffff319c:	2500      	movs	r5, #0
ffff319e:	6823      	ldr	r3, [r4, #0]
ffff31a0:	f893 2036 	ldrb.w	r2, [r3, #54]	; 0x36
ffff31a4:	4295      	cmp	r5, r2
ffff31a6:	db05      	blt.n	ffff31b4 <sdram_calibration_full+0x5cc>
ffff31a8:	f893 3038 	ldrb.w	r3, [r3, #56]	; 0x38
ffff31ac:	4498      	add	r8, r3
ffff31ae:	e695      	b.n	ffff2edc <sdram_calibration_full+0x2f4>
ffff31b0:	2300      	movs	r3, #0
ffff31b2:	e7ee      	b.n	ffff3192 <sdram_calibration_full+0x5aa>
ffff31b4:	4629      	mov	r1, r5
ffff31b6:	2200      	movs	r2, #0
ffff31b8:	f44f 6080 	mov.w	r0, #1024	; 0x400
ffff31bc:	f7fe fc06 	bl	ffff19cc <scc_mgr_set>
ffff31c0:	6833      	ldr	r3, [r6, #0]
ffff31c2:	4628      	mov	r0, r5
ffff31c4:	3501      	adds	r5, #1
ffff31c6:	7ad9      	ldrb	r1, [r3, #11]
ffff31c8:	f7fe fc46 	bl	ffff1a58 <scc_mgr_set_oct_out1_delay>
ffff31cc:	e7e7      	b.n	ffff319e <sdram_calibration_full+0x5b6>
ffff31ce:	bf00      	nop
ffff31d0:	ffff7a18 	.word	0xffff7a18
ffff31d4:	ffff7a08 	.word	0xffff7a08
ffff31d8:	ffc21000 	.word	0xffc21000
ffff31dc:	ffc20000 	.word	0xffc20000
ffff31e0:	51eb851f 	.word	0x51eb851f
ffff31e4:	f893 0035 	ldrb.w	r0, [r3, #53]	; 0x35
ffff31e8:	f002 ed9a 	blx	ffff5d20 <__aeabi_uidiv>
ffff31ec:	b2c0      	uxtb	r0, r0
ffff31ee:	6a3a      	ldr	r2, [r7, #32]
ffff31f0:	2301      	movs	r3, #1
ffff31f2:	4083      	lsls	r3, r0
ffff31f4:	3b01      	subs	r3, #1
ffff31f6:	4013      	ands	r3, r2
ffff31f8:	40c2      	lsrs	r2, r0
ffff31fa:	623a      	str	r2, [r7, #32]
ffff31fc:	b34b      	cbz	r3, ffff3252 <sdram_calibration_full+0x66a>
ffff31fe:	f3bf 8f5f 	dmb	sy
ffff3202:	4b95      	ldr	r3, [pc, #596]	; (ffff3458 <sdram_calibration_full+0x870>)
ffff3204:	2100      	movs	r1, #0
ffff3206:	6bfa      	ldr	r2, [r7, #60]	; 0x3c
ffff3208:	6bf8      	ldr	r0, [r7, #60]	; 0x3c
ffff320a:	601a      	str	r2, [r3, #0]
ffff320c:	f7ff f808 	bl	ffff2220 <scc_mgr_zero_group>
ffff3210:	6b3c      	ldr	r4, [r7, #48]	; 0x30
ffff3212:	2300      	movs	r3, #0
ffff3214:	62fb      	str	r3, [r7, #44]	; 0x2c
ffff3216:	697b      	ldr	r3, [r7, #20]
ffff3218:	6b3a      	ldr	r2, [r7, #48]	; 0x30
ffff321a:	4413      	add	r3, r2
ffff321c:	61fb      	str	r3, [r7, #28]
ffff321e:	429c      	cmp	r4, r3
ffff3220:	d326      	bcc.n	ffff3270 <sdram_calibration_full+0x688>
ffff3222:	f8df a238 	ldr.w	sl, [pc, #568]	; ffff345c <sdram_calibration_full+0x874>
ffff3226:	2300      	movs	r3, #0
ffff3228:	f8df b234 	ldr.w	fp, [pc, #564]	; ffff3460 <sdram_calibration_full+0x878>
ffff322c:	4698      	mov	r8, r3
ffff322e:	637b      	str	r3, [r7, #52]	; 0x34
ffff3230:	f8da 3000 	ldr.w	r3, [sl]
ffff3234:	f893 3038 	ldrb.w	r3, [r3, #56]	; 0x38
ffff3238:	4598      	cmp	r8, r3
ffff323a:	f0c0 8269 	bcc.w	ffff3710 <sdram_calibration_full+0xb28>
ffff323e:	6b7b      	ldr	r3, [r7, #52]	; 0x34
ffff3240:	2b00      	cmp	r3, #0
ffff3242:	f040 839d 	bne.w	ffff3980 <sdram_calibration_full+0xd98>
ffff3246:	6b3c      	ldr	r4, [r7, #48]	; 0x30
ffff3248:	4d84      	ldr	r5, [pc, #528]	; (ffff345c <sdram_calibration_full+0x874>)
ffff324a:	69fb      	ldr	r3, [r7, #28]
ffff324c:	429c      	cmp	r4, r3
ffff324e:	f0c0 8383 	bcc.w	ffff3958 <sdram_calibration_full+0xd70>
ffff3252:	4b82      	ldr	r3, [pc, #520]	; (ffff345c <sdram_calibration_full+0x874>)
ffff3254:	6aba      	ldr	r2, [r7, #40]	; 0x28
ffff3256:	681b      	ldr	r3, [r3, #0]
ffff3258:	f893 3034 	ldrb.w	r3, [r3, #52]	; 0x34
ffff325c:	441a      	add	r2, r3
ffff325e:	6bfb      	ldr	r3, [r7, #60]	; 0x3c
ffff3260:	62ba      	str	r2, [r7, #40]	; 0x28
ffff3262:	3301      	adds	r3, #1
ffff3264:	697a      	ldr	r2, [r7, #20]
ffff3266:	63fb      	str	r3, [r7, #60]	; 0x3c
ffff3268:	6b3b      	ldr	r3, [r7, #48]	; 0x30
ffff326a:	4413      	add	r3, r2
ffff326c:	633b      	str	r3, [r7, #48]	; 0x30
ffff326e:	e676      	b.n	ffff2f5e <sdram_calibration_full+0x376>
ffff3270:	b2a0      	uxth	r0, r4
ffff3272:	f04f 0b01 	mov.w	fp, #1
ffff3276:	f7fe fb49 	bl	ffff190c <reg_file_set_group>
ffff327a:	2001      	movs	r0, #1
ffff327c:	f7fe fb52 	bl	ffff1924 <reg_file_set_stage>
ffff3280:	f7fe fb5c 	bl	ffff193c <reg_file_set_sub_stage>
ffff3284:	4b76      	ldr	r3, [pc, #472]	; (ffff3460 <sdram_calibration_full+0x878>)
ffff3286:	681b      	ldr	r3, [r3, #0]
ffff3288:	78d9      	ldrb	r1, [r3, #3]
ffff328a:	8818      	ldrh	r0, [r3, #0]
ffff328c:	4408      	add	r0, r1
ffff328e:	3801      	subs	r0, #1
ffff3290:	f002 ed94 	blx	ffff5dbc <__aeabi_idiv>
ffff3294:	1e43      	subs	r3, r0, #1
ffff3296:	613b      	str	r3, [r7, #16]
ffff3298:	00a3      	lsls	r3, r4, #2
ffff329a:	f5a3 1377 	sub.w	r3, r3, #4046848	; 0x3dc000
ffff329e:	f5a3 5300 	sub.w	r3, r3, #8192	; 0x2000
ffff32a2:	61fb      	str	r3, [r7, #28]
ffff32a4:	2300      	movs	r3, #0
ffff32a6:	637b      	str	r3, [r7, #52]	; 0x34
ffff32a8:	2300      	movs	r3, #0
ffff32aa:	627b      	str	r3, [r7, #36]	; 0x24
ffff32ac:	2300      	movs	r3, #0
ffff32ae:	6a7a      	ldr	r2, [r7, #36]	; 0x24
ffff32b0:	4621      	mov	r1, r4
ffff32b2:	f44f 6080 	mov.w	r0, #1024	; 0x400
ffff32b6:	f7fe fb9f 	bl	ffff19f8 <scc_mgr_set_all_ranks>
ffff32ba:	f7fe fe39 	bl	ffff1f30 <rw_mgr_mem_calibrate_read_load_patterns.constprop.0>
ffff32be:	4b69      	ldr	r3, [pc, #420]	; (ffff3464 <sdram_calibration_full+0x87c>)
ffff32c0:	681b      	ldr	r3, [r3, #0]
ffff32c2:	681d      	ldr	r5, [r3, #0]
ffff32c4:	f015 0510 	ands.w	r5, r5, #16
ffff32c8:	f000 80d0 	beq.w	ffff346c <sdram_calibration_full+0x884>
ffff32cc:	4d63      	ldr	r5, [pc, #396]	; (ffff345c <sdram_calibration_full+0x874>)
ffff32ce:	2600      	movs	r6, #0
ffff32d0:	4b63      	ldr	r3, [pc, #396]	; (ffff3460 <sdram_calibration_full+0x878>)
ffff32d2:	f8df a184 	ldr.w	sl, [pc, #388]	; ffff3458 <sdram_calibration_full+0x870>
ffff32d6:	682a      	ldr	r2, [r5, #0]
ffff32d8:	681b      	ldr	r3, [r3, #0]
ffff32da:	f892 1033 	ldrb.w	r1, [r2, #51]	; 0x33
ffff32de:	7b18      	ldrb	r0, [r3, #12]
ffff32e0:	3901      	subs	r1, #1
ffff32e2:	f002 ed6c 	blx	ffff5dbc <__aeabi_idiv>
ffff32e6:	4680      	mov	r8, r0
ffff32e8:	682b      	ldr	r3, [r5, #0]
ffff32ea:	f893 3038 	ldrb.w	r3, [r3, #56]	; 0x38
ffff32ee:	429e      	cmp	r6, r3
ffff32f0:	f0c0 81a0 	bcc.w	ffff3634 <sdram_calibration_full+0xa4c>
ffff32f4:	2003      	movs	r0, #3
ffff32f6:	2100      	movs	r1, #0
ffff32f8:	f7fe fb20 	bl	ffff193c <reg_file_set_sub_stage>
ffff32fc:	4620      	mov	r0, r4
ffff32fe:	f7fe fba4 	bl	ffff1a4a <scc_mgr_set_dqs_en_delay_all_ranks>
ffff3302:	4620      	mov	r0, r4
ffff3304:	2100      	movs	r1, #0
ffff3306:	f8df 8160 	ldr.w	r8, [pc, #352]	; ffff3468 <sdram_calibration_full+0x880>
ffff330a:	f7fe fb97 	bl	ffff1a3c <scc_mgr_set_dqs_en_phase_all_ranks>
ffff330e:	4b54      	ldr	r3, [pc, #336]	; (ffff3460 <sdram_calibration_full+0x878>)
ffff3310:	2600      	movs	r6, #0
ffff3312:	4635      	mov	r5, r6
ffff3314:	681b      	ldr	r3, [r3, #0]
ffff3316:	78d9      	ldrb	r1, [r3, #3]
ffff3318:	8818      	ldrh	r0, [r3, #0]
ffff331a:	f002 ed50 	blx	ffff5dbc <__aeabi_idiv>
ffff331e:	4682      	mov	sl, r0
ffff3320:	f8d8 3000 	ldr.w	r3, [r8]
ffff3324:	7a5b      	ldrb	r3, [r3, #9]
ffff3326:	429d      	cmp	r5, r3
ffff3328:	d20a      	bcs.n	ffff3340 <sdram_calibration_full+0x758>
ffff332a:	2200      	movs	r2, #0
ffff332c:	4620      	mov	r0, r4
ffff332e:	4611      	mov	r1, r2
ffff3330:	f7fe fff2 	bl	ffff2318 <rw_mgr_mem_calibrate_read_test_all_ranks.isra.0>
ffff3334:	2800      	cmp	r0, #0
ffff3336:	f040 8181 	bne.w	ffff363c <sdram_calibration_full+0xa54>
ffff333a:	2e00      	cmp	r6, #0
ffff333c:	f000 817d 	beq.w	ffff363a <sdram_calibration_full+0xa52>
ffff3340:	f8df 811c 	ldr.w	r8, [pc, #284]	; ffff3460 <sdram_calibration_full+0x878>
ffff3344:	2600      	movs	r6, #0
ffff3346:	65be      	str	r6, [r7, #88]	; 0x58
ffff3348:	f8d8 3000 	ldr.w	r3, [r8]
ffff334c:	78d9      	ldrb	r1, [r3, #3]
ffff334e:	8818      	ldrh	r0, [r3, #0]
ffff3350:	f002 ed34 	blx	ffff5dbc <__aeabi_idiv>
ffff3354:	4605      	mov	r5, r0
ffff3356:	64fe      	str	r6, [r7, #76]	; 0x4c
ffff3358:	6cf9      	ldr	r1, [r7, #76]	; 0x4c
ffff335a:	428d      	cmp	r5, r1
ffff335c:	f080 8174 	bcs.w	ffff3648 <sdram_calibration_full+0xa60>
ffff3360:	f06f 0515 	mvn.w	r5, #21
ffff3364:	4e3d      	ldr	r6, [pc, #244]	; (ffff345c <sdram_calibration_full+0x874>)
ffff3366:	f04f 0800 	mov.w	r8, #0
ffff336a:	6833      	ldr	r3, [r6, #0]
ffff336c:	f893 3038 	ldrb.w	r3, [r3, #56]	; 0x38
ffff3370:	4598      	cmp	r8, r3
ffff3372:	f0c0 819a 	bcc.w	ffff36aa <sdram_calibration_full+0xac2>
ffff3376:	2d00      	cmp	r5, #0
ffff3378:	f040 81a6 	bne.w	ffff36c8 <sdram_calibration_full+0xae0>
ffff337c:	6af9      	ldr	r1, [r7, #44]	; 0x2c
ffff337e:	4620      	mov	r0, r4
ffff3380:	2201      	movs	r2, #1
ffff3382:	f7ff faf9 	bl	ffff2978 <rw_mgr_mem_calibrate_dq_dqs_centering.isra.0>
ffff3386:	2800      	cmp	r0, #0
ffff3388:	f040 81ab 	bne.w	ffff36e2 <sdram_calibration_full+0xafa>
ffff338c:	6b7b      	ldr	r3, [r7, #52]	; 0x34
ffff338e:	2b02      	cmp	r3, #2
ffff3390:	d903      	bls.n	ffff339a <sdram_calibration_full+0x7b2>
ffff3392:	4620      	mov	r0, r4
ffff3394:	2101      	movs	r1, #1
ffff3396:	f7fe ff43 	bl	ffff2220 <scc_mgr_zero_group>
ffff339a:	6833      	ldr	r3, [r6, #0]
ffff339c:	3401      	adds	r4, #1
ffff339e:	6afa      	ldr	r2, [r7, #44]	; 0x2c
ffff33a0:	f893 3033 	ldrb.w	r3, [r3, #51]	; 0x33
ffff33a4:	441a      	add	r2, r3
ffff33a6:	62fa      	str	r2, [r7, #44]	; 0x2c
ffff33a8:	e735      	b.n	ffff3216 <sdram_calibration_full+0x62e>
ffff33aa:	6b7b      	ldr	r3, [r7, #52]	; 0x34
ffff33ac:	2b00      	cmp	r3, #0
ffff33ae:	f43f af7b 	beq.w	ffff32a8 <sdram_calibration_full+0x6c0>
ffff33b2:	4d29      	ldr	r5, [pc, #164]	; (ffff3458 <sdram_calibration_full+0x870>)
ffff33b4:	2600      	movs	r6, #0
ffff33b6:	e03f      	b.n	ffff3438 <sdram_calibration_full+0x850>
ffff33b8:	f3bf 8f5f 	dmb	sy
ffff33bc:	f8c5 3e08 	str.w	r3, [r5, #3592]	; 0xe08
ffff33c0:	3301      	adds	r3, #1
ffff33c2:	6811      	ldr	r1, [r2, #0]
ffff33c4:	f891 1034 	ldrb.w	r1, [r1, #52]	; 0x34
ffff33c8:	428b      	cmp	r3, r1
ffff33ca:	d3f5      	bcc.n	ffff33b8 <sdram_calibration_full+0x7d0>
ffff33cc:	f8df a08c 	ldr.w	sl, [pc, #140]	; ffff345c <sdram_calibration_full+0x874>
ffff33d0:	f04f 0800 	mov.w	r8, #0
ffff33d4:	f8da 3000 	ldr.w	r3, [sl]
ffff33d8:	f893 1036 	ldrb.w	r1, [r3, #54]	; 0x36
ffff33dc:	f893 0031 	ldrb.w	r0, [r3, #49]	; 0x31
ffff33e0:	f002 ec9e 	blx	ffff5d20 <__aeabi_uidiv>
ffff33e4:	b2c0      	uxtb	r0, r0
ffff33e6:	4580      	cmp	r8, r0
ffff33e8:	d32f      	bcc.n	ffff344a <sdram_calibration_full+0x862>
ffff33ea:	f8df 8074 	ldr.w	r8, [pc, #116]	; ffff3460 <sdram_calibration_full+0x878>
ffff33ee:	f8d8 3000 	ldr.w	r3, [r8]
ffff33f2:	7b98      	ldrb	r0, [r3, #14]
ffff33f4:	6b7b      	ldr	r3, [r7, #52]	; 0x34
ffff33f6:	4283      	cmp	r3, r0
ffff33f8:	d902      	bls.n	ffff3400 <sdram_calibration_full+0x818>
ffff33fa:	1a18      	subs	r0, r3, r0
ffff33fc:	f7fe faf0 	bl	ffff19e0 <scc_mgr_set_dqs_out1_delay>
ffff3400:	f3bf 8f5f 	dmb	sy
ffff3404:	2300      	movs	r3, #0
ffff3406:	f8c5 3e04 	str.w	r3, [r5, #3588]	; 0xe04
ffff340a:	f8d8 3000 	ldr.w	r3, [r8]
ffff340e:	7b99      	ldrb	r1, [r3, #14]
ffff3410:	6b7b      	ldr	r3, [r7, #52]	; 0x34
ffff3412:	428b      	cmp	r3, r1
ffff3414:	d903      	bls.n	ffff341e <sdram_calibration_full+0x836>
ffff3416:	1a59      	subs	r1, r3, r1
ffff3418:	4620      	mov	r0, r4
ffff341a:	f7fe fb1d 	bl	ffff1a58 <scc_mgr_set_oct_out1_delay>
ffff341e:	4620      	mov	r0, r4
ffff3420:	f7fe fb36 	bl	ffff1a90 <scc_mgr_load_dqs_for_write_group>
ffff3424:	f3bf 8f5f 	dmb	sy
ffff3428:	2300      	movs	r3, #0
ffff342a:	f8c5 3e20 	str.w	r3, [r5, #3616]	; 0xe20
ffff342e:	4b0b      	ldr	r3, [pc, #44]	; (ffff345c <sdram_calibration_full+0x874>)
ffff3430:	681b      	ldr	r3, [r3, #0]
ffff3432:	f893 3038 	ldrb.w	r3, [r3, #56]	; 0x38
ffff3436:	441e      	add	r6, r3
ffff3438:	4a08      	ldr	r2, [pc, #32]	; (ffff345c <sdram_calibration_full+0x874>)
ffff343a:	6813      	ldr	r3, [r2, #0]
ffff343c:	f893 3038 	ldrb.w	r3, [r3, #56]	; 0x38
ffff3440:	429e      	cmp	r6, r3
ffff3442:	f6bf af31 	bge.w	ffff32a8 <sdram_calibration_full+0x6c0>
ffff3446:	2300      	movs	r3, #0
ffff3448:	e7bb      	b.n	ffff33c2 <sdram_calibration_full+0x7da>
ffff344a:	f3bf 8f5f 	dmb	sy
ffff344e:	f8c5 8e0c 	str.w	r8, [r5, #3596]	; 0xe0c
ffff3452:	f108 0801 	add.w	r8, r8, #1
ffff3456:	e7bd      	b.n	ffff33d4 <sdram_calibration_full+0x7ec>
ffff3458:	ffc20000 	.word	0xffc20000
ffff345c:	ffff7a18 	.word	0xffff7a18
ffff3460:	ffff7a0c 	.word	0xffff7a0c
ffff3464:	ffff7a08 	.word	0xffff7a08
ffff3468:	ffff7a10 	.word	0xffff7a10
ffff346c:	4b9e      	ldr	r3, [pc, #632]	; (ffff36e8 <sdram_calibration_full+0xb00>)
ffff346e:	681b      	ldr	r3, [r3, #0]
ffff3470:	f893 1039 	ldrb.w	r1, [r3, #57]	; 0x39
ffff3474:	f893 0033 	ldrb.w	r0, [r3, #51]	; 0x33
ffff3478:	f893 a038 	ldrb.w	sl, [r3, #56]	; 0x38
ffff347c:	fb04 f201 	mul.w	r2, r4, r1
ffff3480:	0092      	lsls	r2, r2, #2
ffff3482:	60fa      	str	r2, [r7, #12]
ffff3484:	f002 ec4c 	blx	ffff5d20 <__aeabi_uidiv>
ffff3488:	4b98      	ldr	r3, [pc, #608]	; (ffff36ec <sdram_calibration_full+0xb04>)
ffff348a:	fa5f f880 	uxtb.w	r8, r0
ffff348e:	4628      	mov	r0, r5
ffff3490:	681b      	ldr	r3, [r3, #0]
ffff3492:	681e      	ldr	r6, [r3, #0]
ffff3494:	685a      	ldr	r2, [r3, #4]
ffff3496:	60ba      	str	r2, [r7, #8]
ffff3498:	4d93      	ldr	r5, [pc, #588]	; (ffff36e8 <sdram_calibration_full+0xb00>)
ffff349a:	4582      	cmp	sl, r0
ffff349c:	d868      	bhi.n	ffff3570 <sdram_calibration_full+0x988>
ffff349e:	682b      	ldr	r3, [r5, #0]
ffff34a0:	791b      	ldrb	r3, [r3, #4]
ffff34a2:	f3bf 8f5f 	dmb	sy
ffff34a6:	69fa      	ldr	r2, [r7, #28]
ffff34a8:	2100      	movs	r1, #0
ffff34aa:	4608      	mov	r0, r1
ffff34ac:	6013      	str	r3, [r2, #0]
ffff34ae:	f7fe fa51 	bl	ffff1954 <set_rank_and_odt_mask>
ffff34b2:	4b8e      	ldr	r3, [pc, #568]	; (ffff36ec <sdram_calibration_full+0xb04>)
ffff34b4:	681b      	ldr	r3, [r3, #0]
ffff34b6:	681b      	ldr	r3, [r3, #0]
ffff34b8:	429e      	cmp	r6, r3
ffff34ba:	f43f af07 	beq.w	ffff32cc <sdram_calibration_full+0x6e4>
ffff34be:	6b7b      	ldr	r3, [r7, #52]	; 0x34
ffff34c0:	3302      	adds	r3, #2
ffff34c2:	637b      	str	r3, [r7, #52]	; 0x34
ffff34c4:	6b7a      	ldr	r2, [r7, #52]	; 0x34
ffff34c6:	693b      	ldr	r3, [r7, #16]
ffff34c8:	4293      	cmp	r3, r2
ffff34ca:	f4bf af6e 	bcs.w	ffff33aa <sdram_calibration_full+0x7c2>
ffff34ce:	465a      	mov	r2, fp
ffff34d0:	2101      	movs	r1, #1
ffff34d2:	4620      	mov	r0, r4
ffff34d4:	f7fe fa0e 	bl	ffff18f4 <set_failing_group_stage>
ffff34d8:	4b85      	ldr	r3, [pc, #532]	; (ffff36f0 <sdram_calibration_full+0xb08>)
ffff34da:	681b      	ldr	r3, [r3, #0]
ffff34dc:	681b      	ldr	r3, [r3, #0]
ffff34de:	0719      	lsls	r1, r3, #28
ffff34e0:	f100 824e 	bmi.w	ffff3980 <sdram_calibration_full+0xd98>
ffff34e4:	2300      	movs	r3, #0
ffff34e6:	63bb      	str	r3, [r7, #56]	; 0x38
ffff34e8:	f7fe fc1c 	bl	ffff1d24 <mem_precharge_and_activate>
ffff34ec:	f3bf 8f5f 	dmb	sy
ffff34f0:	4c80      	ldr	r4, [pc, #512]	; (ffff36f4 <sdram_calibration_full+0xb0c>)
ffff34f2:	2300      	movs	r3, #0
ffff34f4:	2201      	movs	r2, #1
ffff34f6:	60a3      	str	r3, [r4, #8]
ffff34f8:	4b7b      	ldr	r3, [pc, #492]	; (ffff36e8 <sdram_calibration_full+0xb00>)
ffff34fa:	681b      	ldr	r3, [r3, #0]
ffff34fc:	7fd9      	ldrb	r1, [r3, #31]
ffff34fe:	f893 0020 	ldrb.w	r0, [r3, #32]
ffff3502:	f7fe fb7b 	bl	ffff1bfc <rw_mgr_mem_load_user>
ffff3506:	f3bf 8f5f 	dmb	sy
ffff350a:	2002      	movs	r0, #2
ffff350c:	64a0      	str	r0, [r4, #72]	; 0x48
ffff350e:	f3bf 8f5f 	dmb	sy
ffff3512:	4b79      	ldr	r3, [pc, #484]	; (ffff36f8 <sdram_calibration_full+0xb10>)
ffff3514:	69ba      	ldr	r2, [r7, #24]
ffff3516:	601a      	str	r2, [r3, #0]
ffff3518:	6bbb      	ldr	r3, [r7, #56]	; 0x38
ffff351a:	4a75      	ldr	r2, [pc, #468]	; (ffff36f0 <sdram_calibration_full+0xb08>)
ffff351c:	2b00      	cmp	r3, #0
ffff351e:	f000 8239 	beq.w	ffff3994 <sdram_calibration_full+0xdac>
ffff3522:	6813      	ldr	r3, [r2, #0]
ffff3524:	6959      	ldr	r1, [r3, #20]
ffff3526:	699a      	ldr	r2, [r3, #24]
ffff3528:	0849      	lsrs	r1, r1, #1
ffff352a:	6159      	str	r1, [r3, #20]
ffff352c:	29ff      	cmp	r1, #255	; 0xff
ffff352e:	ea4f 0252 	mov.w	r2, r2, lsr #1
ffff3532:	619a      	str	r2, [r3, #24]
ffff3534:	bf84      	itt	hi
ffff3536:	21ff      	movhi	r1, #255	; 0xff
ffff3538:	6159      	strhi	r1, [r3, #20]
ffff353a:	2aff      	cmp	r2, #255	; 0xff
ffff353c:	bf84      	itt	hi
ffff353e:	22ff      	movhi	r2, #255	; 0xff
ffff3540:	619a      	strhi	r2, [r3, #24]
ffff3542:	695a      	ldr	r2, [r3, #20]
ffff3544:	699b      	ldr	r3, [r3, #24]
ffff3546:	ea42 2303 	orr.w	r3, r2, r3, lsl #8
ffff354a:	f3bf 8f5f 	dmb	sy
ffff354e:	4a6b      	ldr	r2, [pc, #428]	; (ffff36fc <sdram_calibration_full+0xb14>)
ffff3550:	f8c2 380c 	str.w	r3, [r2, #2060]	; 0x80c
ffff3554:	f3bf 8f5f 	dmb	sy
ffff3558:	f5a2 5240 	sub.w	r2, r2, #12288	; 0x3000
ffff355c:	6513      	str	r3, [r2, #80]	; 0x50
ffff355e:	f3bf 8f5f 	dmb	sy
ffff3562:	2301      	movs	r3, #1
ffff3564:	64d3      	str	r3, [r2, #76]	; 0x4c
ffff3566:	6bb8      	ldr	r0, [r7, #56]	; 0x38
ffff3568:	3790      	adds	r7, #144	; 0x90
ffff356a:	46bd      	mov	sp, r7
ffff356c:	e8bd 8df0 	ldmia.w	sp!, {r4, r5, r6, r7, r8, sl, fp, pc}
ffff3570:	2101      	movs	r1, #1
ffff3572:	f7fe f9ef 	bl	ffff1954 <set_rank_and_odt_mask>
ffff3576:	f3bf 8f5f 	dmb	sy
ffff357a:	4961      	ldr	r1, [pc, #388]	; (ffff3700 <sdram_calibration_full+0xb18>)
ffff357c:	2220      	movs	r2, #32
ffff357e:	682b      	ldr	r3, [r5, #0]
ffff3580:	f8c1 2800 	str.w	r2, [r1, #2048]	; 0x800
ffff3584:	795b      	ldrb	r3, [r3, #5]
ffff3586:	f3bf 8f5f 	dmb	sy
ffff358a:	f8c1 3c00 	str.w	r3, [r1, #3072]	; 0xc00
ffff358e:	f3bf 8f5f 	dmb	sy
ffff3592:	682b      	ldr	r3, [r5, #0]
ffff3594:	f8c1 2804 	str.w	r2, [r1, #2052]	; 0x804
ffff3598:	799b      	ldrb	r3, [r3, #6]
ffff359a:	f3bf 8f5f 	dmb	sy
ffff359e:	f8c1 3c04 	str.w	r3, [r1, #3076]	; 0xc04
ffff35a2:	682b      	ldr	r3, [r5, #0]
ffff35a4:	f8df c15c 	ldr.w	ip, [pc, #348]	; ffff3704 <sdram_calibration_full+0xb1c>
ffff35a8:	68fa      	ldr	r2, [r7, #12]
ffff35aa:	f893 1039 	ldrb.w	r1, [r3, #57]	; 0x39
ffff35ae:	2300      	movs	r3, #0
ffff35b0:	4494      	add	ip, r2
ffff35b2:	469e      	mov	lr, r3
ffff35b4:	b911      	cbnz	r1, ffff35bc <sdram_calibration_full+0x9d4>
ffff35b6:	401e      	ands	r6, r3
ffff35b8:	3001      	adds	r0, #1
ffff35ba:	e76d      	b.n	ffff3498 <sdram_calibration_full+0x8b0>
ffff35bc:	f3bf 8f5f 	dmb	sy
ffff35c0:	4a4c      	ldr	r2, [pc, #304]	; (ffff36f4 <sdram_calibration_full+0xb0c>)
ffff35c2:	f8c2 e008 	str.w	lr, [r2, #8]
ffff35c6:	f3bf 8f5f 	dmb	sy
ffff35ca:	f502 5200 	add.w	r2, r2, #8192	; 0x2000
ffff35ce:	f8c2 e000 	str.w	lr, [r2]
ffff35d2:	682a      	ldr	r2, [r5, #0]
ffff35d4:	7952      	ldrb	r2, [r2, #5]
ffff35d6:	f3bf 8f5f 	dmb	sy
ffff35da:	f84c 2021 	str.w	r2, [ip, r1, lsl #2]
ffff35de:	4a48      	ldr	r2, [pc, #288]	; (ffff3700 <sdram_calibration_full+0xb18>)
ffff35e0:	6812      	ldr	r2, [r2, #0]
ffff35e2:	f3bf 8f5f 	dmb	sy
ffff35e6:	fa03 f308 	lsl.w	r3, r3, r8
ffff35ea:	607b      	str	r3, [r7, #4]
ffff35ec:	68bb      	ldr	r3, [r7, #8]
ffff35ee:	3901      	subs	r1, #1
ffff35f0:	ea23 0202 	bic.w	r2, r3, r2
ffff35f4:	687b      	ldr	r3, [r7, #4]
ffff35f6:	4313      	orrs	r3, r2
ffff35f8:	e7dc      	b.n	ffff35b4 <sdram_calibration_full+0x9cc>
ffff35fa:	4659      	mov	r1, fp
ffff35fc:	f44f 6010 	mov.w	r0, #2304	; 0x900
ffff3600:	f7fe f9e4 	bl	ffff19cc <scc_mgr_set>
ffff3604:	f3bf 8f5f 	dmb	sy
ffff3608:	3301      	adds	r3, #1
ffff360a:	4442      	add	r2, r8
ffff360c:	f8ca be08 	str.w	fp, [sl, #3592]	; 0xe08
ffff3610:	6af9      	ldr	r1, [r7, #44]	; 0x2c
ffff3612:	eb01 0b03 	add.w	fp, r1, r3
ffff3616:	6829      	ldr	r1, [r5, #0]
ffff3618:	f891 1033 	ldrb.w	r1, [r1, #51]	; 0x33
ffff361c:	428b      	cmp	r3, r1
ffff361e:	d3ec      	bcc.n	ffff35fa <sdram_calibration_full+0xa12>
ffff3620:	f3bf 8f5f 	dmb	sy
ffff3624:	2300      	movs	r3, #0
ffff3626:	f8ca 3e20 	str.w	r3, [sl, #3616]	; 0xe20
ffff362a:	682b      	ldr	r3, [r5, #0]
ffff362c:	f893 3038 	ldrb.w	r3, [r3, #56]	; 0x38
ffff3630:	441e      	add	r6, r3
ffff3632:	e659      	b.n	ffff32e8 <sdram_calibration_full+0x700>
ffff3634:	2200      	movs	r2, #0
ffff3636:	4613      	mov	r3, r2
ffff3638:	e7ea      	b.n	ffff3610 <sdram_calibration_full+0xa28>
ffff363a:	2601      	movs	r6, #1
ffff363c:	f3bf 8f5f 	dmb	sy
ffff3640:	4b2c      	ldr	r3, [pc, #176]	; (ffff36f4 <sdram_calibration_full+0xb0c>)
ffff3642:	3501      	adds	r5, #1
ffff3644:	605c      	str	r4, [r3, #4]
ffff3646:	e66b      	b.n	ffff3320 <sdram_calibration_full+0x738>
ffff3648:	4620      	mov	r0, r4
ffff364a:	657e      	str	r6, [r7, #84]	; 0x54
ffff364c:	f7fe f9fd 	bl	ffff1a4a <scc_mgr_set_dqs_en_delay_all_ranks>
ffff3650:	f107 0350 	add.w	r3, r7, #80	; 0x50
ffff3654:	f107 0258 	add.w	r2, r7, #88	; 0x58
ffff3658:	9300      	str	r3, [sp, #0]
ffff365a:	4621      	mov	r1, r4
ffff365c:	f107 0354 	add.w	r3, r7, #84	; 0x54
ffff3660:	2001      	movs	r0, #1
ffff3662:	f7fe feb5 	bl	ffff23d0 <sdr_find_phase>
ffff3666:	6dbb      	ldr	r3, [r7, #88]	; 0x58
ffff3668:	2800      	cmp	r0, #0
ffff366a:	f000 81bd 	beq.w	ffff39e8 <sdram_calibration_full+0xe00>
ffff366e:	f8d8 2000 	ldr.w	r2, [r8]
ffff3672:	78d2      	ldrb	r2, [r2, #3]
ffff3674:	4413      	add	r3, r2
ffff3676:	65bb      	str	r3, [r7, #88]	; 0x58
ffff3678:	6cfb      	ldr	r3, [r7, #76]	; 0x4c
ffff367a:	3301      	adds	r3, #1
ffff367c:	64fb      	str	r3, [r7, #76]	; 0x4c
ffff367e:	e66b      	b.n	ffff3358 <sdram_calibration_full+0x770>
ffff3680:	3b01      	subs	r3, #1
ffff3682:	653b      	str	r3, [r7, #80]	; 0x50
ffff3684:	e1bf      	b.n	ffff3a06 <sdram_calibration_full+0xe1e>
ffff3686:	f8d8 3000 	ldr.w	r3, [r8]
ffff368a:	3601      	adds	r6, #1
ffff368c:	78da      	ldrb	r2, [r3, #3]
ffff368e:	799b      	ldrb	r3, [r3, #6]
ffff3690:	4415      	add	r5, r2
ffff3692:	429e      	cmp	r6, r3
ffff3694:	f240 81c1 	bls.w	ffff3a1a <sdram_calibration_full+0xe32>
ffff3698:	e1cf      	b.n	ffff3a3a <sdram_calibration_full+0xe52>
ffff369a:	3b01      	subs	r3, #1
ffff369c:	653b      	str	r3, [r7, #80]	; 0x50
ffff369e:	e210      	b.n	ffff3ac2 <sdram_calibration_full+0xeda>
ffff36a0:	3b01      	subs	r3, #1
ffff36a2:	653b      	str	r3, [r7, #80]	; 0x50
ffff36a4:	e23d      	b.n	ffff3b22 <sdram_calibration_full+0xf3a>
ffff36a6:	2500      	movs	r5, #0
ffff36a8:	e65c      	b.n	ffff3364 <sdram_calibration_full+0x77c>
ffff36aa:	6af8      	ldr	r0, [r7, #44]	; 0x2c
ffff36ac:	2100      	movs	r1, #0
ffff36ae:	f7fe fff9 	bl	ffff26a4 <scc_mgr_apply_group_dq_in_delay>
ffff36b2:	f3bf 8f5f 	dmb	sy
ffff36b6:	4b14      	ldr	r3, [pc, #80]	; (ffff3708 <sdram_calibration_full+0xb20>)
ffff36b8:	2200      	movs	r2, #0
ffff36ba:	f8c3 2e20 	str.w	r2, [r3, #3616]	; 0xe20
ffff36be:	6833      	ldr	r3, [r6, #0]
ffff36c0:	f893 3038 	ldrb.w	r3, [r3, #56]	; 0x38
ffff36c4:	4498      	add	r8, r3
ffff36c6:	e650      	b.n	ffff336a <sdram_calibration_full+0x782>
ffff36c8:	f04f 0b02 	mov.w	fp, #2
ffff36cc:	6a7b      	ldr	r3, [r7, #36]	; 0x24
ffff36ce:	3301      	adds	r3, #1
ffff36d0:	627b      	str	r3, [r7, #36]	; 0x24
ffff36d2:	4b0e      	ldr	r3, [pc, #56]	; (ffff370c <sdram_calibration_full+0xb24>)
ffff36d4:	6a7a      	ldr	r2, [r7, #36]	; 0x24
ffff36d6:	681b      	ldr	r3, [r3, #0]
ffff36d8:	795b      	ldrb	r3, [r3, #5]
ffff36da:	429a      	cmp	r2, r3
ffff36dc:	f67f ade6 	bls.w	ffff32ac <sdram_calibration_full+0x6c4>
ffff36e0:	e6ed      	b.n	ffff34be <sdram_calibration_full+0x8d6>
ffff36e2:	f04f 0b03 	mov.w	fp, #3
ffff36e6:	e7f1      	b.n	ffff36cc <sdram_calibration_full+0xae4>
ffff36e8:	ffff7a18 	.word	0xffff7a18
ffff36ec:	ffff7a14 	.word	0xffff7a14
ffff36f0:	ffff7a08 	.word	0xffff7a08
ffff36f4:	ffc21000 	.word	0xffc21000
ffff36f8:	ffc25000 	.word	0xffc25000
ffff36fc:	ffc24000 	.word	0xffc24000
ffff3700:	ffc22000 	.word	0xffc22000
ffff3704:	ffc21ffc 	.word	0xffc21ffc
ffff3708:	ffc20000 	.word	0xffc20000
ffff370c:	ffff7a0c 	.word	0xffff7a0c
ffff3710:	8fb8      	ldrh	r0, [r7, #60]	; 0x3c
ffff3712:	f7fe f8fb 	bl	ffff190c <reg_file_set_group>
ffff3716:	2004      	movs	r0, #4
ffff3718:	f7fe f904 	bl	ffff1924 <reg_file_set_stage>
ffff371c:	2001      	movs	r0, #1
ffff371e:	f7fe f90d 	bl	ffff193c <reg_file_set_sub_stage>
ffff3722:	f8da 3000 	ldr.w	r3, [sl]
ffff3726:	f8c7 d024 	str.w	sp, [r7, #36]	; 0x24
ffff372a:	f893 2034 	ldrb.w	r2, [r3, #52]	; 0x34
ffff372e:	0093      	lsls	r3, r2, #2
ffff3730:	0092      	lsls	r2, r2, #2
ffff3732:	3307      	adds	r3, #7
ffff3734:	f5a2 1277 	sub.w	r2, r2, #4046848	; 0x3dc000
ffff3738:	f403 63ff 	and.w	r3, r3, #2040	; 0x7f8
ffff373c:	f5a2 5264 	sub.w	r2, r2, #14592	; 0x3900
ffff3740:	ebad 0d03 	sub.w	sp, sp, r3
ffff3744:	ad06      	add	r5, sp, #24
ffff3746:	ebad 0d03 	sub.w	sp, sp, r3
ffff374a:	f8db 3000 	ldr.w	r3, [fp]
ffff374e:	ac06      	add	r4, sp, #24
ffff3750:	7b5b      	ldrb	r3, [r3, #13]
ffff3752:	4403      	add	r3, r0
ffff3754:	64fb      	str	r3, [r7, #76]	; 0x4c
ffff3756:	e9c7 3314 	strd	r3, r3, [r7, #80]	; 0x50
ffff375a:	65bb      	str	r3, [r7, #88]	; 0x58
ffff375c:	2300      	movs	r3, #0
ffff375e:	65fb      	str	r3, [r7, #92]	; 0x5c
ffff3760:	6812      	ldr	r2, [r2, #0]
ffff3762:	62fa      	str	r2, [r7, #44]	; 0x2c
ffff3764:	f3bf 8f5f 	dmb	sy
ffff3768:	f8da 2000 	ldr.w	r2, [sl]
ffff376c:	f8db 0000 	ldr.w	r0, [fp]
ffff3770:	643b      	str	r3, [r7, #64]	; 0x40
ffff3772:	f892 1034 	ldrb.w	r1, [r2, #52]	; 0x34
ffff3776:	428b      	cmp	r3, r1
ffff3778:	db35      	blt.n	ffff37e6 <sdram_calibration_full+0xbfe>
ffff377a:	2600      	movs	r6, #0
ffff377c:	9403      	str	r4, [sp, #12]
ffff377e:	9604      	str	r6, [sp, #16]
ffff3780:	f107 0340 	add.w	r3, r7, #64	; 0x40
ffff3784:	9502      	str	r5, [sp, #8]
ffff3786:	4641      	mov	r1, r8
ffff3788:	9301      	str	r3, [sp, #4]
ffff378a:	2001      	movs	r0, #1
ffff378c:	6abb      	ldr	r3, [r7, #40]	; 0x28
ffff378e:	9300      	str	r3, [sp, #0]
ffff3790:	4633      	mov	r3, r6
ffff3792:	6bfa      	ldr	r2, [r7, #60]	; 0x3c
ffff3794:	f7fe ffa2 	bl	ffff26dc <search_left_edge.constprop.0>
ffff3798:	9605      	str	r6, [sp, #20]
ffff379a:	9601      	str	r6, [sp, #4]
ffff379c:	f107 0340 	add.w	r3, r7, #64	; 0x40
ffff37a0:	9404      	str	r4, [sp, #16]
ffff37a2:	4641      	mov	r1, r8
ffff37a4:	9503      	str	r5, [sp, #12]
ffff37a6:	2001      	movs	r0, #1
ffff37a8:	9302      	str	r3, [sp, #8]
ffff37aa:	6afb      	ldr	r3, [r7, #44]	; 0x2c
ffff37ac:	9300      	str	r3, [sp, #0]
ffff37ae:	4633      	mov	r3, r6
ffff37b0:	6bfa      	ldr	r2, [r7, #60]	; 0x3c
ffff37b2:	f7ff f827 	bl	ffff2804 <search_right_edge>
ffff37b6:	4606      	mov	r6, r0
ffff37b8:	b1e8      	cbz	r0, ffff37f6 <sdram_calibration_full+0xc0e>
ffff37ba:	6abb      	ldr	r3, [r7, #40]	; 0x28
ffff37bc:	2201      	movs	r2, #1
ffff37be:	2104      	movs	r1, #4
ffff37c0:	1e58      	subs	r0, r3, #1
ffff37c2:	4430      	add	r0, r6
ffff37c4:	f7fe f896 	bl	ffff18f4 <set_failing_group_stage>
ffff37c8:	2201      	movs	r2, #1
ffff37ca:	2104      	movs	r1, #4
ffff37cc:	f8d7 d024 	ldr.w	sp, [r7, #36]	; 0x24
ffff37d0:	6bf8      	ldr	r0, [r7, #60]	; 0x3c
ffff37d2:	f7fe f88f 	bl	ffff18f4 <set_failing_group_stage>
ffff37d6:	4b80      	ldr	r3, [pc, #512]	; (ffff39d8 <sdram_calibration_full+0xdf0>)
ffff37d8:	681b      	ldr	r3, [r3, #0]
ffff37da:	681b      	ldr	r3, [r3, #0]
ffff37dc:	071b      	lsls	r3, r3, #28
ffff37de:	f57f ae81 	bpl.w	ffff34e4 <sdram_calibration_full+0x8fc>
ffff37e2:	637a      	str	r2, [r7, #52]	; 0x34
ffff37e4:	e0a4      	b.n	ffff3930 <sdram_calibration_full+0xd48>
ffff37e6:	7b42      	ldrb	r2, [r0, #13]
ffff37e8:	3201      	adds	r2, #1
ffff37ea:	f845 2023 	str.w	r2, [r5, r3, lsl #2]
ffff37ee:	f844 2023 	str.w	r2, [r4, r3, lsl #2]
ffff37f2:	3301      	adds	r3, #1
ffff37f4:	e7bf      	b.n	ffff3776 <sdram_calibration_full+0xb8e>
ffff37f6:	f8da 3000 	ldr.w	r3, [sl]
ffff37fa:	4684      	mov	ip, r0
ffff37fc:	682a      	ldr	r2, [r5, #0]
ffff37fe:	f893 e034 	ldrb.w	lr, [r3, #52]	; 0x34
ffff3802:	6823      	ldr	r3, [r4, #0]
ffff3804:	1ad3      	subs	r3, r2, r3
ffff3806:	2201      	movs	r2, #1
ffff3808:	4596      	cmp	lr, r2
ffff380a:	f200 8097 	bhi.w	ffff393c <sdram_calibration_full+0xd54>
ffff380e:	2b00      	cmp	r3, #0
ffff3810:	f107 0248 	add.w	r2, r7, #72	; 0x48
ffff3814:	bfc8      	it	gt
ffff3816:	3301      	addgt	r3, #1
ffff3818:	4629      	mov	r1, r5
ffff381a:	9204      	str	r2, [sp, #16]
ffff381c:	2001      	movs	r0, #1
ffff381e:	eb03 73d3 	add.w	r3, r3, r3, lsr #31
ffff3822:	f107 0244 	add.w	r2, r7, #68	; 0x44
ffff3826:	f8cd c004 	str.w	ip, [sp, #4]
ffff382a:	9203      	str	r2, [sp, #12]
ffff382c:	105b      	asrs	r3, r3, #1
ffff382e:	2200      	movs	r2, #0
ffff3830:	9300      	str	r3, [sp, #0]
ffff3832:	9202      	str	r2, [sp, #8]
ffff3834:	4613      	mov	r3, r2
ffff3836:	4622      	mov	r2, r4
ffff3838:	f7fe feb4 	bl	ffff25a4 <center_dq_windows>
ffff383c:	6af9      	ldr	r1, [r7, #44]	; 0x2c
ffff383e:	6bf8      	ldr	r0, [r7, #60]	; 0x3c
ffff3840:	f7fe fdae 	bl	ffff23a0 <scc_mgr_apply_group_dqs_io_and_oct_out1>
ffff3844:	f3bf 8f5f 	dmb	sy
ffff3848:	4b64      	ldr	r3, [pc, #400]	; (ffff39dc <sdram_calibration_full+0xdf4>)
ffff384a:	2200      	movs	r2, #0
ffff384c:	4641      	mov	r1, r8
ffff384e:	2001      	movs	r0, #1
ffff3850:	f8c3 2e20 	str.w	r2, [r3, #3616]	; 0xe20
ffff3854:	f8db 3000 	ldr.w	r3, [fp]
ffff3858:	7b5b      	ldrb	r3, [r3, #13]
ffff385a:	3301      	adds	r3, #1
ffff385c:	602b      	str	r3, [r5, #0]
ffff385e:	6023      	str	r3, [r4, #0]
ffff3860:	f107 035c 	add.w	r3, r7, #92	; 0x5c
ffff3864:	9204      	str	r2, [sp, #16]
ffff3866:	9303      	str	r3, [sp, #12]
ffff3868:	f107 0358 	add.w	r3, r7, #88	; 0x58
ffff386c:	9302      	str	r3, [sp, #8]
ffff386e:	f107 0354 	add.w	r3, r7, #84	; 0x54
ffff3872:	9301      	str	r3, [sp, #4]
ffff3874:	f107 0350 	add.w	r3, r7, #80	; 0x50
ffff3878:	9300      	str	r3, [sp, #0]
ffff387a:	f107 034c 	add.w	r3, r7, #76	; 0x4c
ffff387e:	6bfa      	ldr	r2, [r7, #60]	; 0x3c
ffff3880:	f7fe fe0a 	bl	ffff2498 <search_window>
ffff3884:	2000      	movs	r0, #0
ffff3886:	f7fe fde1 	bl	ffff244c <scc_mgr_apply_group_dm_out1_delay>
ffff388a:	6d3b      	ldr	r3, [r7, #80]	; 0x50
ffff388c:	b12b      	cbz	r3, ffff389a <sdram_calibration_full+0xcb2>
ffff388e:	f8db 3000 	ldr.w	r3, [fp]
ffff3892:	7b5b      	ldrb	r3, [r3, #13]
ffff3894:	3301      	adds	r3, #1
ffff3896:	64fb      	str	r3, [r7, #76]	; 0x4c
ffff3898:	653b      	str	r3, [r7, #80]	; 0x50
ffff389a:	6afb      	ldr	r3, [r7, #44]	; 0x2c
ffff389c:	4641      	mov	r1, r8
ffff389e:	9304      	str	r3, [sp, #16]
ffff38a0:	f107 035c 	add.w	r3, r7, #92	; 0x5c
ffff38a4:	9303      	str	r3, [sp, #12]
ffff38a6:	f107 0358 	add.w	r3, r7, #88	; 0x58
ffff38aa:	9302      	str	r3, [sp, #8]
ffff38ac:	f107 0354 	add.w	r3, r7, #84	; 0x54
ffff38b0:	9301      	str	r3, [sp, #4]
ffff38b2:	f107 0350 	add.w	r3, r7, #80	; 0x50
ffff38b6:	9300      	str	r3, [sp, #0]
ffff38b8:	2000      	movs	r0, #0
ffff38ba:	6bfa      	ldr	r2, [r7, #60]	; 0x3c
ffff38bc:	f107 034c 	add.w	r3, r7, #76	; 0x4c
ffff38c0:	f7fe fdea 	bl	ffff2498 <search_window>
ffff38c4:	6d7b      	ldr	r3, [r7, #84]	; 0x54
ffff38c6:	6bf8      	ldr	r0, [r7, #60]	; 0x3c
ffff38c8:	425b      	negs	r3, r3
ffff38ca:	602b      	str	r3, [r5, #0]
ffff38cc:	6dbb      	ldr	r3, [r7, #88]	; 0x58
ffff38ce:	6023      	str	r3, [r4, #0]
ffff38d0:	6af9      	ldr	r1, [r7, #44]	; 0x2c
ffff38d2:	f7fe fd65 	bl	ffff23a0 <scc_mgr_apply_group_dqs_io_and_oct_out1>
ffff38d6:	682b      	ldr	r3, [r5, #0]
ffff38d8:	6820      	ldr	r0, [r4, #0]
ffff38da:	1a18      	subs	r0, r3, r0
ffff38dc:	1c42      	adds	r2, r0, #1
ffff38de:	6dfa      	ldr	r2, [r7, #92]	; 0x5c
ffff38e0:	bfa4      	itt	ge
ffff38e2:	eb00 70d0 	addge.w	r0, r0, r0, lsr #31
ffff38e6:	1046      	asrge	r6, r0, #1
ffff38e8:	b39a      	cbz	r2, ffff3952 <sdram_calibration_full+0xd6a>
ffff38ea:	1b9c      	subs	r4, r3, r6
ffff38ec:	4630      	mov	r0, r6
ffff38ee:	f7fe fdad 	bl	ffff244c <scc_mgr_apply_group_dm_out1_delay>
ffff38f2:	f3bf 8f5f 	dmb	sy
ffff38f6:	4a39      	ldr	r2, [pc, #228]	; (ffff39dc <sdram_calibration_full+0xdf4>)
ffff38f8:	2000      	movs	r0, #0
ffff38fa:	4b37      	ldr	r3, [pc, #220]	; (ffff39d8 <sdram_calibration_full+0xdf0>)
ffff38fc:	f8c2 0e20 	str.w	r0, [r2, #3616]	; 0xe20
ffff3900:	681d      	ldr	r5, [r3, #0]
ffff3902:	6cb9      	ldr	r1, [r7, #72]	; 0x48
ffff3904:	6c7b      	ldr	r3, [r7, #68]	; 0x44
ffff3906:	4419      	add	r1, r3
ffff3908:	69ab      	ldr	r3, [r5, #24]
ffff390a:	440b      	add	r3, r1
ffff390c:	61ab      	str	r3, [r5, #24]
ffff390e:	f3bf 8f5f 	dmb	sy
ffff3912:	f8c2 0e20 	str.w	r0, [r2, #3616]	; 0xe20
ffff3916:	6c7b      	ldr	r3, [r7, #68]	; 0x44
ffff3918:	4283      	cmp	r3, r0
ffff391a:	f6ff af55 	blt.w	ffff37c8 <sdram_calibration_full+0xbe0>
ffff391e:	6cbb      	ldr	r3, [r7, #72]	; 0x48
ffff3920:	4283      	cmp	r3, r0
ffff3922:	f6ff af51 	blt.w	ffff37c8 <sdram_calibration_full+0xbe0>
ffff3926:	4284      	cmp	r4, r0
ffff3928:	f6ff af4e 	blt.w	ffff37c8 <sdram_calibration_full+0xbe0>
ffff392c:	f8d7 d024 	ldr.w	sp, [r7, #36]	; 0x24
ffff3930:	f8da 3000 	ldr.w	r3, [sl]
ffff3934:	f893 3038 	ldrb.w	r3, [r3, #56]	; 0x38
ffff3938:	4498      	add	r8, r3
ffff393a:	e479      	b.n	ffff3230 <sdram_calibration_full+0x648>
ffff393c:	f855 1022 	ldr.w	r1, [r5, r2, lsl #2]
ffff3940:	f854 0022 	ldr.w	r0, [r4, r2, lsl #2]
ffff3944:	1a09      	subs	r1, r1, r0
ffff3946:	4299      	cmp	r1, r3
ffff3948:	bfbc      	itt	lt
ffff394a:	4694      	movlt	ip, r2
ffff394c:	460b      	movlt	r3, r1
ffff394e:	3201      	adds	r2, #1
ffff3950:	e75a      	b.n	ffff3808 <sdram_calibration_full+0xc20>
ffff3952:	f04f 34ff 	mov.w	r4, #4294967295
ffff3956:	e7c9      	b.n	ffff38ec <sdram_calibration_full+0xd04>
ffff3958:	b2a0      	uxth	r0, r4
ffff395a:	f7fd ffd7 	bl	ffff190c <reg_file_set_group>
ffff395e:	2009      	movs	r0, #9
ffff3960:	f7fd ffe0 	bl	ffff1924 <reg_file_set_stage>
ffff3964:	2003      	movs	r0, #3
ffff3966:	f7fd ffe9 	bl	ffff193c <reg_file_set_sub_stage>
ffff396a:	6b79      	ldr	r1, [r7, #52]	; 0x34
ffff396c:	4620      	mov	r0, r4
ffff396e:	2200      	movs	r2, #0
ffff3970:	f7ff f802 	bl	ffff2978 <rw_mgr_mem_calibrate_dq_dqs_centering.isra.0>
ffff3974:	2800      	cmp	r0, #0
ffff3976:	f000 8140 	beq.w	ffff3bfa <sdram_calibration_full+0x1012>
ffff397a:	2203      	movs	r2, #3
ffff397c:	2109      	movs	r1, #9
ffff397e:	e5a8      	b.n	ffff34d2 <sdram_calibration_full+0x8ea>
ffff3980:	6bbb      	ldr	r3, [r7, #56]	; 0x38
ffff3982:	3301      	adds	r3, #1
ffff3984:	63bb      	str	r3, [r7, #56]	; 0x38
ffff3986:	e464      	b.n	ffff3252 <sdram_calibration_full+0x66a>
ffff3988:	2201      	movs	r2, #1
ffff398a:	2103      	movs	r1, #3
ffff398c:	20ff      	movs	r0, #255	; 0xff
ffff398e:	f7fd ffb1 	bl	ffff18f4 <set_failing_group_stage>
ffff3992:	e5a9      	b.n	ffff34e8 <sdram_calibration_full+0x900>
ffff3994:	6811      	ldr	r1, [r2, #0]
ffff3996:	690b      	ldr	r3, [r1, #16]
ffff3998:	688d      	ldr	r5, [r1, #8]
ffff399a:	68cc      	ldr	r4, [r1, #12]
ffff399c:	041b      	lsls	r3, r3, #16
ffff399e:	ea43 2305 	orr.w	r3, r3, r5, lsl #8
ffff39a2:	4323      	orrs	r3, r4
ffff39a4:	f3bf 8f5f 	dmb	sy
ffff39a8:	490d      	ldr	r1, [pc, #52]	; (ffff39e0 <sdram_calibration_full+0xdf8>)
ffff39aa:	f8c1 3810 	str.w	r3, [r1, #2064]	; 0x810
ffff39ae:	f3bf 8f5f 	dmb	sy
ffff39b2:	4c0c      	ldr	r4, [pc, #48]	; (ffff39e4 <sdram_calibration_full+0xdfc>)
ffff39b4:	6523      	str	r3, [r4, #80]	; 0x50
ffff39b6:	f3bf 8f5f 	dmb	sy
ffff39ba:	6812      	ldr	r2, [r2, #0]
ffff39bc:	64e0      	str	r0, [r4, #76]	; 0x4c
ffff39be:	6913      	ldr	r3, [r2, #16]
ffff39c0:	6894      	ldr	r4, [r2, #8]
ffff39c2:	68d0      	ldr	r0, [r2, #12]
ffff39c4:	041b      	lsls	r3, r3, #16
ffff39c6:	ea43 2304 	orr.w	r3, r3, r4, lsl #8
ffff39ca:	4303      	orrs	r3, r0
ffff39cc:	f3bf 8f5f 	dmb	sy
ffff39d0:	f8c1 3810 	str.w	r3, [r1, #2064]	; 0x810
ffff39d4:	e5c7      	b.n	ffff3566 <sdram_calibration_full+0x97e>
ffff39d6:	bf00      	nop
ffff39d8:	ffff7a08 	.word	0xffff7a08
ffff39dc:	ffc20000 	.word	0xffc20000
ffff39e0:	ffc24000 	.word	0xffc24000
ffff39e4:	ffc21000 	.word	0xffc21000
ffff39e8:	6cfe      	ldr	r6, [r7, #76]	; 0x4c
ffff39ea:	65fb      	str	r3, [r7, #92]	; 0x5c
ffff39ec:	2e00      	cmp	r6, #0
ffff39ee:	d173      	bne.n	ffff3ad8 <sdram_calibration_full+0xef0>
ffff39f0:	6d3b      	ldr	r3, [r7, #80]	; 0x50
ffff39f2:	4d86      	ldr	r5, [pc, #536]	; (ffff3c0c <sdram_calibration_full+0x1024>)
ffff39f4:	2b00      	cmp	r3, #0
ffff39f6:	f47f ae43 	bne.w	ffff3680 <sdram_calibration_full+0xa98>
ffff39fa:	682b      	ldr	r3, [r5, #0]
ffff39fc:	4620      	mov	r0, r4
ffff39fe:	7a1b      	ldrb	r3, [r3, #8]
ffff3a00:	653b      	str	r3, [r7, #80]	; 0x50
ffff3a02:	f7fe f97b 	bl	ffff1cfc <rw_mgr_decr_vfifo>
ffff3a06:	682b      	ldr	r3, [r5, #0]
ffff3a08:	4620      	mov	r0, r4
ffff3a0a:	f8df 8200 	ldr.w	r8, [pc, #512]	; ffff3c0c <sdram_calibration_full+0x1024>
ffff3a0e:	6dbd      	ldr	r5, [r7, #88]	; 0x58
ffff3a10:	881b      	ldrh	r3, [r3, #0]
ffff3a12:	6d39      	ldr	r1, [r7, #80]	; 0x50
ffff3a14:	1aed      	subs	r5, r5, r3
ffff3a16:	f7fe f811 	bl	ffff1a3c <scc_mgr_set_dqs_en_phase_all_ranks>
ffff3a1a:	6dbb      	ldr	r3, [r7, #88]	; 0x58
ffff3a1c:	429d      	cmp	r5, r3
ffff3a1e:	d20c      	bcs.n	ffff3a3a <sdram_calibration_full+0xe52>
ffff3a20:	4631      	mov	r1, r6
ffff3a22:	4620      	mov	r0, r4
ffff3a24:	f7fe f811 	bl	ffff1a4a <scc_mgr_set_dqs_en_delay_all_ranks>
ffff3a28:	2200      	movs	r2, #0
ffff3a2a:	4620      	mov	r0, r4
ffff3a2c:	4611      	mov	r1, r2
ffff3a2e:	f7fe fc73 	bl	ffff2318 <rw_mgr_mem_calibrate_read_test_all_ranks.isra.0>
ffff3a32:	2800      	cmp	r0, #0
ffff3a34:	f43f ae27 	beq.w	ffff3686 <sdram_calibration_full+0xa9e>
ffff3a38:	65bd      	str	r5, [r7, #88]	; 0x58
ffff3a3a:	4a74      	ldr	r2, [pc, #464]	; (ffff3c0c <sdram_calibration_full+0x1024>)
ffff3a3c:	6d3b      	ldr	r3, [r7, #80]	; 0x50
ffff3a3e:	3301      	adds	r3, #1
ffff3a40:	653b      	str	r3, [r7, #80]	; 0x50
ffff3a42:	6812      	ldr	r2, [r2, #0]
ffff3a44:	7a12      	ldrb	r2, [r2, #8]
ffff3a46:	4293      	cmp	r3, r2
ffff3a48:	d908      	bls.n	ffff3a5c <sdram_calibration_full+0xe74>
ffff3a4a:	2300      	movs	r3, #0
ffff3a4c:	653b      	str	r3, [r7, #80]	; 0x50
ffff3a4e:	f3bf 8f5f 	dmb	sy
ffff3a52:	f5a3 1377 	sub.w	r3, r3, #4046848	; 0x3dc000
ffff3a56:	f5a3 5340 	sub.w	r3, r3, #12288	; 0x3000
ffff3a5a:	605c      	str	r4, [r3, #4]
ffff3a5c:	4620      	mov	r0, r4
ffff3a5e:	2100      	movs	r1, #0
ffff3a60:	f7fd fff3 	bl	ffff1a4a <scc_mgr_set_dqs_en_delay_all_ranks>
ffff3a64:	4a69      	ldr	r2, [pc, #420]	; (ffff3c0c <sdram_calibration_full+0x1024>)
ffff3a66:	6d3b      	ldr	r3, [r7, #80]	; 0x50
ffff3a68:	3301      	adds	r3, #1
ffff3a6a:	653b      	str	r3, [r7, #80]	; 0x50
ffff3a6c:	6811      	ldr	r1, [r2, #0]
ffff3a6e:	6dfa      	ldr	r2, [r7, #92]	; 0x5c
ffff3a70:	8808      	ldrh	r0, [r1, #0]
ffff3a72:	4402      	add	r2, r0
ffff3a74:	65fa      	str	r2, [r7, #92]	; 0x5c
ffff3a76:	7a0a      	ldrb	r2, [r1, #8]
ffff3a78:	4293      	cmp	r3, r2
ffff3a7a:	d908      	bls.n	ffff3a8e <sdram_calibration_full+0xea6>
ffff3a7c:	2300      	movs	r3, #0
ffff3a7e:	653b      	str	r3, [r7, #80]	; 0x50
ffff3a80:	f3bf 8f5f 	dmb	sy
ffff3a84:	f5a3 1377 	sub.w	r3, r3, #4046848	; 0x3dc000
ffff3a88:	f5a3 5340 	sub.w	r3, r3, #12288	; 0x3000
ffff3a8c:	605c      	str	r4, [r3, #4]
ffff3a8e:	f107 0350 	add.w	r3, r7, #80	; 0x50
ffff3a92:	f107 025c 	add.w	r2, r7, #92	; 0x5c
ffff3a96:	9300      	str	r3, [sp, #0]
ffff3a98:	4621      	mov	r1, r4
ffff3a9a:	f107 0354 	add.w	r3, r7, #84	; 0x54
ffff3a9e:	2000      	movs	r0, #0
ffff3aa0:	f7fe fc96 	bl	ffff23d0 <sdr_find_phase>
ffff3aa4:	4605      	mov	r5, r0
ffff3aa6:	2800      	cmp	r0, #0
ffff3aa8:	f47f ac5c 	bne.w	ffff3364 <sdram_calibration_full+0x77c>
ffff3aac:	6d3b      	ldr	r3, [r7, #80]	; 0x50
ffff3aae:	4d57      	ldr	r5, [pc, #348]	; (ffff3c0c <sdram_calibration_full+0x1024>)
ffff3ab0:	2b00      	cmp	r3, #0
ffff3ab2:	f47f adf2 	bne.w	ffff369a <sdram_calibration_full+0xab2>
ffff3ab6:	682b      	ldr	r3, [r5, #0]
ffff3ab8:	4620      	mov	r0, r4
ffff3aba:	7a1b      	ldrb	r3, [r3, #8]
ffff3abc:	653b      	str	r3, [r7, #80]	; 0x50
ffff3abe:	f7fe f91d 	bl	ffff1cfc <rw_mgr_decr_vfifo>
ffff3ac2:	682b      	ldr	r3, [r5, #0]
ffff3ac4:	4620      	mov	r0, r4
ffff3ac6:	6d39      	ldr	r1, [r7, #80]	; 0x50
ffff3ac8:	881a      	ldrh	r2, [r3, #0]
ffff3aca:	6dfb      	ldr	r3, [r7, #92]	; 0x5c
ffff3acc:	1a9b      	subs	r3, r3, r2
ffff3ace:	65fb      	str	r3, [r7, #92]	; 0x5c
ffff3ad0:	f7fd ffb4 	bl	ffff1a3c <scc_mgr_set_dqs_en_phase_all_ranks>
ffff3ad4:	2300      	movs	r3, #0
ffff3ad6:	64fb      	str	r3, [r7, #76]	; 0x4c
ffff3ad8:	4d4c      	ldr	r5, [pc, #304]	; (ffff3c0c <sdram_calibration_full+0x1024>)
ffff3ada:	f107 034c 	add.w	r3, r7, #76	; 0x4c
ffff3ade:	9301      	str	r3, [sp, #4]
ffff3ae0:	4622      	mov	r2, r4
ffff3ae2:	2101      	movs	r1, #1
ffff3ae4:	2000      	movs	r0, #0
ffff3ae6:	682b      	ldr	r3, [r5, #0]
ffff3ae8:	78db      	ldrb	r3, [r3, #3]
ffff3aea:	9300      	str	r3, [sp, #0]
ffff3aec:	f107 035c 	add.w	r3, r7, #92	; 0x5c
ffff3af0:	f7fe fc20 	bl	ffff2334 <sdr_find_phase_delay>
ffff3af4:	6cfb      	ldr	r3, [r7, #76]	; 0x4c
ffff3af6:	b123      	cbz	r3, ffff3b02 <sdram_calibration_full+0xf1a>
ffff3af8:	682b      	ldr	r3, [r5, #0]
ffff3afa:	78da      	ldrb	r2, [r3, #3]
ffff3afc:	6dfb      	ldr	r3, [r7, #92]	; 0x5c
ffff3afe:	1a9b      	subs	r3, r3, r2
ffff3b00:	65fb      	str	r3, [r7, #92]	; 0x5c
ffff3b02:	e9d7 3216 	ldrd	r3, r2, [r7, #88]	; 0x58
ffff3b06:	429a      	cmp	r2, r3
ffff3b08:	f4ff ac2a 	bcc.w	ffff3360 <sdram_calibration_full+0x778>
ffff3b0c:	6d3b      	ldr	r3, [r7, #80]	; 0x50
ffff3b0e:	2b00      	cmp	r3, #0
ffff3b10:	f47f adc6 	bne.w	ffff36a0 <sdram_calibration_full+0xab8>
ffff3b14:	4b3d      	ldr	r3, [pc, #244]	; (ffff3c0c <sdram_calibration_full+0x1024>)
ffff3b16:	4620      	mov	r0, r4
ffff3b18:	681b      	ldr	r3, [r3, #0]
ffff3b1a:	7a1b      	ldrb	r3, [r3, #8]
ffff3b1c:	653b      	str	r3, [r7, #80]	; 0x50
ffff3b1e:	f7fe f8ed 	bl	ffff1cfc <rw_mgr_decr_vfifo>
ffff3b22:	6d39      	ldr	r1, [r7, #80]	; 0x50
ffff3b24:	4620      	mov	r0, r4
ffff3b26:	f7fd ff89 	bl	ffff1a3c <scc_mgr_set_dqs_en_phase_all_ranks>
ffff3b2a:	f107 054c 	add.w	r5, r7, #76	; 0x4c
ffff3b2e:	6cfe      	ldr	r6, [r7, #76]	; 0x4c
ffff3b30:	2300      	movs	r3, #0
ffff3b32:	2101      	movs	r1, #1
ffff3b34:	9300      	str	r3, [sp, #0]
ffff3b36:	4622      	mov	r2, r4
ffff3b38:	4608      	mov	r0, r1
ffff3b3a:	9501      	str	r5, [sp, #4]
ffff3b3c:	f7fe fbfa 	bl	ffff2334 <sdr_find_phase_delay>
ffff3b40:	4603      	mov	r3, r0
ffff3b42:	b960      	cbnz	r0, ffff3b5e <sdram_calibration_full+0xf76>
ffff3b44:	6cfa      	ldr	r2, [r7, #76]	; 0x4c
ffff3b46:	2101      	movs	r1, #1
ffff3b48:	3201      	adds	r2, #1
ffff3b4a:	64fa      	str	r2, [r7, #76]	; 0x4c
ffff3b4c:	4622      	mov	r2, r4
ffff3b4e:	e9cd 0500 	strd	r0, r5, [sp]
ffff3b52:	f7fe fbef 	bl	ffff2334 <sdr_find_phase_delay>
ffff3b56:	b910      	cbnz	r0, ffff3b5e <sdram_calibration_full+0xf76>
ffff3b58:	6cf8      	ldr	r0, [r7, #76]	; 0x4c
ffff3b5a:	eba0 0a06 	sub.w	sl, r0, r6
ffff3b5e:	f3bf 8f5f 	dmb	sy
ffff3b62:	4b2b      	ldr	r3, [pc, #172]	; (ffff3c10 <sdram_calibration_full+0x1028>)
ffff3b64:	f8c3 a81c 	str.w	sl, [r3, #2076]	; 0x81c
ffff3b68:	e9d7 0316 	ldrd	r0, r3, [r7, #88]	; 0x58
ffff3b6c:	4418      	add	r0, r3
ffff3b6e:	4b27      	ldr	r3, [pc, #156]	; (ffff3c0c <sdram_calibration_full+0x1024>)
ffff3b70:	0840      	lsrs	r0, r0, #1
ffff3b72:	f8d3 a000 	ldr.w	sl, [r3]
ffff3b76:	f8ba 6000 	ldrh.w	r6, [sl]
ffff3b7a:	f89a b008 	ldrb.w	fp, [sl, #8]
ffff3b7e:	fb0b 6b06 	mla	fp, fp, r6, r6
ffff3b82:	4659      	mov	r1, fp
ffff3b84:	ebab 0b06 	sub.w	fp, fp, r6
ffff3b88:	f002 e97e 	blx	ffff5e88 <__aeabi_uidivmod>
ffff3b8c:	4688      	mov	r8, r1
ffff3b8e:	4640      	mov	r0, r8
ffff3b90:	4631      	mov	r1, r6
ffff3b92:	f002 e97a 	blx	ffff5e88 <__aeabi_uidivmod>
ffff3b96:	eba8 0501 	sub.w	r5, r8, r1
ffff3b9a:	f89a 1003 	ldrb.w	r1, [sl, #3]
ffff3b9e:	455d      	cmp	r5, fp
ffff3ba0:	bfa8      	it	ge
ffff3ba2:	465d      	movge	r5, fp
ffff3ba4:	1e48      	subs	r0, r1, #1
ffff3ba6:	4440      	add	r0, r8
ffff3ba8:	1b40      	subs	r0, r0, r5
ffff3baa:	f002 e8ba 	blx	ffff5d20 <__aeabi_uidiv>
ffff3bae:	f89a 8006 	ldrb.w	r8, [sl, #6]
ffff3bb2:	4631      	mov	r1, r6
ffff3bb4:	4e17      	ldr	r6, [pc, #92]	; (ffff3c14 <sdram_calibration_full+0x102c>)
ffff3bb6:	4580      	cmp	r8, r0
ffff3bb8:	bfa8      	it	ge
ffff3bba:	4680      	movge	r8, r0
ffff3bbc:	4628      	mov	r0, r5
ffff3bbe:	f002 e8fe 	blx	ffff5dbc <__aeabi_idiv>
ffff3bc2:	2500      	movs	r5, #0
ffff3bc4:	4601      	mov	r1, r0
ffff3bc6:	4620      	mov	r0, r4
ffff3bc8:	f7fd ff38 	bl	ffff1a3c <scc_mgr_set_dqs_en_phase_all_ranks>
ffff3bcc:	4641      	mov	r1, r8
ffff3bce:	4620      	mov	r0, r4
ffff3bd0:	f7fd ff3b 	bl	ffff1a4a <scc_mgr_set_dqs_en_delay_all_ranks>
ffff3bd4:	6833      	ldr	r3, [r6, #0]
ffff3bd6:	7a5b      	ldrb	r3, [r3, #9]
ffff3bd8:	429d      	cmp	r5, r3
ffff3bda:	f6bf abc1 	bge.w	ffff3360 <sdram_calibration_full+0x778>
ffff3bde:	2200      	movs	r2, #0
ffff3be0:	4620      	mov	r0, r4
ffff3be2:	4611      	mov	r1, r2
ffff3be4:	f7fe fb98 	bl	ffff2318 <rw_mgr_mem_calibrate_read_test_all_ranks.isra.0>
ffff3be8:	2800      	cmp	r0, #0
ffff3bea:	f47f ad5c 	bne.w	ffff36a6 <sdram_calibration_full+0xabe>
ffff3bee:	f3bf 8f5f 	dmb	sy
ffff3bf2:	4b09      	ldr	r3, [pc, #36]	; (ffff3c18 <sdram_calibration_full+0x1030>)
ffff3bf4:	3501      	adds	r5, #1
ffff3bf6:	605c      	str	r4, [r3, #4]
ffff3bf8:	e7ec      	b.n	ffff3bd4 <sdram_calibration_full+0xfec>
ffff3bfa:	682b      	ldr	r3, [r5, #0]
ffff3bfc:	3401      	adds	r4, #1
ffff3bfe:	6b7a      	ldr	r2, [r7, #52]	; 0x34
ffff3c00:	f893 3033 	ldrb.w	r3, [r3, #51]	; 0x33
ffff3c04:	441a      	add	r2, r3
ffff3c06:	637a      	str	r2, [r7, #52]	; 0x34
ffff3c08:	f7ff bb1f 	b.w	ffff324a <sdram_calibration_full+0x662>
ffff3c0c:	ffff7a0c 	.word	0xffff7a0c
ffff3c10:	ffc24000 	.word	0xffc24000
ffff3c14:	ffff7a10 	.word	0xffff7a10
ffff3c18:	ffc21000 	.word	0xffc21000

ffff3c1c <alt_sdmmc_is_busy>:
ffff3c1c:	4b02      	ldr	r3, [pc, #8]	; (ffff3c28 <alt_sdmmc_is_busy+0xc>)
ffff3c1e:	6818      	ldr	r0, [r3, #0]
ffff3c20:	f3c0 2040 	ubfx	r0, r0, #9, #1
ffff3c24:	4770      	bx	lr
ffff3c26:	bf00      	nop
ffff3c28:	ff704048 	.word	0xff704048

ffff3c2c <alt_sdmmc_is_idle>:
ffff3c2c:	4b06      	ldr	r3, [pc, #24]	; (ffff3c48 <alt_sdmmc_is_idle+0x1c>)
ffff3c2e:	681a      	ldr	r2, [r3, #0]
ffff3c30:	3344      	adds	r3, #68	; 0x44
ffff3c32:	681b      	ldr	r3, [r3, #0]
ffff3c34:	0b5b      	lsrs	r3, r3, #13
ffff3c36:	ea43 1312 	orr.w	r3, r3, r2, lsr #4
ffff3c3a:	f013 0f0f 	tst.w	r3, #15
ffff3c3e:	bf0c      	ite	eq
ffff3c40:	2001      	moveq	r0, #1
ffff3c42:	2000      	movne	r0, #0
ffff3c44:	4770      	bx	lr
ffff3c46:	bf00      	nop
ffff3c48:	ff704048 	.word	0xff704048

ffff3c4c <alt_sdmmc_block_size_set>:
ffff3c4c:	4a03      	ldr	r2, [pc, #12]	; (ffff3c5c <alt_sdmmc_block_size_set+0x10>)
ffff3c4e:	6813      	ldr	r3, [r2, #0]
ffff3c50:	0c1b      	lsrs	r3, r3, #16
ffff3c52:	041b      	lsls	r3, r3, #16
ffff3c54:	4318      	orrs	r0, r3
ffff3c56:	6010      	str	r0, [r2, #0]
ffff3c58:	2000      	movs	r0, #0
ffff3c5a:	4770      	bx	lr
ffff3c5c:	ff70401c 	.word	0xff70401c

ffff3c60 <alt_sdmmc_cmd_set>:
ffff3c60:	b530      	push	{r4, r5, lr}
ffff3c62:	f000 003f 	and.w	r0, r0, #63	; 0x3f
ffff3c66:	784c      	ldrb	r4, [r1, #1]
ffff3c68:	780d      	ldrb	r5, [r1, #0]
ffff3c6a:	f005 0380 	and.w	r3, r5, #128	; 0x80
ffff3c6e:	f005 0540 	and.w	r5, r5, #64	; 0x40
ffff3c72:	4303      	orrs	r3, r0
ffff3c74:	09e0      	lsrs	r0, r4, #7
ffff3c76:	ea43 33c0 	orr.w	r3, r3, r0, lsl #15
ffff3c7a:	f004 0001 	and.w	r0, r4, #1
ffff3c7e:	432b      	orrs	r3, r5
ffff3c80:	ea43 2300 	orr.w	r3, r3, r0, lsl #8
ffff3c84:	f3c4 0040 	ubfx	r0, r4, #1, #1
ffff3c88:	ea43 2340 	orr.w	r3, r3, r0, lsl #9
ffff3c8c:	f3c4 0080 	ubfx	r0, r4, #2, #1
ffff3c90:	ea43 2380 	orr.w	r3, r3, r0, lsl #10
ffff3c94:	f3c4 00c0 	ubfx	r0, r4, #3, #1
ffff3c98:	ea43 23c0 	orr.w	r3, r3, r0, lsl #11
ffff3c9c:	f3c4 1000 	ubfx	r0, r4, #4, #1
ffff3ca0:	ea43 3300 	orr.w	r3, r3, r0, lsl #12
ffff3ca4:	f3c4 1040 	ubfx	r0, r4, #5, #1
ffff3ca8:	f3c4 1480 	ubfx	r4, r4, #6, #1
ffff3cac:	ea43 3340 	orr.w	r3, r3, r0, lsl #13
ffff3cb0:	7888      	ldrb	r0, [r1, #2]
ffff3cb2:	78c9      	ldrb	r1, [r1, #3]
ffff3cb4:	ea43 3384 	orr.w	r3, r3, r4, lsl #14
ffff3cb8:	f3c0 1440 	ubfx	r4, r0, #5, #1
ffff3cbc:	ea43 5344 	orr.w	r3, r3, r4, lsl #21
ffff3cc0:	f3c0 1480 	ubfx	r4, r0, #6, #1
ffff3cc4:	09c0      	lsrs	r0, r0, #7
ffff3cc6:	ea43 5384 	orr.w	r3, r3, r4, lsl #22
ffff3cca:	ea43 53c0 	orr.w	r3, r3, r0, lsl #23
ffff3cce:	f001 0001 	and.w	r0, r1, #1
ffff3cd2:	ea43 6300 	orr.w	r3, r3, r0, lsl #24
ffff3cd6:	f3c1 0040 	ubfx	r0, r1, #1, #1
ffff3cda:	ea43 6340 	orr.w	r3, r3, r0, lsl #25
ffff3cde:	f3c1 0080 	ubfx	r0, r1, #2, #1
ffff3ce2:	ea43 6380 	orr.w	r3, r3, r0, lsl #26
ffff3ce6:	f3c1 00c0 	ubfx	r0, r1, #3, #1
ffff3cea:	ea43 63c0 	orr.w	r3, r3, r0, lsl #27
ffff3cee:	f3c1 1000 	ubfx	r0, r1, #4, #1
ffff3cf2:	f3c1 1140 	ubfx	r1, r1, #5, #1
ffff3cf6:	ea43 7300 	orr.w	r3, r3, r0, lsl #28
ffff3cfa:	2000      	movs	r0, #0
ffff3cfc:	ea43 7341 	orr.w	r3, r3, r1, lsl #29
ffff3d00:	ea43 72c2 	orr.w	r2, r3, r2, lsl #31
ffff3d04:	4b01      	ldr	r3, [pc, #4]	; (ffff3d0c <alt_sdmmc_cmd_set+0xac>)
ffff3d06:	601a      	str	r2, [r3, #0]
ffff3d08:	bd30      	pop	{r4, r5, pc}
ffff3d0a:	bf00      	nop
ffff3d0c:	ff70402c 	.word	0xff70402c

ffff3d10 <alt_sdmmc_error_status_detect>:
ffff3d10:	4b09      	ldr	r3, [pc, #36]	; (ffff3d38 <alt_sdmmc_error_status_detect+0x28>)
ffff3d12:	f64b 30c2 	movw	r0, #48066	; 0xbbc2
ffff3d16:	b510      	push	{r4, lr}
ffff3d18:	681c      	ldr	r4, [r3, #0]
ffff3d1a:	4020      	ands	r0, r4
ffff3d1c:	d00a      	beq.n	ffff3d34 <alt_sdmmc_error_status_detect+0x24>
ffff3d1e:	4807      	ldr	r0, [pc, #28]	; (ffff3d3c <alt_sdmmc_error_status_detect+0x2c>)
ffff3d20:	f7fc fa85 	bl	ffff022e <puts>
ffff3d24:	4620      	mov	r0, r4
ffff3d26:	f7fc fa43 	bl	ffff01b0 <putHexa32>
ffff3d2a:	4805      	ldr	r0, [pc, #20]	; (ffff3d40 <alt_sdmmc_error_status_detect+0x30>)
ffff3d2c:	f7fc fa7f 	bl	ffff022e <puts>
ffff3d30:	f04f 30ff 	mov.w	r0, #4294967295
ffff3d34:	bd10      	pop	{r4, pc}
ffff3d36:	bf00      	nop
ffff3d38:	ff704040 	.word	0xff704040
ffff3d3c:	ffff7443 	.word	0xffff7443
ffff3d40:	ffff6f87 	.word	0xffff6f87

ffff3d44 <alt_sdmmc_bus_width_set>:
ffff3d44:	2804      	cmp	r0, #4
ffff3d46:	d013      	beq.n	ffff3d70 <alt_sdmmc_bus_width_set+0x2c>
ffff3d48:	2808      	cmp	r0, #8
ffff3d4a:	d00a      	beq.n	ffff3d62 <alt_sdmmc_bus_width_set+0x1e>
ffff3d4c:	2801      	cmp	r0, #1
ffff3d4e:	d119      	bne.n	ffff3d84 <alt_sdmmc_bus_width_set+0x40>
ffff3d50:	4b0e      	ldr	r3, [pc, #56]	; (ffff3d8c <alt_sdmmc_bus_width_set+0x48>)
ffff3d52:	681a      	ldr	r2, [r3, #0]
ffff3d54:	f422 3280 	bic.w	r2, r2, #65536	; 0x10000
ffff3d58:	601a      	str	r2, [r3, #0]
ffff3d5a:	681a      	ldr	r2, [r3, #0]
ffff3d5c:	f022 0201 	bic.w	r2, r2, #1
ffff3d60:	e00e      	b.n	ffff3d80 <alt_sdmmc_bus_width_set+0x3c>
ffff3d62:	4a0a      	ldr	r2, [pc, #40]	; (ffff3d8c <alt_sdmmc_bus_width_set+0x48>)
ffff3d64:	6813      	ldr	r3, [r2, #0]
ffff3d66:	f443 3380 	orr.w	r3, r3, #65536	; 0x10000
ffff3d6a:	6013      	str	r3, [r2, #0]
ffff3d6c:	2000      	movs	r0, #0
ffff3d6e:	4770      	bx	lr
ffff3d70:	4b06      	ldr	r3, [pc, #24]	; (ffff3d8c <alt_sdmmc_bus_width_set+0x48>)
ffff3d72:	681a      	ldr	r2, [r3, #0]
ffff3d74:	f422 3280 	bic.w	r2, r2, #65536	; 0x10000
ffff3d78:	601a      	str	r2, [r3, #0]
ffff3d7a:	681a      	ldr	r2, [r3, #0]
ffff3d7c:	f042 0201 	orr.w	r2, r2, #1
ffff3d80:	601a      	str	r2, [r3, #0]
ffff3d82:	e7f3      	b.n	ffff3d6c <alt_sdmmc_bus_width_set+0x28>
ffff3d84:	f06f 0008 	mvn.w	r0, #8
ffff3d88:	4770      	bx	lr
ffff3d8a:	bf00      	nop
ffff3d8c:	ff704018 	.word	0xff704018

ffff3d90 <alt_sdmmc_card_pwr_on>:
ffff3d90:	4a03      	ldr	r2, [pc, #12]	; (ffff3da0 <alt_sdmmc_card_pwr_on+0x10>)
ffff3d92:	2000      	movs	r0, #0
ffff3d94:	6813      	ldr	r3, [r2, #0]
ffff3d96:	f043 0301 	orr.w	r3, r3, #1
ffff3d9a:	6013      	str	r3, [r2, #0]
ffff3d9c:	4770      	bx	lr
ffff3d9e:	bf00      	nop
ffff3da0:	ff704004 	.word	0xff704004

ffff3da4 <alt_sdmmc_card_pwr_is_on>:
ffff3da4:	4b02      	ldr	r3, [pc, #8]	; (ffff3db0 <alt_sdmmc_card_pwr_is_on+0xc>)
ffff3da6:	6818      	ldr	r0, [r3, #0]
ffff3da8:	f000 0001 	and.w	r0, r0, #1
ffff3dac:	4770      	bx	lr
ffff3dae:	bf00      	nop
ffff3db0:	ff704004 	.word	0xff704004

ffff3db4 <alt_sdmmc_card_pwr_off>:
ffff3db4:	b508      	push	{r3, lr}
ffff3db6:	f7ff fff5 	bl	ffff3da4 <alt_sdmmc_card_pwr_is_on>
ffff3dba:	b150      	cbz	r0, ffff3dd2 <alt_sdmmc_card_pwr_off+0x1e>
ffff3dbc:	4a06      	ldr	r2, [pc, #24]	; (ffff3dd8 <alt_sdmmc_card_pwr_off+0x24>)
ffff3dbe:	6813      	ldr	r3, [r2, #0]
ffff3dc0:	f023 0301 	bic.w	r3, r3, #1
ffff3dc4:	6013      	str	r3, [r2, #0]
ffff3dc6:	4a05      	ldr	r2, [pc, #20]	; (ffff3ddc <alt_sdmmc_card_pwr_off+0x28>)
ffff3dc8:	4b05      	ldr	r3, [pc, #20]	; (ffff3de0 <alt_sdmmc_card_pwr_off+0x2c>)
ffff3dca:	601a      	str	r2, [r3, #0]
ffff3dcc:	2200      	movs	r2, #0
ffff3dce:	4b05      	ldr	r3, [pc, #20]	; (ffff3de4 <alt_sdmmc_card_pwr_off+0x30>)
ffff3dd0:	601a      	str	r2, [r3, #0]
ffff3dd2:	2000      	movs	r0, #0
ffff3dd4:	bd08      	pop	{r3, pc}
ffff3dd6:	bf00      	nop
ffff3dd8:	ff704004 	.word	0xff704004
ffff3ddc:	0001ffff 	.word	0x0001ffff
ffff3de0:	ff704044 	.word	0xff704044
ffff3de4:	ffff8260 	.word	0xffff8260

ffff3de8 <alt_sdmmc_card_clk_is_enabled>:
ffff3de8:	4b02      	ldr	r3, [pc, #8]	; (ffff3df4 <alt_sdmmc_card_clk_is_enabled+0xc>)
ffff3dea:	6818      	ldr	r0, [r3, #0]
ffff3dec:	f000 0001 	and.w	r0, r0, #1
ffff3df0:	4770      	bx	lr
ffff3df2:	bf00      	nop
ffff3df4:	ff704010 	.word	0xff704010

ffff3df8 <alt_sdmmc_card_clk_low_power_is_enabled>:
ffff3df8:	4b02      	ldr	r3, [pc, #8]	; (ffff3e04 <alt_sdmmc_card_clk_low_power_is_enabled+0xc>)
ffff3dfa:	6818      	ldr	r0, [r3, #0]
ffff3dfc:	f3c0 4000 	ubfx	r0, r0, #16, #1
ffff3e00:	4770      	bx	lr
ffff3e02:	bf00      	nop
ffff3e04:	ff704010 	.word	0xff704010

ffff3e08 <alt_sdmmc_card_misc_get>:
ffff3e08:	4b0e      	ldr	r3, [pc, #56]	; (ffff3e44 <alt_sdmmc_card_misc_get+0x3c>)
ffff3e0a:	681b      	ldr	r3, [r3, #0]
ffff3e0c:	b2da      	uxtb	r2, r3
ffff3e0e:	0a1b      	lsrs	r3, r3, #8
ffff3e10:	6043      	str	r3, [r0, #4]
ffff3e12:	4b0d      	ldr	r3, [pc, #52]	; (ffff3e48 <alt_sdmmc_card_misc_get+0x40>)
ffff3e14:	6002      	str	r2, [r0, #0]
ffff3e16:	681b      	ldr	r3, [r3, #0]
ffff3e18:	03da      	lsls	r2, r3, #15
ffff3e1a:	d410      	bmi.n	ffff3e3e <alt_sdmmc_card_misc_get+0x36>
ffff3e1c:	f013 0f01 	tst.w	r3, #1
ffff3e20:	bf14      	ite	ne
ffff3e22:	2304      	movne	r3, #4
ffff3e24:	2301      	moveq	r3, #1
ffff3e26:	6083      	str	r3, [r0, #8]
ffff3e28:	4b08      	ldr	r3, [pc, #32]	; (ffff3e4c <alt_sdmmc_card_misc_get+0x44>)
ffff3e2a:	681b      	ldr	r3, [r3, #0]
ffff3e2c:	b29b      	uxth	r3, r3
ffff3e2e:	60c3      	str	r3, [r0, #12]
ffff3e30:	4b07      	ldr	r3, [pc, #28]	; (ffff3e50 <alt_sdmmc_card_misc_get+0x48>)
ffff3e32:	681b      	ldr	r3, [r3, #0]
ffff3e34:	f023 437f 	bic.w	r3, r3, #4278190080	; 0xff000000
ffff3e38:	6103      	str	r3, [r0, #16]
ffff3e3a:	2000      	movs	r0, #0
ffff3e3c:	4770      	bx	lr
ffff3e3e:	2308      	movs	r3, #8
ffff3e40:	e7f1      	b.n	ffff3e26 <alt_sdmmc_card_misc_get+0x1e>
ffff3e42:	bf00      	nop
ffff3e44:	ff704014 	.word	0xff704014
ffff3e48:	ff704018 	.word	0xff704018
ffff3e4c:	ff70401c 	.word	0xff70401c
ffff3e50:	ff704064 	.word	0xff704064

ffff3e54 <alt_sdmmc_fifo_reset>:
ffff3e54:	4b07      	ldr	r3, [pc, #28]	; (ffff3e74 <alt_sdmmc_fifo_reset+0x20>)
ffff3e56:	681a      	ldr	r2, [r3, #0]
ffff3e58:	f042 0202 	orr.w	r2, r2, #2
ffff3e5c:	601a      	str	r2, [r3, #0]
ffff3e5e:	f44f 5200 	mov.w	r2, #8192	; 0x2000
ffff3e62:	6818      	ldr	r0, [r3, #0]
ffff3e64:	f010 0002 	ands.w	r0, r0, #2
ffff3e68:	d003      	beq.n	ffff3e72 <alt_sdmmc_fifo_reset+0x1e>
ffff3e6a:	3a01      	subs	r2, #1
ffff3e6c:	d1f9      	bne.n	ffff3e62 <alt_sdmmc_fifo_reset+0xe>
ffff3e6e:	f06f 000b 	mvn.w	r0, #11
ffff3e72:	4770      	bx	lr
ffff3e74:	ff704000 	.word	0xff704000

ffff3e78 <alt_sdmmc_dma_reset>:
ffff3e78:	4b07      	ldr	r3, [pc, #28]	; (ffff3e98 <alt_sdmmc_dma_reset+0x20>)
ffff3e7a:	681a      	ldr	r2, [r3, #0]
ffff3e7c:	f042 0204 	orr.w	r2, r2, #4
ffff3e80:	601a      	str	r2, [r3, #0]
ffff3e82:	f44f 5200 	mov.w	r2, #8192	; 0x2000
ffff3e86:	6818      	ldr	r0, [r3, #0]
ffff3e88:	f010 0004 	ands.w	r0, r0, #4
ffff3e8c:	d003      	beq.n	ffff3e96 <alt_sdmmc_dma_reset+0x1e>
ffff3e8e:	3a01      	subs	r2, #1
ffff3e90:	d1f9      	bne.n	ffff3e86 <alt_sdmmc_dma_reset+0xe>
ffff3e92:	f06f 000b 	mvn.w	r0, #11
ffff3e96:	4770      	bx	lr
ffff3e98:	ff704000 	.word	0xff704000

ffff3e9c <alt_sdmmc_read_long_response>:
ffff3e9c:	4b07      	ldr	r3, [pc, #28]	; (ffff3ebc <alt_sdmmc_read_long_response+0x20>)
ffff3e9e:	b510      	push	{r4, lr}
ffff3ea0:	330c      	adds	r3, #12
ffff3ea2:	f853 4c0c 	ldr.w	r4, [r3, #-12]
ffff3ea6:	f853 1c08 	ldr.w	r1, [r3, #-8]
ffff3eaa:	f853 2c04 	ldr.w	r2, [r3, #-4]
ffff3eae:	681b      	ldr	r3, [r3, #0]
ffff3eb0:	6004      	str	r4, [r0, #0]
ffff3eb2:	6041      	str	r1, [r0, #4]
ffff3eb4:	6082      	str	r2, [r0, #8]
ffff3eb6:	60c3      	str	r3, [r0, #12]
ffff3eb8:	2000      	movs	r0, #0
ffff3eba:	bd10      	pop	{r4, pc}
ffff3ebc:	ff704030 	.word	0xff704030

ffff3ec0 <alt_sdmmc_int_disable>:
ffff3ec0:	4a03      	ldr	r2, [pc, #12]	; (ffff3ed0 <alt_sdmmc_int_disable+0x10>)
ffff3ec2:	6813      	ldr	r3, [r2, #0]
ffff3ec4:	ea23 0000 	bic.w	r0, r3, r0
ffff3ec8:	6010      	str	r0, [r2, #0]
ffff3eca:	2000      	movs	r0, #0
ffff3ecc:	4770      	bx	lr
ffff3ece:	bf00      	nop
ffff3ed0:	ff704024 	.word	0xff704024

ffff3ed4 <alt_sdmmc_int_enable>:
ffff3ed4:	f3c0 0310 	ubfx	r3, r0, #0, #17
ffff3ed8:	b143      	cbz	r3, ffff3eec <alt_sdmmc_int_enable+0x18>
ffff3eda:	4a05      	ldr	r2, [pc, #20]	; (ffff3ef0 <alt_sdmmc_int_enable+0x1c>)
ffff3edc:	6813      	ldr	r3, [r2, #0]
ffff3ede:	f043 0310 	orr.w	r3, r3, #16
ffff3ee2:	6013      	str	r3, [r2, #0]
ffff3ee4:	4b03      	ldr	r3, [pc, #12]	; (ffff3ef4 <alt_sdmmc_int_enable+0x20>)
ffff3ee6:	681a      	ldr	r2, [r3, #0]
ffff3ee8:	4310      	orrs	r0, r2
ffff3eea:	6018      	str	r0, [r3, #0]
ffff3eec:	2000      	movs	r0, #0
ffff3eee:	4770      	bx	lr
ffff3ef0:	ff704000 	.word	0xff704000
ffff3ef4:	ff704024 	.word	0xff704024

ffff3ef8 <alt_sdmmc_fifo_is_empty>:
ffff3ef8:	4b02      	ldr	r3, [pc, #8]	; (ffff3f04 <alt_sdmmc_fifo_is_empty+0xc>)
ffff3efa:	6818      	ldr	r0, [r3, #0]
ffff3efc:	f3c0 0080 	ubfx	r0, r0, #2, #1
ffff3f00:	4770      	bx	lr
ffff3f02:	bf00      	nop
ffff3f04:	ff704048 	.word	0xff704048

ffff3f08 <alt_sdmmc_fifo_is_full>:
ffff3f08:	4b02      	ldr	r3, [pc, #8]	; (ffff3f14 <alt_sdmmc_fifo_is_full+0xc>)
ffff3f0a:	6818      	ldr	r0, [r3, #0]
ffff3f0c:	f3c0 00c0 	ubfx	r0, r0, #3, #1
ffff3f10:	4770      	bx	lr
ffff3f12:	bf00      	nop
ffff3f14:	ff704048 	.word	0xff704048

ffff3f18 <alt_sdmmc_fifo_count>:
ffff3f18:	4b02      	ldr	r3, [pc, #8]	; (ffff3f24 <alt_sdmmc_fifo_count+0xc>)
ffff3f1a:	6818      	ldr	r0, [r3, #0]
ffff3f1c:	f3c0 404c 	ubfx	r0, r0, #17, #13
ffff3f20:	4770      	bx	lr
ffff3f22:	bf00      	nop
ffff3f24:	ff704048 	.word	0xff704048

ffff3f28 <alt_sdmmc_transfer_helper>:
ffff3f28:	e92d 41f0 	stmdb	sp!, {r4, r5, r6, r7, r8, lr}
ffff3f2c:	4605      	mov	r5, r0
ffff3f2e:	4f25      	ldr	r7, [pc, #148]	; (ffff3fc4 <alt_sdmmc_transfer_helper+0x9c>)
ffff3f30:	4616      	mov	r6, r2
ffff3f32:	460c      	mov	r4, r1
ffff3f34:	b90c      	cbnz	r4, ffff3f3a <alt_sdmmc_transfer_helper+0x12>
ffff3f36:	46a0      	mov	r8, r4
ffff3f38:	e006      	b.n	ffff3f48 <alt_sdmmc_transfer_helper+0x20>
ffff3f3a:	f7ff fee9 	bl	ffff3d10 <alt_sdmmc_error_status_detect>
ffff3f3e:	4680      	mov	r8, r0
ffff3f40:	b128      	cbz	r0, ffff3f4e <alt_sdmmc_transfer_helper+0x26>
ffff3f42:	4821      	ldr	r0, [pc, #132]	; (ffff3fc8 <alt_sdmmc_transfer_helper+0xa0>)
ffff3f44:	f7fc f973 	bl	ffff022e <puts>
ffff3f48:	4640      	mov	r0, r8
ffff3f4a:	e8bd 81f0 	ldmia.w	sp!, {r4, r5, r6, r7, r8, pc}
ffff3f4e:	4a1f      	ldr	r2, [pc, #124]	; (ffff3fcc <alt_sdmmc_transfer_helper+0xa4>)
ffff3f50:	b95e      	cbnz	r6, ffff3f6a <alt_sdmmc_transfer_helper+0x42>
ffff3f52:	f7ff ffd1 	bl	ffff3ef8 <alt_sdmmc_fifo_is_empty>
ffff3f56:	4603      	mov	r3, r0
ffff3f58:	4630      	mov	r0, r6
ffff3f5a:	3a01      	subs	r2, #1
ffff3f5c:	d10e      	bne.n	ffff3f7c <alt_sdmmc_transfer_helper+0x54>
ffff3f5e:	481c      	ldr	r0, [pc, #112]	; (ffff3fd0 <alt_sdmmc_transfer_helper+0xa8>)
ffff3f60:	f06f 080b 	mvn.w	r8, #11
ffff3f64:	f7fc f963 	bl	ffff022e <puts>
ffff3f68:	e7ee      	b.n	ffff3f48 <alt_sdmmc_transfer_helper+0x20>
ffff3f6a:	2e01      	cmp	r6, #1
ffff3f6c:	d103      	bne.n	ffff3f76 <alt_sdmmc_transfer_helper+0x4e>
ffff3f6e:	f7ff ffcb 	bl	ffff3f08 <alt_sdmmc_fifo_is_full>
ffff3f72:	2300      	movs	r3, #0
ffff3f74:	e7f1      	b.n	ffff3f5a <alt_sdmmc_transfer_helper+0x32>
ffff3f76:	2300      	movs	r3, #0
ffff3f78:	4618      	mov	r0, r3
ffff3f7a:	e7ee      	b.n	ffff3f5a <alt_sdmmc_transfer_helper+0x32>
ffff3f7c:	4303      	orrs	r3, r0
ffff3f7e:	d1e7      	bne.n	ffff3f50 <alt_sdmmc_transfer_helper+0x28>
ffff3f80:	f7ff ffca 	bl	ffff3f18 <alt_sdmmc_fifo_count>
ffff3f84:	2e01      	cmp	r6, #1
ffff3f86:	d10f      	bne.n	ffff3fa8 <alt_sdmmc_transfer_helper+0x80>
ffff3f88:	f5c0 6380 	rsb	r3, r0, #1024	; 0x400
ffff3f8c:	08a0      	lsrs	r0, r4, #2
ffff3f8e:	4298      	cmp	r0, r3
ffff3f90:	bf28      	it	cs
ffff3f92:	4618      	movcs	r0, r3
ffff3f94:	0080      	lsls	r0, r0, #2
ffff3f96:	182b      	adds	r3, r5, r0
ffff3f98:	429d      	cmp	r5, r3
ffff3f9a:	d101      	bne.n	ffff3fa0 <alt_sdmmc_transfer_helper+0x78>
ffff3f9c:	1a24      	subs	r4, r4, r0
ffff3f9e:	e7c9      	b.n	ffff3f34 <alt_sdmmc_transfer_helper+0xc>
ffff3fa0:	f855 2b04 	ldr.w	r2, [r5], #4
ffff3fa4:	603a      	str	r2, [r7, #0]
ffff3fa6:	e7f7      	b.n	ffff3f98 <alt_sdmmc_transfer_helper+0x70>
ffff3fa8:	2e00      	cmp	r6, #0
ffff3faa:	d1c3      	bne.n	ffff3f34 <alt_sdmmc_transfer_helper+0xc>
ffff3fac:	08a3      	lsrs	r3, r4, #2
ffff3fae:	4298      	cmp	r0, r3
ffff3fb0:	bf28      	it	cs
ffff3fb2:	4618      	movcs	r0, r3
ffff3fb4:	0080      	lsls	r0, r0, #2
ffff3fb6:	182b      	adds	r3, r5, r0
ffff3fb8:	429d      	cmp	r5, r3
ffff3fba:	d0ef      	beq.n	ffff3f9c <alt_sdmmc_transfer_helper+0x74>
ffff3fbc:	683a      	ldr	r2, [r7, #0]
ffff3fbe:	f845 2b04 	str.w	r2, [r5], #4
ffff3fc2:	e7f9      	b.n	ffff3fb8 <alt_sdmmc_transfer_helper+0x90>
ffff3fc4:	ff704200 	.word	0xff704200
ffff3fc8:	ffff7461 	.word	0xffff7461
ffff3fcc:	000f4240 	.word	0x000f4240
ffff3fd0:	ffff747c 	.word	0xffff747c

ffff3fd4 <alt_sdmmc_fifo_param_set>:
ffff3fd4:	b510      	push	{r4, lr}
ffff3fd6:	0712      	lsls	r2, r2, #28
ffff3fd8:	4c0b      	ldr	r4, [pc, #44]	; (ffff4008 <alt_sdmmc_fifo_param_set+0x34>)
ffff3fda:	f3c1 010b 	ubfx	r1, r1, #0, #12
ffff3fde:	f002 42e0 	and.w	r2, r2, #1879048192	; 0x70000000
ffff3fe2:	430a      	orrs	r2, r1
ffff3fe4:	4909      	ldr	r1, [pc, #36]	; (ffff400c <alt_sdmmc_fifo_param_set+0x38>)
ffff3fe6:	6823      	ldr	r3, [r4, #0]
ffff3fe8:	f023 43ff 	bic.w	r3, r3, #2139095040	; 0x7f800000
ffff3fec:	ea01 4000 	and.w	r0, r1, r0, lsl #16
ffff3ff0:	f423 03fe 	bic.w	r3, r3, #8323072	; 0x7f0000
ffff3ff4:	f423 637f 	bic.w	r3, r3, #4080	; 0xff0
ffff3ff8:	4302      	orrs	r2, r0
ffff3ffa:	f023 030f 	bic.w	r3, r3, #15
ffff3ffe:	2000      	movs	r0, #0
ffff4000:	431a      	orrs	r2, r3
ffff4002:	6022      	str	r2, [r4, #0]
ffff4004:	bd10      	pop	{r4, pc}
ffff4006:	bf00      	nop
ffff4008:	ff70404c 	.word	0xff70404c
ffff400c:	0fff0000 	.word	0x0fff0000

ffff4010 <alt_sdmmc_dma_enable>:
ffff4010:	4a06      	ldr	r2, [pc, #24]	; (ffff402c <alt_sdmmc_dma_enable+0x1c>)
ffff4012:	2000      	movs	r0, #0
ffff4014:	6813      	ldr	r3, [r2, #0]
ffff4016:	f043 7300 	orr.w	r3, r3, #33554432	; 0x2000000
ffff401a:	6013      	str	r3, [r2, #0]
ffff401c:	f8d2 3080 	ldr.w	r3, [r2, #128]	; 0x80
ffff4020:	f043 0380 	orr.w	r3, r3, #128	; 0x80
ffff4024:	f8c2 3080 	str.w	r3, [r2, #128]	; 0x80
ffff4028:	4770      	bx	lr
ffff402a:	bf00      	nop
ffff402c:	ff704000 	.word	0xff704000

ffff4030 <alt_sdmmc_is_dma_enabled>:
ffff4030:	4b04      	ldr	r3, [pc, #16]	; (ffff4044 <alt_sdmmc_is_dma_enabled+0x14>)
ffff4032:	6818      	ldr	r0, [r3, #0]
ffff4034:	f010 7000 	ands.w	r0, r0, #33554432	; 0x2000000
ffff4038:	bf1c      	itt	ne
ffff403a:	f8d3 0080 	ldrne.w	r0, [r3, #128]	; 0x80
ffff403e:	f3c0 10c0 	ubfxne	r0, r0, #7, #1
ffff4042:	4770      	bx	lr
ffff4044:	ff704000 	.word	0xff704000

ffff4048 <alt_sdmmc_data_done_waiter>:
ffff4048:	b5f8      	push	{r3, r4, r5, r6, r7, lr}
ffff404a:	4c16      	ldr	r4, [pc, #88]	; (ffff40a4 <alt_sdmmc_data_done_waiter+0x5c>)
ffff404c:	4d16      	ldr	r5, [pc, #88]	; (ffff40a8 <alt_sdmmc_data_done_waiter+0x60>)
ffff404e:	4e17      	ldr	r6, [pc, #92]	; (ffff40ac <alt_sdmmc_data_done_waiter+0x64>)
ffff4050:	3c01      	subs	r4, #1
ffff4052:	d102      	bne.n	ffff405a <alt_sdmmc_data_done_waiter+0x12>
ffff4054:	f06f 010b 	mvn.w	r1, #11
ffff4058:	e016      	b.n	ffff4088 <alt_sdmmc_data_done_waiter+0x40>
ffff405a:	682f      	ldr	r7, [r5, #0]
ffff405c:	f7ff fe58 	bl	ffff3d10 <alt_sdmmc_error_status_detect>
ffff4060:	b948      	cbnz	r0, ffff4076 <alt_sdmmc_data_done_waiter+0x2e>
ffff4062:	f7ff ffe5 	bl	ffff4030 <alt_sdmmc_is_dma_enabled>
ffff4066:	2801      	cmp	r0, #1
ffff4068:	d108      	bne.n	ffff407c <alt_sdmmc_data_done_waiter+0x34>
ffff406a:	6833      	ldr	r3, [r6, #0]
ffff406c:	059a      	lsls	r2, r3, #22
ffff406e:	d505      	bpl.n	ffff407c <alt_sdmmc_data_done_waiter+0x34>
ffff4070:	480f      	ldr	r0, [pc, #60]	; (ffff40b0 <alt_sdmmc_data_done_waiter+0x68>)
ffff4072:	f7fc f8dc 	bl	ffff022e <puts>
ffff4076:	f04f 31ff 	mov.w	r1, #4294967295
ffff407a:	e005      	b.n	ffff4088 <alt_sdmmc_data_done_waiter+0x40>
ffff407c:	073b      	lsls	r3, r7, #28
ffff407e:	d5e7      	bpl.n	ffff4050 <alt_sdmmc_data_done_waiter+0x8>
ffff4080:	4b0c      	ldr	r3, [pc, #48]	; (ffff40b4 <alt_sdmmc_data_done_waiter+0x6c>)
ffff4082:	2100      	movs	r1, #0
ffff4084:	2208      	movs	r2, #8
ffff4086:	601a      	str	r2, [r3, #0]
ffff4088:	4c06      	ldr	r4, [pc, #24]	; (ffff40a4 <alt_sdmmc_data_done_waiter+0x5c>)
ffff408a:	f7ff fdcf 	bl	ffff3c2c <alt_sdmmc_is_idle>
ffff408e:	b930      	cbnz	r0, ffff409e <alt_sdmmc_data_done_waiter+0x56>
ffff4090:	3c01      	subs	r4, #1
ffff4092:	d1fa      	bne.n	ffff408a <alt_sdmmc_data_done_waiter+0x42>
ffff4094:	4808      	ldr	r0, [pc, #32]	; (ffff40b8 <alt_sdmmc_data_done_waiter+0x70>)
ffff4096:	f7fc f8ca 	bl	ffff022e <puts>
ffff409a:	f06f 010b 	mvn.w	r1, #11
ffff409e:	4608      	mov	r0, r1
ffff40a0:	bdf8      	pop	{r3, r4, r5, r6, r7, pc}
ffff40a2:	bf00      	nop
ffff40a4:	000f4240 	.word	0x000f4240
ffff40a8:	ff704040 	.word	0xff704040
ffff40ac:	ff70408c 	.word	0xff70408c
ffff40b0:	ffff73fd 	.word	0xffff73fd
ffff40b4:	ff704044 	.word	0xff704044
ffff40b8:	ffff7416 	.word	0xffff7416

ffff40bc <alt_sdmmc_dma_int_enable>:
ffff40bc:	4a02      	ldr	r2, [pc, #8]	; (ffff40c8 <alt_sdmmc_dma_int_enable+0xc>)
ffff40be:	6813      	ldr	r3, [r2, #0]
ffff40c0:	4318      	orrs	r0, r3
ffff40c2:	6010      	str	r0, [r2, #0]
ffff40c4:	2000      	movs	r0, #0
ffff40c6:	4770      	bx	lr
ffff40c8:	ff704090 	.word	0xff704090

ffff40cc <alt_sdmmc_card_rd_threshold_enable>:
ffff40cc:	4b06      	ldr	r3, [pc, #24]	; (ffff40e8 <alt_sdmmc_card_rd_threshold_enable+0x1c>)
ffff40ce:	4a07      	ldr	r2, [pc, #28]	; (ffff40ec <alt_sdmmc_card_rd_threshold_enable+0x20>)
ffff40d0:	ea03 4000 	and.w	r0, r3, r0, lsl #16
ffff40d4:	6811      	ldr	r1, [r2, #0]
ffff40d6:	4b06      	ldr	r3, [pc, #24]	; (ffff40f0 <alt_sdmmc_card_rd_threshold_enable+0x24>)
ffff40d8:	400b      	ands	r3, r1
ffff40da:	f043 0301 	orr.w	r3, r3, #1
ffff40de:	4318      	orrs	r0, r3
ffff40e0:	6010      	str	r0, [r2, #0]
ffff40e2:	2000      	movs	r0, #0
ffff40e4:	4770      	bx	lr
ffff40e6:	bf00      	nop
ffff40e8:	0fff0000 	.word	0x0fff0000
ffff40ec:	ff704100 	.word	0xff704100
ffff40f0:	f000fffe 	.word	0xf000fffe

ffff40f4 <alt_sdmmc_command_send>:
ffff40f4:	e92d 45f8 	stmdb	sp!, {r3, r4, r5, r6, r7, r8, sl, lr}
ffff40f8:	460d      	mov	r5, r1
ffff40fa:	4617      	mov	r7, r2
ffff40fc:	461e      	mov	r6, r3
ffff40fe:	b140      	cbz	r0, ffff4112 <alt_sdmmc_command_send+0x1e>
ffff4100:	2801      	cmp	r0, #1
ffff4102:	d01c      	beq.n	ffff413e <alt_sdmmc_command_send+0x4a>
ffff4104:	4843      	ldr	r0, [pc, #268]	; (ffff4214 <alt_sdmmc_command_send+0x120>)
ffff4106:	f7fc f892 	bl	ffff022e <puts>
ffff410a:	f06f 0008 	mvn.w	r0, #8
ffff410e:	e8bd 85f8 	ldmia.w	sp!, {r3, r4, r5, r6, r7, r8, sl, pc}
ffff4112:	4b41      	ldr	r3, [pc, #260]	; (ffff4218 <alt_sdmmc_command_send+0x124>)
ffff4114:	2210      	movs	r2, #16
ffff4116:	1c69      	adds	r1, r5, #1
ffff4118:	d041      	beq.n	ffff419e <alt_sdmmc_command_send+0xaa>
ffff411a:	eb03 0282 	add.w	r2, r3, r2, lsl #2
ffff411e:	2400      	movs	r4, #0
ffff4120:	7819      	ldrb	r1, [r3, #0]
ffff4122:	f001 013f 	and.w	r1, r1, #63	; 0x3f
ffff4126:	428d      	cmp	r5, r1
ffff4128:	bf08      	it	eq
ffff412a:	461c      	moveq	r4, r3
ffff412c:	f103 0304 	add.w	r3, r3, #4
ffff4130:	bf14      	ite	ne
ffff4132:	2100      	movne	r1, #0
ffff4134:	2101      	moveq	r1, #1
ffff4136:	4293      	cmp	r3, r2
ffff4138:	d104      	bne.n	ffff4144 <alt_sdmmc_command_send+0x50>
ffff413a:	b929      	cbnz	r1, ffff4148 <alt_sdmmc_command_send+0x54>
ffff413c:	e7e5      	b.n	ffff410a <alt_sdmmc_command_send+0x16>
ffff413e:	4b37      	ldr	r3, [pc, #220]	; (ffff421c <alt_sdmmc_command_send+0x128>)
ffff4140:	2204      	movs	r2, #4
ffff4142:	e7e8      	b.n	ffff4116 <alt_sdmmc_command_send+0x22>
ffff4144:	2900      	cmp	r1, #0
ffff4146:	d0eb      	beq.n	ffff4120 <alt_sdmmc_command_send+0x2c>
ffff4148:	7863      	ldrb	r3, [r4, #1]
ffff414a:	069b      	lsls	r3, r3, #26
ffff414c:	d429      	bmi.n	ffff41a2 <alt_sdmmc_command_send+0xae>
ffff414e:	7863      	ldrb	r3, [r4, #1]
ffff4150:	0798      	lsls	r0, r3, #30
ffff4152:	d42e      	bmi.n	ffff41b2 <alt_sdmmc_command_send+0xbe>
ffff4154:	f241 1107 	movw	r1, #4359	; 0x1107
ffff4158:	f8df a0e0 	ldr.w	sl, [pc, #224]	; ffff423c <alt_sdmmc_command_send+0x148>
ffff415c:	f8df 80e0 	ldr.w	r8, [pc, #224]	; ffff4240 <alt_sdmmc_command_send+0x14c>
ffff4160:	4650      	mov	r0, sl
ffff4162:	f7ff fead 	bl	ffff3ec0 <alt_sdmmc_int_disable>
ffff4166:	f8c8 a000 	str.w	sl, [r8]
ffff416a:	4608      	mov	r0, r1
ffff416c:	f7ff feb2 	bl	ffff3ed4 <alt_sdmmc_int_enable>
ffff4170:	4b2b      	ldr	r3, [pc, #172]	; (ffff4220 <alt_sdmmc_command_send+0x12c>)
ffff4172:	2200      	movs	r2, #0
ffff4174:	4621      	mov	r1, r4
ffff4176:	4628      	mov	r0, r5
ffff4178:	601f      	str	r7, [r3, #0]
ffff417a:	f7ff fd71 	bl	ffff3c60 <alt_sdmmc_cmd_set>
ffff417e:	4621      	mov	r1, r4
ffff4180:	2201      	movs	r2, #1
ffff4182:	4628      	mov	r0, r5
ffff4184:	f7ff fd6c 	bl	ffff3c60 <alt_sdmmc_cmd_set>
ffff4188:	78a3      	ldrb	r3, [r4, #2]
ffff418a:	0699      	lsls	r1, r3, #26
ffff418c:	d527      	bpl.n	ffff41de <alt_sdmmc_command_send+0xea>
ffff418e:	4c25      	ldr	r4, [pc, #148]	; (ffff4224 <alt_sdmmc_command_send+0x130>)
ffff4190:	4d25      	ldr	r5, [pc, #148]	; (ffff4228 <alt_sdmmc_command_send+0x134>)
ffff4192:	3c01      	subs	r4, #1
ffff4194:	d116      	bne.n	ffff41c4 <alt_sdmmc_command_send+0xd0>
ffff4196:	f06f 000b 	mvn.w	r0, #11
ffff419a:	e8bd 85f8 	ldmia.w	sp!, {r3, r4, r5, r6, r7, r8, sl, pc}
ffff419e:	4c23      	ldr	r4, [pc, #140]	; (ffff422c <alt_sdmmc_command_send+0x138>)
ffff41a0:	e7d2      	b.n	ffff4148 <alt_sdmmc_command_send+0x54>
ffff41a2:	4a23      	ldr	r2, [pc, #140]	; (ffff4230 <alt_sdmmc_command_send+0x13c>)
ffff41a4:	f7ff fd3a 	bl	ffff3c1c <alt_sdmmc_is_busy>
ffff41a8:	2800      	cmp	r0, #0
ffff41aa:	d0d0      	beq.n	ffff414e <alt_sdmmc_command_send+0x5a>
ffff41ac:	3a01      	subs	r2, #1
ffff41ae:	d1f9      	bne.n	ffff41a4 <alt_sdmmc_command_send+0xb0>
ffff41b0:	e7cd      	b.n	ffff414e <alt_sdmmc_command_send+0x5a>
ffff41b2:	f013 0f04 	tst.w	r3, #4
ffff41b6:	f649 53df 	movw	r3, #40415	; 0x9ddf
ffff41ba:	f64b 51ef 	movw	r1, #48623	; 0xbdef
ffff41be:	bf18      	it	ne
ffff41c0:	4619      	movne	r1, r3
ffff41c2:	e7c9      	b.n	ffff4158 <alt_sdmmc_command_send+0x64>
ffff41c4:	682e      	ldr	r6, [r5, #0]
ffff41c6:	f7ff fda3 	bl	ffff3d10 <alt_sdmmc_error_status_detect>
ffff41ca:	b118      	cbz	r0, ffff41d4 <alt_sdmmc_command_send+0xe0>
ffff41cc:	f04f 30ff 	mov.w	r0, #4294967295
ffff41d0:	e8bd 85f8 	ldmia.w	sp!, {r3, r4, r5, r6, r7, r8, sl, pc}
ffff41d4:	2e00      	cmp	r6, #0
ffff41d6:	dbdc      	blt.n	ffff4192 <alt_sdmmc_command_send+0x9e>
ffff41d8:	2000      	movs	r0, #0
ffff41da:	e8bd 85f8 	ldmia.w	sp!, {r3, r4, r5, r6, r7, r8, sl, pc}
ffff41de:	f7ff ff27 	bl	ffff4030 <alt_sdmmc_is_dma_enabled>
ffff41e2:	b140      	cbz	r0, ffff41f6 <alt_sdmmc_command_send+0x102>
ffff41e4:	7863      	ldrb	r3, [r4, #1]
ffff41e6:	079a      	lsls	r2, r3, #30
ffff41e8:	d505      	bpl.n	ffff41f6 <alt_sdmmc_command_send+0x102>
ffff41ea:	2e00      	cmp	r6, #0
ffff41ec:	d0f4      	beq.n	ffff41d8 <alt_sdmmc_command_send+0xe4>
ffff41ee:	4b11      	ldr	r3, [pc, #68]	; (ffff4234 <alt_sdmmc_command_send+0x140>)
ffff41f0:	681b      	ldr	r3, [r3, #0]
ffff41f2:	6033      	str	r3, [r6, #0]
ffff41f4:	e7f0      	b.n	ffff41d8 <alt_sdmmc_command_send+0xe4>
ffff41f6:	4c0b      	ldr	r4, [pc, #44]	; (ffff4224 <alt_sdmmc_command_send+0x130>)
ffff41f8:	4d0f      	ldr	r5, [pc, #60]	; (ffff4238 <alt_sdmmc_command_send+0x144>)
ffff41fa:	3c01      	subs	r4, #1
ffff41fc:	d0cb      	beq.n	ffff4196 <alt_sdmmc_command_send+0xa2>
ffff41fe:	682f      	ldr	r7, [r5, #0]
ffff4200:	f7ff fd86 	bl	ffff3d10 <alt_sdmmc_error_status_detect>
ffff4204:	2800      	cmp	r0, #0
ffff4206:	d1e1      	bne.n	ffff41cc <alt_sdmmc_command_send+0xd8>
ffff4208:	077b      	lsls	r3, r7, #29
ffff420a:	d5f6      	bpl.n	ffff41fa <alt_sdmmc_command_send+0x106>
ffff420c:	2304      	movs	r3, #4
ffff420e:	f8c8 3000 	str.w	r3, [r8]
ffff4212:	e7ea      	b.n	ffff41ea <alt_sdmmc_command_send+0xf6>
ffff4214:	ffff73e0 	.word	0xffff73e0
ffff4218:	ffff78b4 	.word	0xffff78b4
ffff421c:	ffff78a0 	.word	0xffff78a0
ffff4220:	ff704028 	.word	0xff704028
ffff4224:	000f4240 	.word	0x000f4240
ffff4228:	ff70402c 	.word	0xff70402c
ffff422c:	ffff78b0 	.word	0xffff78b0
ffff4230:	000f4241 	.word	0x000f4241
ffff4234:	ff704030 	.word	0xff704030
ffff4238:	ff704040 	.word	0xff704040
ffff423c:	0001ffff 	.word	0x0001ffff
ffff4240:	ff704044 	.word	0xff704044

ffff4244 <alt_sdmmc_card_clk_disable>:
ffff4244:	b510      	push	{r4, lr}
ffff4246:	f7ff fce9 	bl	ffff3c1c <alt_sdmmc_is_busy>
ffff424a:	2801      	cmp	r0, #1
ffff424c:	d00a      	beq.n	ffff4264 <alt_sdmmc_card_clk_disable+0x20>
ffff424e:	4a07      	ldr	r2, [pc, #28]	; (ffff426c <alt_sdmmc_card_clk_disable+0x28>)
ffff4250:	2300      	movs	r3, #0
ffff4252:	f04f 31ff 	mov.w	r1, #4294967295
ffff4256:	4618      	mov	r0, r3
ffff4258:	e8bd 4010 	ldmia.w	sp!, {r4, lr}
ffff425c:	6013      	str	r3, [r2, #0]
ffff425e:	461a      	mov	r2, r3
ffff4260:	f7ff bf48 	b.w	ffff40f4 <alt_sdmmc_command_send>
ffff4264:	f04f 30ff 	mov.w	r0, #4294967295
ffff4268:	bd10      	pop	{r4, pc}
ffff426a:	bf00      	nop
ffff426c:	ff704010 	.word	0xff704010

ffff4270 <alt_sdmmc_card_clk_enable>:
ffff4270:	b510      	push	{r4, lr}
ffff4272:	4602      	mov	r2, r0
ffff4274:	f7ff fcd2 	bl	ffff3c1c <alt_sdmmc_is_busy>
ffff4278:	2801      	cmp	r0, #1
ffff427a:	d00f      	beq.n	ffff429c <alt_sdmmc_card_clk_enable+0x2c>
ffff427c:	0412      	lsls	r2, r2, #16
ffff427e:	4b09      	ldr	r3, [pc, #36]	; (ffff42a4 <alt_sdmmc_card_clk_enable+0x34>)
ffff4280:	f04f 31ff 	mov.w	r1, #4294967295
ffff4284:	e8bd 4010 	ldmia.w	sp!, {r4, lr}
ffff4288:	f402 3280 	and.w	r2, r2, #65536	; 0x10000
ffff428c:	f042 0201 	orr.w	r2, r2, #1
ffff4290:	601a      	str	r2, [r3, #0]
ffff4292:	2300      	movs	r3, #0
ffff4294:	461a      	mov	r2, r3
ffff4296:	4618      	mov	r0, r3
ffff4298:	f7ff bf2c 	b.w	ffff40f4 <alt_sdmmc_command_send>
ffff429c:	f04f 30ff 	mov.w	r0, #4294967295
ffff42a0:	bd10      	pop	{r4, pc}
ffff42a2:	bf00      	nop
ffff42a4:	ff704010 	.word	0xff704010

ffff42a8 <alt_sdmmc_card_clk_div_set>:
ffff42a8:	b570      	push	{r4, r5, r6, lr}
ffff42aa:	4604      	mov	r4, r0
ffff42ac:	f7ff fcb6 	bl	ffff3c1c <alt_sdmmc_is_busy>
ffff42b0:	2801      	cmp	r0, #1
ffff42b2:	d01f      	beq.n	ffff42f4 <alt_sdmmc_card_clk_div_set+0x4c>
ffff42b4:	f7ff fda0 	bl	ffff3df8 <alt_sdmmc_card_clk_low_power_is_enabled>
ffff42b8:	4606      	mov	r6, r0
ffff42ba:	f7ff ffc3 	bl	ffff4244 <alt_sdmmc_card_clk_disable>
ffff42be:	4605      	mov	r5, r0
ffff42c0:	b120      	cbz	r0, ffff42cc <alt_sdmmc_card_clk_div_set+0x24>
ffff42c2:	480e      	ldr	r0, [pc, #56]	; (ffff42fc <alt_sdmmc_card_clk_div_set+0x54>)
ffff42c4:	f7fb ffb3 	bl	ffff022e <puts>
ffff42c8:	4628      	mov	r0, r5
ffff42ca:	bd70      	pop	{r4, r5, r6, pc}
ffff42cc:	2030      	movs	r0, #48	; 0x30
ffff42ce:	f000 fe99 	bl	ffff5004 <alt_clk_clock_disable>
ffff42d2:	4b0b      	ldr	r3, [pc, #44]	; (ffff4300 <alt_sdmmc_card_clk_div_set+0x58>)
ffff42d4:	b964      	cbnz	r4, ffff42f0 <alt_sdmmc_card_clk_div_set+0x48>
ffff42d6:	2212      	movs	r2, #18
ffff42d8:	601a      	str	r2, [r3, #0]
ffff42da:	2030      	movs	r0, #48	; 0x30
ffff42dc:	f000 ff22 	bl	ffff5124 <alt_clk_clock_enable>
ffff42e0:	4b08      	ldr	r3, [pc, #32]	; (ffff4304 <alt_sdmmc_card_clk_div_set+0x5c>)
ffff42e2:	b2e4      	uxtb	r4, r4
ffff42e4:	4630      	mov	r0, r6
ffff42e6:	601c      	str	r4, [r3, #0]
ffff42e8:	e8bd 4070 	ldmia.w	sp!, {r4, r5, r6, lr}
ffff42ec:	f7ff bfc0 	b.w	ffff4270 <alt_sdmmc_card_clk_enable>
ffff42f0:	2224      	movs	r2, #36	; 0x24
ffff42f2:	e7f1      	b.n	ffff42d8 <alt_sdmmc_card_clk_div_set+0x30>
ffff42f4:	f04f 35ff 	mov.w	r5, #4294967295
ffff42f8:	e7e6      	b.n	ffff42c8 <alt_sdmmc_card_clk_div_set+0x20>
ffff42fa:	bf00      	nop
ffff42fc:	ffff716f 	.word	0xffff716f
ffff4300:	ffd08108 	.word	0xffd08108
ffff4304:	ff704008 	.word	0xff704008

ffff4308 <alt_sdmmc_card_bus_width_set>:
ffff4308:	b538      	push	{r3, r4, r5, lr}
ffff430a:	460c      	mov	r4, r1
ffff430c:	6a83      	ldr	r3, [r0, #40]	; 0x28
ffff430e:	4219      	tst	r1, r3
ffff4310:	d020      	beq.n	ffff4354 <alt_sdmmc_card_bus_width_set+0x4c>
ffff4312:	2904      	cmp	r1, #4
ffff4314:	d005      	beq.n	ffff4322 <alt_sdmmc_card_bus_width_set+0x1a>
ffff4316:	2908      	cmp	r1, #8
ffff4318:	d01a      	beq.n	ffff4350 <alt_sdmmc_card_bus_width_set+0x48>
ffff431a:	2901      	cmp	r1, #1
ffff431c:	d11a      	bne.n	ffff4354 <alt_sdmmc_card_bus_width_set+0x4c>
ffff431e:	2500      	movs	r5, #0
ffff4320:	e000      	b.n	ffff4324 <alt_sdmmc_card_bus_width_set+0x1c>
ffff4322:	2502      	movs	r5, #2
ffff4324:	4a0d      	ldr	r2, [pc, #52]	; (ffff435c <alt_sdmmc_card_bus_width_set+0x54>)
ffff4326:	2300      	movs	r3, #0
ffff4328:	2137      	movs	r1, #55	; 0x37
ffff432a:	4618      	mov	r0, r3
ffff432c:	6812      	ldr	r2, [r2, #0]
ffff432e:	f7ff fee1 	bl	ffff40f4 <alt_sdmmc_command_send>
ffff4332:	4601      	mov	r1, r0
ffff4334:	b950      	cbnz	r0, ffff434c <alt_sdmmc_card_bus_width_set+0x44>
ffff4336:	4603      	mov	r3, r0
ffff4338:	2106      	movs	r1, #6
ffff433a:	462a      	mov	r2, r5
ffff433c:	2001      	movs	r0, #1
ffff433e:	f7ff fed9 	bl	ffff40f4 <alt_sdmmc_command_send>
ffff4342:	4601      	mov	r1, r0
ffff4344:	b910      	cbnz	r0, ffff434c <alt_sdmmc_card_bus_width_set+0x44>
ffff4346:	4620      	mov	r0, r4
ffff4348:	f7ff fcfc 	bl	ffff3d44 <alt_sdmmc_bus_width_set>
ffff434c:	4608      	mov	r0, r1
ffff434e:	bd38      	pop	{r3, r4, r5, pc}
ffff4350:	2503      	movs	r5, #3
ffff4352:	e7e7      	b.n	ffff4324 <alt_sdmmc_card_bus_width_set+0x1c>
ffff4354:	f06f 0108 	mvn.w	r1, #8
ffff4358:	e7f8      	b.n	ffff434c <alt_sdmmc_card_bus_width_set+0x44>
ffff435a:	bf00      	nop
ffff435c:	ffff8260 	.word	0xffff8260

ffff4360 <alt_cache_system_purge>:
ffff4360:	2000      	movs	r0, #0
ffff4362:	4770      	bx	lr

ffff4364 <alt_sdmmc_reset>:
ffff4364:	b5f7      	push	{r0, r1, r2, r4, r5, r6, r7, lr}
ffff4366:	f7ff fd1d 	bl	ffff3da4 <alt_sdmmc_card_pwr_is_on>
ffff436a:	4605      	mov	r5, r0
ffff436c:	2800      	cmp	r0, #0
ffff436e:	d151      	bne.n	ffff4414 <alt_sdmmc_reset+0xb0>
ffff4370:	f44f 5300 	mov.w	r3, #8192	; 0x2000
ffff4374:	9301      	str	r3, [sp, #4]
ffff4376:	f5a3 133f 	sub.w	r3, r3, #3129344	; 0x2fc000
ffff437a:	f6a3 73ec 	subw	r3, r3, #4076	; 0xfec
ffff437e:	681a      	ldr	r2, [r3, #0]
ffff4380:	f442 0280 	orr.w	r2, r2, #4194304	; 0x400000
ffff4384:	601a      	str	r2, [r3, #0]
ffff4386:	461a      	mov	r2, r3
ffff4388:	9b01      	ldr	r3, [sp, #4]
ffff438a:	1e59      	subs	r1, r3, #1
ffff438c:	9101      	str	r1, [sp, #4]
ffff438e:	2b00      	cmp	r3, #0
ffff4390:	d1fa      	bne.n	ffff4388 <alt_sdmmc_reset+0x24>
ffff4392:	6811      	ldr	r1, [r2, #0]
ffff4394:	f421 0180 	bic.w	r1, r1, #4194304	; 0x400000
ffff4398:	6011      	str	r1, [r2, #0]
ffff439a:	4619      	mov	r1, r3
ffff439c:	2d00      	cmp	r5, #0
ffff439e:	d041      	beq.n	ffff4424 <alt_sdmmc_reset+0xc0>
ffff43a0:	f7ff fcf6 	bl	ffff3d90 <alt_sdmmc_card_pwr_on>
ffff43a4:	4604      	mov	r4, r0
ffff43a6:	4b20      	ldr	r3, [pc, #128]	; (ffff4428 <alt_sdmmc_reset+0xc4>)
ffff43a8:	4820      	ldr	r0, [pc, #128]	; (ffff442c <alt_sdmmc_reset+0xc8>)
ffff43aa:	6019      	str	r1, [r3, #0]
ffff43ac:	2100      	movs	r1, #0
ffff43ae:	460f      	mov	r7, r1
ffff43b0:	4606      	mov	r6, r0
ffff43b2:	010a      	lsls	r2, r1, #4
ffff43b4:	297f      	cmp	r1, #127	; 0x7f
ffff43b6:	f101 0101 	add.w	r1, r1, #1
ffff43ba:	eb00 0302 	add.w	r3, r0, r2
ffff43be:	78dd      	ldrb	r5, [r3, #3]
ffff43c0:	f36f 15c7 	bfc	r5, #7, #1
ffff43c4:	70dd      	strb	r5, [r3, #3]
ffff43c6:	5c85      	ldrb	r5, [r0, r2]
ffff43c8:	f045 0510 	orr.w	r5, r5, #16
ffff43cc:	f36f 1545 	bfc	r5, #5, #1
ffff43d0:	5485      	strb	r5, [r0, r2]
ffff43d2:	bf18      	it	ne
ffff43d4:	3210      	addne	r2, #16
ffff43d6:	889d      	ldrh	r5, [r3, #4]
ffff43d8:	bf16      	itet	ne
ffff43da:	1812      	addne	r2, r2, r0
ffff43dc:	60d8      	streq	r0, [r3, #12]
ffff43de:	60da      	strne	r2, [r3, #12]
ffff43e0:	2980      	cmp	r1, #128	; 0x80
ffff43e2:	f36f 050c 	bfc	r5, #0, #13
ffff43e6:	609f      	str	r7, [r3, #8]
ffff43e8:	809d      	strh	r5, [r3, #4]
ffff43ea:	d1e2      	bne.n	ffff43b2 <alt_sdmmc_reset+0x4e>
ffff43ec:	4b10      	ldr	r3, [pc, #64]	; (ffff4430 <alt_sdmmc_reset+0xcc>)
ffff43ee:	f44f 6100 	mov.w	r1, #2048	; 0x800
ffff43f2:	480e      	ldr	r0, [pc, #56]	; (ffff442c <alt_sdmmc_reset+0xc8>)
ffff43f4:	601e      	str	r6, [r3, #0]
ffff43f6:	f7ff ffb3 	bl	ffff4360 <alt_cache_system_purge>
ffff43fa:	b984      	cbnz	r4, ffff441e <alt_sdmmc_reset+0xba>
ffff43fc:	4b0d      	ldr	r3, [pc, #52]	; (ffff4434 <alt_sdmmc_reset+0xd0>)
ffff43fe:	2201      	movs	r2, #1
ffff4400:	4620      	mov	r0, r4
ffff4402:	f04f 31ff 	mov.w	r1, #4294967295
ffff4406:	601a      	str	r2, [r3, #0]
ffff4408:	4623      	mov	r3, r4
ffff440a:	4622      	mov	r2, r4
ffff440c:	f7ff fe72 	bl	ffff40f4 <alt_sdmmc_command_send>
ffff4410:	4604      	mov	r4, r0
ffff4412:	e004      	b.n	ffff441e <alt_sdmmc_reset+0xba>
ffff4414:	f7ff fcce 	bl	ffff3db4 <alt_sdmmc_card_pwr_off>
ffff4418:	4604      	mov	r4, r0
ffff441a:	2800      	cmp	r0, #0
ffff441c:	d0a8      	beq.n	ffff4370 <alt_sdmmc_reset+0xc>
ffff441e:	4620      	mov	r0, r4
ffff4420:	b003      	add	sp, #12
ffff4422:	bdf0      	pop	{r4, r5, r6, r7, pc}
ffff4424:	461c      	mov	r4, r3
ffff4426:	e7be      	b.n	ffff43a6 <alt_sdmmc_reset+0x42>
ffff4428:	ffff8260 	.word	0xffff8260
ffff442c:	ffff7a60 	.word	0xffff7a60
ffff4430:	ffff7a40 	.word	0xffff7a40
ffff4434:	ff704010 	.word	0xff704010

ffff4438 <alt_sdmmc_init>:
ffff4438:	b508      	push	{r3, lr}
ffff443a:	2030      	movs	r0, #48	; 0x30
ffff443c:	f000 ff0c 	bl	ffff5258 <alt_clk_is_enabled>
ffff4440:	2801      	cmp	r0, #1
ffff4442:	d108      	bne.n	ffff4456 <alt_sdmmc_init+0x1e>
ffff4444:	4905      	ldr	r1, [pc, #20]	; (ffff445c <alt_sdmmc_init+0x24>)
ffff4446:	2030      	movs	r0, #48	; 0x30
ffff4448:	f001 f8fc 	bl	ffff5644 <alt_clk_freq_get>
ffff444c:	b928      	cbnz	r0, ffff445a <alt_sdmmc_init+0x22>
ffff444e:	e8bd 4008 	ldmia.w	sp!, {r3, lr}
ffff4452:	f7ff bf87 	b.w	ffff4364 <alt_sdmmc_reset>
ffff4456:	f06f 000d 	mvn.w	r0, #13
ffff445a:	bd08      	pop	{r3, pc}
ffff445c:	ffff7a20 	.word	0xffff7a20

ffff4460 <alt_sdmmc_desc_chain_clear>:
ffff4460:	4a0e      	ldr	r2, [pc, #56]	; (ffff449c <alt_sdmmc_desc_chain_clear+0x3c>)
ffff4462:	2100      	movs	r1, #0
ffff4464:	b410      	push	{r4}
ffff4466:	460c      	mov	r4, r1
ffff4468:	1853      	adds	r3, r2, r1
ffff446a:	78d8      	ldrb	r0, [r3, #3]
ffff446c:	f36f 10c7 	bfc	r0, #7, #1
ffff4470:	70d8      	strb	r0, [r3, #3]
ffff4472:	5c50      	ldrb	r0, [r2, r1]
ffff4474:	f000 00f9 	and.w	r0, r0, #249	; 0xf9
ffff4478:	f36f 00c3 	bfc	r0, #3, #1
ffff447c:	5450      	strb	r0, [r2, r1]
ffff447e:	3110      	adds	r1, #16
ffff4480:	8898      	ldrh	r0, [r3, #4]
ffff4482:	f5b1 6f00 	cmp.w	r1, #2048	; 0x800
ffff4486:	609c      	str	r4, [r3, #8]
ffff4488:	f36f 000c 	bfc	r0, #0, #13
ffff448c:	8098      	strh	r0, [r3, #4]
ffff448e:	d1eb      	bne.n	ffff4468 <alt_sdmmc_desc_chain_clear+0x8>
ffff4490:	4b03      	ldr	r3, [pc, #12]	; (ffff44a0 <alt_sdmmc_desc_chain_clear+0x40>)
ffff4492:	4802      	ldr	r0, [pc, #8]	; (ffff449c <alt_sdmmc_desc_chain_clear+0x3c>)
ffff4494:	bc10      	pop	{r4}
ffff4496:	601a      	str	r2, [r3, #0]
ffff4498:	f7ff bf62 	b.w	ffff4360 <alt_cache_system_purge>
ffff449c:	ffff7a60 	.word	0xffff7a60
ffff44a0:	ffff7a40 	.word	0xffff7a40

ffff44a4 <alt_sdmmc_dma_trans_helper>:
ffff44a4:	e92d 45f8 	stmdb	sp!, {r3, r4, r5, r6, r7, r8, sl, lr}
ffff44a8:	460e      	mov	r6, r1
ffff44aa:	4b25      	ldr	r3, [pc, #148]	; (ffff4540 <alt_sdmmc_dma_trans_helper+0x9c>)
ffff44ac:	4682      	mov	sl, r0
ffff44ae:	460c      	mov	r4, r1
ffff44b0:	4f24      	ldr	r7, [pc, #144]	; (ffff4544 <alt_sdmmc_dma_trans_helper+0xa0>)
ffff44b2:	681d      	ldr	r5, [r3, #0]
ffff44b4:	f8df 8094 	ldr.w	r8, [pc, #148]	; ffff454c <alt_sdmmc_dma_trans_helper+0xa8>
ffff44b8:	b914      	cbnz	r4, ffff44c0 <alt_sdmmc_dma_trans_helper+0x1c>
ffff44ba:	4620      	mov	r0, r4
ffff44bc:	e8bd 85f8 	ldmia.w	sp!, {r3, r4, r5, r6, r7, r8, sl, pc}
ffff44c0:	f7ff fc26 	bl	ffff3d10 <alt_sdmmc_error_status_detect>
ffff44c4:	b118      	cbz	r0, ffff44ce <alt_sdmmc_dma_trans_helper+0x2a>
ffff44c6:	f04f 30ff 	mov.w	r0, #4294967295
ffff44ca:	e8bd 85f8 	ldmia.w	sp!, {r3, r4, r5, r6, r7, r8, sl, pc}
ffff44ce:	f995 3003 	ldrsb.w	r3, [r5, #3]
ffff44d2:	2b00      	cmp	r3, #0
ffff44d4:	db21      	blt.n	ffff451a <alt_sdmmc_dma_trans_helper+0x76>
ffff44d6:	782b      	ldrb	r3, [r5, #0]
ffff44d8:	f5b4 7f00 	cmp.w	r4, #512	; 0x200
ffff44dc:	eba4 0006 	sub.w	r0, r4, r6
ffff44e0:	4622      	mov	r2, r4
ffff44e2:	bf28      	it	cs
ffff44e4:	f44f 7200 	movcs.w	r2, #512	; 0x200
ffff44e8:	4241      	negs	r1, r0
ffff44ea:	4141      	adcs	r1, r0
ffff44ec:	f043 0302 	orr.w	r3, r3, #2
ffff44f0:	f361 03c3 	bfi	r3, r1, #3, #1
ffff44f4:	88a9      	ldrh	r1, [r5, #4]
ffff44f6:	1aa4      	subs	r4, r4, r2
ffff44f8:	f8c5 a008 	str.w	sl, [r5, #8]
ffff44fc:	4492      	add	sl, r2
ffff44fe:	f362 010c 	bfi	r1, r2, #0, #13
ffff4502:	bf0c      	ite	eq
ffff4504:	2201      	moveq	r2, #1
ffff4506:	2200      	movne	r2, #0
ffff4508:	80a9      	strh	r1, [r5, #4]
ffff450a:	f362 0382 	bfi	r3, r2, #2, #1
ffff450e:	702b      	strb	r3, [r5, #0]
ffff4510:	78eb      	ldrb	r3, [r5, #3]
ffff4512:	f043 0380 	orr.w	r3, r3, #128	; 0x80
ffff4516:	70eb      	strb	r3, [r5, #3]
ffff4518:	68ed      	ldr	r5, [r5, #12]
ffff451a:	f44f 6100 	mov.w	r1, #2048	; 0x800
ffff451e:	480a      	ldr	r0, [pc, #40]	; (ffff4548 <alt_sdmmc_dma_trans_helper+0xa4>)
ffff4520:	f7ff ff1e 	bl	ffff4360 <alt_cache_system_purge>
ffff4524:	683b      	ldr	r3, [r7, #0]
ffff4526:	06da      	lsls	r2, r3, #27
ffff4528:	d506      	bpl.n	ffff4538 <alt_sdmmc_dma_trans_helper+0x94>
ffff452a:	f240 3337 	movw	r3, #823	; 0x337
ffff452e:	603b      	str	r3, [r7, #0]
ffff4530:	2301      	movs	r3, #1
ffff4532:	f8c8 3000 	str.w	r3, [r8]
ffff4536:	e7bf      	b.n	ffff44b8 <alt_sdmmc_dma_trans_helper+0x14>
ffff4538:	059b      	lsls	r3, r3, #22
ffff453a:	d4c4      	bmi.n	ffff44c6 <alt_sdmmc_dma_trans_helper+0x22>
ffff453c:	e7bc      	b.n	ffff44b8 <alt_sdmmc_dma_trans_helper+0x14>
ffff453e:	bf00      	nop
ffff4540:	ffff7a40 	.word	0xffff7a40
ffff4544:	ff70408c 	.word	0xff70408c
ffff4548:	ffff7a60 	.word	0xffff7a60
ffff454c:	ff704084 	.word	0xff704084

ffff4550 <alt_sdmmc_card_switch_function>:
ffff4550:	b5f8      	push	{r3, r4, r5, r6, r7, lr}
ffff4552:	4607      	mov	r7, r0
ffff4554:	4b27      	ldr	r3, [pc, #156]	; (ffff45f4 <alt_sdmmc_card_switch_function+0xa4>)
ffff4556:	2040      	movs	r0, #64	; 0x40
ffff4558:	460d      	mov	r5, r1
ffff455a:	681e      	ldr	r6, [r3, #0]
ffff455c:	f7ff fb76 	bl	ffff3c4c <alt_sdmmc_block_size_set>
ffff4560:	4b25      	ldr	r3, [pc, #148]	; (ffff45f8 <alt_sdmmc_card_switch_function+0xa8>)
ffff4562:	681a      	ldr	r2, [r3, #0]
ffff4564:	2240      	movs	r2, #64	; 0x40
ffff4566:	601a      	str	r2, [r3, #0]
ffff4568:	f7ff fc74 	bl	ffff3e54 <alt_sdmmc_fifo_reset>
ffff456c:	4604      	mov	r4, r0
ffff456e:	bba0      	cbnz	r0, ffff45da <alt_sdmmc_card_switch_function+0x8a>
ffff4570:	f7ff fd5e 	bl	ffff4030 <alt_sdmmc_is_dma_enabled>
ffff4574:	bb60      	cbnz	r0, ffff45d0 <alt_sdmmc_card_switch_function+0x80>
ffff4576:	f7ff fd5b 	bl	ffff4030 <alt_sdmmc_is_dma_enabled>
ffff457a:	b180      	cbz	r0, ffff459e <alt_sdmmc_card_switch_function+0x4e>
ffff457c:	f7ff ff70 	bl	ffff4460 <alt_sdmmc_desc_chain_clear>
ffff4580:	4b1e      	ldr	r3, [pc, #120]	; (ffff45fc <alt_sdmmc_card_switch_function+0xac>)
ffff4582:	f240 3037 	movw	r0, #823	; 0x337
ffff4586:	681a      	ldr	r2, [r3, #0]
ffff4588:	4b1d      	ldr	r3, [pc, #116]	; (ffff4600 <alt_sdmmc_card_switch_function+0xb0>)
ffff458a:	601a      	str	r2, [r3, #0]
ffff458c:	4a1d      	ldr	r2, [pc, #116]	; (ffff4604 <alt_sdmmc_card_switch_function+0xb4>)
ffff458e:	6813      	ldr	r3, [r2, #0]
ffff4590:	f423 63ef 	bic.w	r3, r3, #1912	; 0x778
ffff4594:	f023 0306 	bic.w	r3, r3, #6
ffff4598:	6013      	str	r3, [r2, #0]
ffff459a:	f7ff fd8f 	bl	ffff40bc <alt_sdmmc_dma_int_enable>
ffff459e:	2300      	movs	r3, #0
ffff45a0:	463a      	mov	r2, r7
ffff45a2:	2106      	movs	r1, #6
ffff45a4:	4618      	mov	r0, r3
ffff45a6:	f7ff fda5 	bl	ffff40f4 <alt_sdmmc_command_send>
ffff45aa:	4604      	mov	r4, r0
ffff45ac:	b9a8      	cbnz	r0, ffff45da <alt_sdmmc_card_switch_function+0x8a>
ffff45ae:	f7ff fd3f 	bl	ffff4030 <alt_sdmmc_is_dma_enabled>
ffff45b2:	b1a0      	cbz	r0, ffff45de <alt_sdmmc_card_switch_function+0x8e>
ffff45b4:	2140      	movs	r1, #64	; 0x40
ffff45b6:	4628      	mov	r0, r5
ffff45b8:	f7ff ff74 	bl	ffff44a4 <alt_sdmmc_dma_trans_helper>
ffff45bc:	4604      	mov	r4, r0
ffff45be:	b960      	cbnz	r0, ffff45da <alt_sdmmc_card_switch_function+0x8a>
ffff45c0:	f7ff fd42 	bl	ffff4048 <alt_sdmmc_data_done_waiter>
ffff45c4:	4604      	mov	r4, r0
ffff45c6:	b180      	cbz	r0, ffff45ea <alt_sdmmc_card_switch_function+0x9a>
ffff45c8:	480f      	ldr	r0, [pc, #60]	; (ffff4608 <alt_sdmmc_card_switch_function+0xb8>)
ffff45ca:	f7fb fe30 	bl	ffff022e <puts>
ffff45ce:	e004      	b.n	ffff45da <alt_sdmmc_card_switch_function+0x8a>
ffff45d0:	f7ff fc52 	bl	ffff3e78 <alt_sdmmc_dma_reset>
ffff45d4:	4604      	mov	r4, r0
ffff45d6:	2800      	cmp	r0, #0
ffff45d8:	d0cd      	beq.n	ffff4576 <alt_sdmmc_card_switch_function+0x26>
ffff45da:	4620      	mov	r0, r4
ffff45dc:	bdf8      	pop	{r3, r4, r5, r6, r7, pc}
ffff45de:	4622      	mov	r2, r4
ffff45e0:	2140      	movs	r1, #64	; 0x40
ffff45e2:	4628      	mov	r0, r5
ffff45e4:	f7ff fca0 	bl	ffff3f28 <alt_sdmmc_transfer_helper>
ffff45e8:	e7e8      	b.n	ffff45bc <alt_sdmmc_card_switch_function+0x6c>
ffff45ea:	b2b0      	uxth	r0, r6
ffff45ec:	f7ff fb2e 	bl	ffff3c4c <alt_sdmmc_block_size_set>
ffff45f0:	e7f3      	b.n	ffff45da <alt_sdmmc_card_switch_function+0x8a>
ffff45f2:	bf00      	nop
ffff45f4:	ff70401c 	.word	0xff70401c
ffff45f8:	ff704020 	.word	0xff704020
ffff45fc:	ffff7a40 	.word	0xffff7a40
ffff4600:	ff704088 	.word	0xff704088
ffff4604:	ff704080 	.word	0xff704080
ffff4608:	ffff73bd 	.word	0xffff73bd

ffff460c <alt_sdmmc_card_speed_set>:
ffff460c:	4b36      	ldr	r3, [pc, #216]	; (ffff46e8 <alt_sdmmc_card_speed_set+0xdc>)
ffff460e:	00c9      	lsls	r1, r1, #3
ffff4610:	b5f0      	push	{r4, r5, r6, r7, lr}
ffff4612:	4607      	mov	r7, r0
ffff4614:	b093      	sub	sp, #76	; 0x4c
ffff4616:	6818      	ldr	r0, [r3, #0]
ffff4618:	f001 eb82 	blx	ffff5d20 <__aeabi_uidiv>
ffff461c:	2240      	movs	r2, #64	; 0x40
ffff461e:	4605      	mov	r5, r0
ffff4620:	2100      	movs	r1, #0
ffff4622:	a802      	add	r0, sp, #8
ffff4624:	f001 fd1c 	bl	ffff6060 <memset>
ffff4628:	4b30      	ldr	r3, [pc, #192]	; (ffff46ec <alt_sdmmc_card_speed_set+0xe0>)
ffff462a:	681c      	ldr	r4, [r3, #0]
ffff462c:	b2e4      	uxtb	r4, r4
ffff462e:	42a5      	cmp	r5, r4
ffff4630:	d057      	beq.n	ffff46e2 <alt_sdmmc_card_speed_set+0xd6>
ffff4632:	f7ff fbd9 	bl	ffff3de8 <alt_sdmmc_card_clk_is_enabled>
ffff4636:	bb18      	cbnz	r0, ffff4680 <alt_sdmmc_card_speed_set+0x74>
ffff4638:	2601      	movs	r6, #1
ffff463a:	f7ff fbdd 	bl	ffff3df8 <alt_sdmmc_card_clk_low_power_is_enabled>
ffff463e:	f7ff fe17 	bl	ffff4270 <alt_sdmmc_card_clk_enable>
ffff4642:	2d00      	cmp	r5, #0
ffff4644:	d137      	bne.n	ffff46b6 <alt_sdmmc_card_speed_set+0xaa>
ffff4646:	7dbb      	ldrb	r3, [r7, #22]
ffff4648:	b38b      	cbz	r3, ffff46ae <alt_sdmmc_card_speed_set+0xa2>
ffff464a:	a902      	add	r1, sp, #8
ffff464c:	4828      	ldr	r0, [pc, #160]	; (ffff46f0 <alt_sdmmc_card_speed_set+0xe4>)
ffff464e:	f7ff ff7f 	bl	ffff4550 <alt_sdmmc_card_switch_function>
ffff4652:	4604      	mov	r4, r0
ffff4654:	b9c8      	cbnz	r0, ffff468a <alt_sdmmc_card_speed_set+0x7e>
ffff4656:	f89d 3018 	ldrb.w	r3, [sp, #24]
ffff465a:	f003 030f 	and.w	r3, r3, #15
ffff465e:	2b01      	cmp	r3, #1
ffff4660:	d113      	bne.n	ffff468a <alt_sdmmc_card_speed_set+0x7e>
ffff4662:	2308      	movs	r3, #8
ffff4664:	9300      	str	r3, [sp, #0]
ffff4666:	9b00      	ldr	r3, [sp, #0]
ffff4668:	b963      	cbnz	r3, ffff4684 <alt_sdmmc_card_speed_set+0x78>
ffff466a:	4628      	mov	r0, r5
ffff466c:	f7ff fe1c 	bl	ffff42a8 <alt_sdmmc_card_clk_div_set>
ffff4670:	4604      	mov	r4, r0
ffff4672:	b1b0      	cbz	r0, ffff46a2 <alt_sdmmc_card_speed_set+0x96>
ffff4674:	481f      	ldr	r0, [pc, #124]	; (ffff46f4 <alt_sdmmc_card_speed_set+0xe8>)
ffff4676:	f7fb fdda 	bl	ffff022e <puts>
ffff467a:	4620      	mov	r0, r4
ffff467c:	b013      	add	sp, #76	; 0x4c
ffff467e:	bdf0      	pop	{r4, r5, r6, r7, pc}
ffff4680:	2600      	movs	r6, #0
ffff4682:	e7de      	b.n	ffff4642 <alt_sdmmc_card_speed_set+0x36>
ffff4684:	9b00      	ldr	r3, [sp, #0]
ffff4686:	3b01      	subs	r3, #1
ffff4688:	e7ec      	b.n	ffff4664 <alt_sdmmc_card_speed_set+0x58>
ffff468a:	481b      	ldr	r0, [pc, #108]	; (ffff46f8 <alt_sdmmc_card_speed_set+0xec>)
ffff468c:	f7fb fdcf 	bl	ffff022e <puts>
ffff4690:	f89d 0018 	ldrb.w	r0, [sp, #24]
ffff4694:	f7fb fd8c 	bl	ffff01b0 <putHexa32>
ffff4698:	4818      	ldr	r0, [pc, #96]	; (ffff46fc <alt_sdmmc_card_speed_set+0xf0>)
ffff469a:	f7fb fdc8 	bl	ffff022e <puts>
ffff469e:	2c00      	cmp	r4, #0
ffff46a0:	d0e3      	beq.n	ffff466a <alt_sdmmc_card_speed_set+0x5e>
ffff46a2:	2e00      	cmp	r6, #0
ffff46a4:	d0e9      	beq.n	ffff467a <alt_sdmmc_card_speed_set+0x6e>
ffff46a6:	f7ff fdcd 	bl	ffff4244 <alt_sdmmc_card_clk_disable>
ffff46aa:	4604      	mov	r4, r0
ffff46ac:	e7e5      	b.n	ffff467a <alt_sdmmc_card_speed_set+0x6e>
ffff46ae:	4814      	ldr	r0, [pc, #80]	; (ffff4700 <alt_sdmmc_card_speed_set+0xf4>)
ffff46b0:	f7fb fdbd 	bl	ffff022e <puts>
ffff46b4:	e7d9      	b.n	ffff466a <alt_sdmmc_card_speed_set+0x5e>
ffff46b6:	2c00      	cmp	r4, #0
ffff46b8:	d1d7      	bne.n	ffff466a <alt_sdmmc_card_speed_set+0x5e>
ffff46ba:	a902      	add	r1, sp, #8
ffff46bc:	4811      	ldr	r0, [pc, #68]	; (ffff4704 <alt_sdmmc_card_speed_set+0xf8>)
ffff46be:	f7ff ff47 	bl	ffff4550 <alt_sdmmc_card_switch_function>
ffff46c2:	4604      	mov	r4, r0
ffff46c4:	b958      	cbnz	r0, ffff46de <alt_sdmmc_card_speed_set+0xd2>
ffff46c6:	f89d 3018 	ldrb.w	r3, [sp, #24]
ffff46ca:	071b      	lsls	r3, r3, #28
ffff46cc:	d107      	bne.n	ffff46de <alt_sdmmc_card_speed_set+0xd2>
ffff46ce:	2308      	movs	r3, #8
ffff46d0:	9301      	str	r3, [sp, #4]
ffff46d2:	9b01      	ldr	r3, [sp, #4]
ffff46d4:	2b00      	cmp	r3, #0
ffff46d6:	d0c8      	beq.n	ffff466a <alt_sdmmc_card_speed_set+0x5e>
ffff46d8:	9b01      	ldr	r3, [sp, #4]
ffff46da:	3b01      	subs	r3, #1
ffff46dc:	e7f8      	b.n	ffff46d0 <alt_sdmmc_card_speed_set+0xc4>
ffff46de:	480a      	ldr	r0, [pc, #40]	; (ffff4708 <alt_sdmmc_card_speed_set+0xfc>)
ffff46e0:	e7db      	b.n	ffff469a <alt_sdmmc_card_speed_set+0x8e>
ffff46e2:	2400      	movs	r4, #0
ffff46e4:	e7c9      	b.n	ffff467a <alt_sdmmc_card_speed_set+0x6e>
ffff46e6:	bf00      	nop
ffff46e8:	ffff7a20 	.word	0xffff7a20
ffff46ec:	ff704008 	.word	0xff704008
ffff46f0:	80fffff1 	.word	0x80fffff1
ffff46f4:	ffff739a 	.word	0xffff739a
ffff46f8:	ffff7324 	.word	0xffff7324
ffff46fc:	ffff6f87 	.word	0xffff6f87
ffff4700:	ffff735b 	.word	0xffff735b
ffff4704:	80fffff0 	.word	0x80fffff0
ffff4708:	ffff7377 	.word	0xffff7377

ffff470c <alt_sdmmc_card_enum_sd>:
ffff470c:	4bab      	ldr	r3, [pc, #684]	; (ffff49bc <alt_sdmmc_card_enum_sd+0x2b0>)
ffff470e:	b5f0      	push	{r4, r5, r6, r7, lr}
ffff4710:	b097      	sub	sp, #92	; 0x5c
ffff4712:	4605      	mov	r5, r0
ffff4714:	681a      	ldr	r2, [r3, #0]
ffff4716:	4baa      	ldr	r3, [pc, #680]	; (ffff49c0 <alt_sdmmc_card_enum_sd+0x2b4>)
ffff4718:	0a92      	lsrs	r2, r2, #10
ffff471a:	fba2 2303 	umull	r2, r3, r2, r3
ffff471e:	089c      	lsrs	r4, r3, #2
ffff4720:	2300      	movs	r3, #0
ffff4722:	9300      	str	r3, [sp, #0]
ffff4724:	f7ff fd8e 	bl	ffff4244 <alt_sdmmc_card_clk_disable>
ffff4728:	4620      	mov	r0, r4
ffff472a:	f7ff fdbd 	bl	ffff42a8 <alt_sdmmc_card_clk_div_set>
ffff472e:	4604      	mov	r4, r0
ffff4730:	2800      	cmp	r0, #0
ffff4732:	f040 8103 	bne.w	ffff493c <alt_sdmmc_card_enum_sd+0x230>
ffff4736:	f7ff fd9b 	bl	ffff4270 <alt_sdmmc_card_clk_enable>
ffff473a:	4623      	mov	r3, r4
ffff473c:	4622      	mov	r2, r4
ffff473e:	4621      	mov	r1, r4
ffff4740:	4620      	mov	r0, r4
ffff4742:	f7ff fcd7 	bl	ffff40f4 <alt_sdmmc_command_send>
ffff4746:	4604      	mov	r4, r0
ffff4748:	2800      	cmp	r0, #0
ffff474a:	f040 80f7 	bne.w	ffff493c <alt_sdmmc_card_enum_sd+0x230>
ffff474e:	466b      	mov	r3, sp
ffff4750:	f44f 72d5 	mov.w	r2, #426	; 0x1aa
ffff4754:	2108      	movs	r1, #8
ffff4756:	f7ff fccd 	bl	ffff40f4 <alt_sdmmc_command_send>
ffff475a:	4604      	mov	r4, r0
ffff475c:	2800      	cmp	r0, #0
ffff475e:	f040 80ed 	bne.w	ffff493c <alt_sdmmc_card_enum_sd+0x230>
ffff4762:	4e98      	ldr	r6, [pc, #608]	; (ffff49c4 <alt_sdmmc_card_enum_sd+0x2b8>)
ffff4764:	4f98      	ldr	r7, [pc, #608]	; (ffff49c8 <alt_sdmmc_card_enum_sd+0x2bc>)
ffff4766:	2200      	movs	r2, #0
ffff4768:	466b      	mov	r3, sp
ffff476a:	2137      	movs	r1, #55	; 0x37
ffff476c:	4610      	mov	r0, r2
ffff476e:	9601      	str	r6, [sp, #4]
ffff4770:	f7ff fcc0 	bl	ffff40f4 <alt_sdmmc_command_send>
ffff4774:	4604      	mov	r4, r0
ffff4776:	2800      	cmp	r0, #0
ffff4778:	f040 80e0 	bne.w	ffff493c <alt_sdmmc_card_enum_sd+0x230>
ffff477c:	9b01      	ldr	r3, [sp, #4]
ffff477e:	1e5a      	subs	r2, r3, #1
ffff4780:	9201      	str	r2, [sp, #4]
ffff4782:	2b00      	cmp	r3, #0
ffff4784:	d1fa      	bne.n	ffff477c <alt_sdmmc_card_enum_sd+0x70>
ffff4786:	466b      	mov	r3, sp
ffff4788:	463a      	mov	r2, r7
ffff478a:	2129      	movs	r1, #41	; 0x29
ffff478c:	2001      	movs	r0, #1
ffff478e:	f7ff fcb1 	bl	ffff40f4 <alt_sdmmc_command_send>
ffff4792:	4604      	mov	r4, r0
ffff4794:	2800      	cmp	r0, #0
ffff4796:	f040 80d1 	bne.w	ffff493c <alt_sdmmc_card_enum_sd+0x230>
ffff479a:	9b00      	ldr	r3, [sp, #0]
ffff479c:	2b00      	cmp	r3, #0
ffff479e:	dae2      	bge.n	ffff4766 <alt_sdmmc_card_enum_sd+0x5a>
ffff47a0:	4603      	mov	r3, r0
ffff47a2:	4602      	mov	r2, r0
ffff47a4:	2102      	movs	r1, #2
ffff47a6:	f7ff fca5 	bl	ffff40f4 <alt_sdmmc_command_send>
ffff47aa:	4604      	mov	r4, r0
ffff47ac:	2800      	cmp	r0, #0
ffff47ae:	f040 80c5 	bne.w	ffff493c <alt_sdmmc_card_enum_sd+0x230>
ffff47b2:	466b      	mov	r3, sp
ffff47b4:	4602      	mov	r2, r0
ffff47b6:	2103      	movs	r1, #3
ffff47b8:	f7ff fc9c 	bl	ffff40f4 <alt_sdmmc_command_send>
ffff47bc:	4604      	mov	r4, r0
ffff47be:	2800      	cmp	r0, #0
ffff47c0:	f040 80bc 	bne.w	ffff493c <alt_sdmmc_card_enum_sd+0x230>
ffff47c4:	9a00      	ldr	r2, [sp, #0]
ffff47c6:	4603      	mov	r3, r0
ffff47c8:	4e80      	ldr	r6, [pc, #512]	; (ffff49cc <alt_sdmmc_card_enum_sd+0x2c0>)
ffff47ca:	210a      	movs	r1, #10
ffff47cc:	0c12      	lsrs	r2, r2, #16
ffff47ce:	0412      	lsls	r2, r2, #16
ffff47d0:	6032      	str	r2, [r6, #0]
ffff47d2:	f7ff fc8f 	bl	ffff40f4 <alt_sdmmc_command_send>
ffff47d6:	4604      	mov	r4, r0
ffff47d8:	2800      	cmp	r0, #0
ffff47da:	f040 80af 	bne.w	ffff493c <alt_sdmmc_card_enum_sd+0x230>
ffff47de:	466b      	mov	r3, sp
ffff47e0:	6832      	ldr	r2, [r6, #0]
ffff47e2:	2109      	movs	r1, #9
ffff47e4:	f7ff fc86 	bl	ffff40f4 <alt_sdmmc_command_send>
ffff47e8:	4604      	mov	r4, r0
ffff47ea:	2800      	cmp	r0, #0
ffff47ec:	f040 80a6 	bne.w	ffff493c <alt_sdmmc_card_enum_sd+0x230>
ffff47f0:	a802      	add	r0, sp, #8
ffff47f2:	f7ff fb53 	bl	ffff3e9c <alt_sdmmc_read_long_response>
ffff47f6:	9b04      	ldr	r3, [sp, #16]
ffff47f8:	2101      	movs	r1, #1
ffff47fa:	f3c3 4203 	ubfx	r2, r3, #16, #4
ffff47fe:	fa01 f202 	lsl.w	r2, r1, r2
ffff4802:	60ea      	str	r2, [r5, #12]
ffff4804:	9a02      	ldr	r2, [sp, #8]
ffff4806:	f3c2 5083 	ubfx	r0, r2, #22, #4
ffff480a:	f3c2 5240 	ubfx	r2, r2, #21, #1
ffff480e:	4081      	lsls	r1, r0
ffff4810:	756a      	strb	r2, [r5, #21]
ffff4812:	9a05      	ldr	r2, [sp, #20]
ffff4814:	6129      	str	r1, [r5, #16]
ffff4816:	0d19      	lsrs	r1, r3, #20
ffff4818:	61e9      	str	r1, [r5, #28]
ffff481a:	f3c3 31c0 	ubfx	r1, r3, #15, #1
ffff481e:	7529      	strb	r1, [r5, #20]
ffff4820:	f3c2 01c3 	ubfx	r1, r2, #3, #4
ffff4824:	f002 0007 	and.w	r0, r2, #7
ffff4828:	0f92      	lsrs	r2, r2, #30
ffff482a:	2900      	cmp	r1, #0
ffff482c:	f000 80c2 	beq.w	ffff49b4 <alt_sdmmc_card_enum_sd+0x2a8>
ffff4830:	2803      	cmp	r0, #3
ffff4832:	f200 80bf 	bhi.w	ffff49b4 <alt_sdmmc_card_enum_sd+0x2a8>
ffff4836:	4c66      	ldr	r4, [pc, #408]	; (ffff49d0 <alt_sdmmc_card_enum_sd+0x2c4>)
ffff4838:	f854 4020 	ldr.w	r4, [r4, r0, lsl #2]
ffff483c:	4865      	ldr	r0, [pc, #404]	; (ffff49d4 <alt_sdmmc_card_enum_sd+0x2c8>)
ffff483e:	f850 0021 	ldr.w	r0, [r0, r1, lsl #2]
ffff4842:	4965      	ldr	r1, [pc, #404]	; (ffff49d8 <alt_sdmmc_card_enum_sd+0x2cc>)
ffff4844:	4360      	muls	r0, r4
ffff4846:	fba0 0101 	umull	r0, r1, r0, r1
ffff484a:	08c9      	lsrs	r1, r1, #3
ffff484c:	60a9      	str	r1, [r5, #8]
ffff484e:	9903      	ldr	r1, [sp, #12]
ffff4850:	2a00      	cmp	r2, #0
ffff4852:	d163      	bne.n	ffff491c <alt_sdmmc_card_enum_sd+0x210>
ffff4854:	f640 72fc 	movw	r2, #4092	; 0xffc
ffff4858:	ea02 0283 	and.w	r2, r2, r3, lsl #2
ffff485c:	f3c1 33c2 	ubfx	r3, r1, #15, #3
ffff4860:	3302      	adds	r3, #2
ffff4862:	ea42 7291 	orr.w	r2, r2, r1, lsr #30
ffff4866:	3201      	adds	r2, #1
ffff4868:	fa02 f303 	lsl.w	r3, r2, r3
ffff486c:	626b      	str	r3, [r5, #36]	; 0x24
ffff486e:	2300      	movs	r3, #0
ffff4870:	622b      	str	r3, [r5, #32]
ffff4872:	466b      	mov	r3, sp
ffff4874:	6832      	ldr	r2, [r6, #0]
ffff4876:	2107      	movs	r1, #7
ffff4878:	2000      	movs	r0, #0
ffff487a:	f7ff fc3b 	bl	ffff40f4 <alt_sdmmc_command_send>
ffff487e:	4604      	mov	r4, r0
ffff4880:	2800      	cmp	r0, #0
ffff4882:	d15b      	bne.n	ffff493c <alt_sdmmc_card_enum_sd+0x230>
ffff4884:	466b      	mov	r3, sp
ffff4886:	6832      	ldr	r2, [r6, #0]
ffff4888:	210d      	movs	r1, #13
ffff488a:	f7ff fc33 	bl	ffff40f4 <alt_sdmmc_command_send>
ffff488e:	4604      	mov	r4, r0
ffff4890:	2800      	cmp	r0, #0
ffff4892:	d153      	bne.n	ffff493c <alt_sdmmc_card_enum_sd+0x230>
ffff4894:	4b51      	ldr	r3, [pc, #324]	; (ffff49dc <alt_sdmmc_card_enum_sd+0x2d0>)
ffff4896:	2008      	movs	r0, #8
ffff4898:	681f      	ldr	r7, [r3, #0]
ffff489a:	f7ff f9d7 	bl	ffff3c4c <alt_sdmmc_block_size_set>
ffff489e:	4b50      	ldr	r3, [pc, #320]	; (ffff49e0 <alt_sdmmc_card_enum_sd+0x2d4>)
ffff48a0:	b2bf      	uxth	r7, r7
ffff48a2:	681a      	ldr	r2, [r3, #0]
ffff48a4:	2208      	movs	r2, #8
ffff48a6:	601a      	str	r2, [r3, #0]
ffff48a8:	f7ff fad4 	bl	ffff3e54 <alt_sdmmc_fifo_reset>
ffff48ac:	4604      	mov	r4, r0
ffff48ae:	2800      	cmp	r0, #0
ffff48b0:	d144      	bne.n	ffff493c <alt_sdmmc_card_enum_sd+0x230>
ffff48b2:	f7ff fbbd 	bl	ffff4030 <alt_sdmmc_is_dma_enabled>
ffff48b6:	2800      	cmp	r0, #0
ffff48b8:	d13b      	bne.n	ffff4932 <alt_sdmmc_card_enum_sd+0x226>
ffff48ba:	f7ff fbb9 	bl	ffff4030 <alt_sdmmc_is_dma_enabled>
ffff48be:	b180      	cbz	r0, ffff48e2 <alt_sdmmc_card_enum_sd+0x1d6>
ffff48c0:	f7ff fdce 	bl	ffff4460 <alt_sdmmc_desc_chain_clear>
ffff48c4:	4b47      	ldr	r3, [pc, #284]	; (ffff49e4 <alt_sdmmc_card_enum_sd+0x2d8>)
ffff48c6:	f240 3037 	movw	r0, #823	; 0x337
ffff48ca:	681a      	ldr	r2, [r3, #0]
ffff48cc:	4b46      	ldr	r3, [pc, #280]	; (ffff49e8 <alt_sdmmc_card_enum_sd+0x2dc>)
ffff48ce:	601a      	str	r2, [r3, #0]
ffff48d0:	4a46      	ldr	r2, [pc, #280]	; (ffff49ec <alt_sdmmc_card_enum_sd+0x2e0>)
ffff48d2:	6813      	ldr	r3, [r2, #0]
ffff48d4:	f423 63ef 	bic.w	r3, r3, #1912	; 0x778
ffff48d8:	f023 0306 	bic.w	r3, r3, #6
ffff48dc:	6013      	str	r3, [r2, #0]
ffff48de:	f7ff fbed 	bl	ffff40bc <alt_sdmmc_dma_int_enable>
ffff48e2:	2300      	movs	r3, #0
ffff48e4:	6832      	ldr	r2, [r6, #0]
ffff48e6:	2137      	movs	r1, #55	; 0x37
ffff48e8:	4618      	mov	r0, r3
ffff48ea:	f7ff fc03 	bl	ffff40f4 <alt_sdmmc_command_send>
ffff48ee:	4604      	mov	r4, r0
ffff48f0:	bb20      	cbnz	r0, ffff493c <alt_sdmmc_card_enum_sd+0x230>
ffff48f2:	4603      	mov	r3, r0
ffff48f4:	4602      	mov	r2, r0
ffff48f6:	2133      	movs	r1, #51	; 0x33
ffff48f8:	2001      	movs	r0, #1
ffff48fa:	f7ff fbfb 	bl	ffff40f4 <alt_sdmmc_command_send>
ffff48fe:	4604      	mov	r4, r0
ffff4900:	b9e0      	cbnz	r0, ffff493c <alt_sdmmc_card_enum_sd+0x230>
ffff4902:	f7ff fb95 	bl	ffff4030 <alt_sdmmc_is_dma_enabled>
ffff4906:	b1e0      	cbz	r0, ffff4942 <alt_sdmmc_card_enum_sd+0x236>
ffff4908:	2108      	movs	r1, #8
ffff490a:	a806      	add	r0, sp, #24
ffff490c:	f7ff fdca 	bl	ffff44a4 <alt_sdmmc_dma_trans_helper>
ffff4910:	4604      	mov	r4, r0
ffff4912:	b1e0      	cbz	r0, ffff494e <alt_sdmmc_card_enum_sd+0x242>
ffff4914:	4836      	ldr	r0, [pc, #216]	; (ffff49f0 <alt_sdmmc_card_enum_sd+0x2e4>)
ffff4916:	f7fb fc8a 	bl	ffff022e <puts>
ffff491a:	e00f      	b.n	ffff493c <alt_sdmmc_card_enum_sd+0x230>
ffff491c:	041b      	lsls	r3, r3, #16
ffff491e:	f403 137c 	and.w	r3, r3, #4128768	; 0x3f0000
ffff4922:	ea43 4311 	orr.w	r3, r3, r1, lsr #16
ffff4926:	3301      	adds	r3, #1
ffff4928:	0d9a      	lsrs	r2, r3, #22
ffff492a:	029b      	lsls	r3, r3, #10
ffff492c:	622a      	str	r2, [r5, #32]
ffff492e:	626b      	str	r3, [r5, #36]	; 0x24
ffff4930:	e79f      	b.n	ffff4872 <alt_sdmmc_card_enum_sd+0x166>
ffff4932:	f7ff faa1 	bl	ffff3e78 <alt_sdmmc_dma_reset>
ffff4936:	4604      	mov	r4, r0
ffff4938:	2800      	cmp	r0, #0
ffff493a:	d0be      	beq.n	ffff48ba <alt_sdmmc_card_enum_sd+0x1ae>
ffff493c:	4620      	mov	r0, r4
ffff493e:	b017      	add	sp, #92	; 0x5c
ffff4940:	bdf0      	pop	{r4, r5, r6, r7, pc}
ffff4942:	4622      	mov	r2, r4
ffff4944:	2108      	movs	r1, #8
ffff4946:	a806      	add	r0, sp, #24
ffff4948:	f7ff faee 	bl	ffff3f28 <alt_sdmmc_transfer_helper>
ffff494c:	e7e0      	b.n	ffff4910 <alt_sdmmc_card_enum_sd+0x204>
ffff494e:	f7ff fb7b 	bl	ffff4048 <alt_sdmmc_data_done_waiter>
ffff4952:	4604      	mov	r4, r0
ffff4954:	b108      	cbz	r0, ffff495a <alt_sdmmc_card_enum_sd+0x24e>
ffff4956:	4827      	ldr	r0, [pc, #156]	; (ffff49f4 <alt_sdmmc_card_enum_sd+0x2e8>)
ffff4958:	e7dd      	b.n	ffff4916 <alt_sdmmc_card_enum_sd+0x20a>
ffff495a:	4638      	mov	r0, r7
ffff495c:	f7ff f976 	bl	ffff3c4c <alt_sdmmc_block_size_set>
ffff4960:	f89d 6018 	ldrb.w	r6, [sp, #24]
ffff4964:	2240      	movs	r2, #64	; 0x40
ffff4966:	f89d 3019 	ldrb.w	r3, [sp, #25]
ffff496a:	4621      	mov	r1, r4
ffff496c:	a806      	add	r0, sp, #24
ffff496e:	f006 060f 	and.w	r6, r6, #15
ffff4972:	f003 030f 	and.w	r3, r3, #15
ffff4976:	61ae      	str	r6, [r5, #24]
ffff4978:	62ab      	str	r3, [r5, #40]	; 0x28
ffff497a:	f001 fb71 	bl	ffff6060 <memset>
ffff497e:	75ac      	strb	r4, [r5, #22]
ffff4980:	b116      	cbz	r6, ffff4988 <alt_sdmmc_card_enum_sd+0x27c>
ffff4982:	69eb      	ldr	r3, [r5, #28]
ffff4984:	055a      	lsls	r2, r3, #21
ffff4986:	d405      	bmi.n	ffff4994 <alt_sdmmc_card_enum_sd+0x288>
ffff4988:	481b      	ldr	r0, [pc, #108]	; (ffff49f8 <alt_sdmmc_card_enum_sd+0x2ec>)
ffff498a:	f06f 0408 	mvn.w	r4, #8
ffff498e:	f7fb fc4e 	bl	ffff022e <puts>
ffff4992:	e7d3      	b.n	ffff493c <alt_sdmmc_card_enum_sd+0x230>
ffff4994:	4620      	mov	r0, r4
ffff4996:	a906      	add	r1, sp, #24
ffff4998:	f7ff fdda 	bl	ffff4550 <alt_sdmmc_card_switch_function>
ffff499c:	4604      	mov	r4, r0
ffff499e:	2800      	cmp	r0, #0
ffff49a0:	d1cc      	bne.n	ffff493c <alt_sdmmc_card_enum_sd+0x230>
ffff49a2:	f89d 3025 	ldrb.w	r3, [sp, #37]	; 0x25
ffff49a6:	079b      	lsls	r3, r3, #30
ffff49a8:	d502      	bpl.n	ffff49b0 <alt_sdmmc_card_enum_sd+0x2a4>
ffff49aa:	2301      	movs	r3, #1
ffff49ac:	75ab      	strb	r3, [r5, #22]
ffff49ae:	e7c5      	b.n	ffff493c <alt_sdmmc_card_enum_sd+0x230>
ffff49b0:	4812      	ldr	r0, [pc, #72]	; (ffff49fc <alt_sdmmc_card_enum_sd+0x2f0>)
ffff49b2:	e7b0      	b.n	ffff4916 <alt_sdmmc_card_enum_sd+0x20a>
ffff49b4:	f04f 34ff 	mov.w	r4, #4294967295
ffff49b8:	e7c0      	b.n	ffff493c <alt_sdmmc_card_enum_sd+0x230>
ffff49ba:	bf00      	nop
ffff49bc:	ffff7a20 	.word	0xffff7a20
ffff49c0:	0053e2d7 	.word	0x0053e2d7
ffff49c4:	000f4240 	.word	0x000f4240
ffff49c8:	40ff8000 	.word	0x40ff8000
ffff49cc:	ffff8260 	.word	0xffff8260
ffff49d0:	ffff6bec 	.word	0xffff6bec
ffff49d4:	ffff6df8 	.word	0xffff6df8
ffff49d8:	cccccccd 	.word	0xcccccccd
ffff49dc:	ff70401c 	.word	0xff70401c
ffff49e0:	ff704020 	.word	0xff704020
ffff49e4:	ffff7a40 	.word	0xffff7a40
ffff49e8:	ff704088 	.word	0xff704088
ffff49ec:	ff704080 	.word	0xff704080
ffff49f0:	ffff7193 	.word	0xffff7193
ffff49f4:	ffff71b6 	.word	0xffff71b6
ffff49f8:	ffff71da 	.word	0xffff71da
ffff49fc:	ffff735b 	.word	0xffff735b

ffff4a00 <alt_sdmmc_card_identify>:
ffff4a00:	4b64      	ldr	r3, [pc, #400]	; (ffff4b94 <alt_sdmmc_card_identify+0x194>)
ffff4a02:	e92d 41f3 	stmdb	sp!, {r0, r1, r4, r5, r6, r7, r8, lr}
ffff4a06:	2100      	movs	r1, #0
ffff4a08:	6001      	str	r1, [r0, #0]
ffff4a0a:	4605      	mov	r5, r0
ffff4a0c:	681a      	ldr	r2, [r3, #0]
ffff4a0e:	f422 3280 	bic.w	r2, r2, #65536	; 0x10000
ffff4a12:	601a      	str	r2, [r3, #0]
ffff4a14:	681a      	ldr	r2, [r3, #0]
ffff4a16:	f022 0201 	bic.w	r2, r2, #1
ffff4a1a:	601a      	str	r2, [r3, #0]
ffff4a1c:	4b5e      	ldr	r3, [pc, #376]	; (ffff4b98 <alt_sdmmc_card_identify+0x198>)
ffff4a1e:	9101      	str	r1, [sp, #4]
ffff4a20:	681a      	ldr	r2, [r3, #0]
ffff4a22:	4b5e      	ldr	r3, [pc, #376]	; (ffff4b9c <alt_sdmmc_card_identify+0x19c>)
ffff4a24:	0a92      	lsrs	r2, r2, #10
ffff4a26:	fba2 2303 	umull	r2, r3, r2, r3
ffff4a2a:	0898      	lsrs	r0, r3, #2
ffff4a2c:	f7ff fc3c 	bl	ffff42a8 <alt_sdmmc_card_clk_div_set>
ffff4a30:	4604      	mov	r4, r0
ffff4a32:	b160      	cbz	r0, ffff4a4e <alt_sdmmc_card_identify+0x4e>
ffff4a34:	485a      	ldr	r0, [pc, #360]	; (ffff4ba0 <alt_sdmmc_card_identify+0x1a0>)
ffff4a36:	f7fb fbfa 	bl	ffff022e <puts>
ffff4a3a:	682b      	ldr	r3, [r5, #0]
ffff4a3c:	2b00      	cmp	r3, #0
ffff4a3e:	d063      	beq.n	ffff4b08 <alt_sdmmc_card_identify+0x108>
ffff4a40:	2c00      	cmp	r4, #0
ffff4a42:	d17b      	bne.n	ffff4b3c <alt_sdmmc_card_identify+0x13c>
ffff4a44:	4628      	mov	r0, r5
ffff4a46:	f7ff fe61 	bl	ffff470c <alt_sdmmc_card_enum_sd>
ffff4a4a:	4603      	mov	r3, r0
ffff4a4c:	e088      	b.n	ffff4b60 <alt_sdmmc_card_identify+0x160>
ffff4a4e:	4603      	mov	r3, r0
ffff4a50:	4602      	mov	r2, r0
ffff4a52:	4601      	mov	r1, r0
ffff4a54:	f7ff fb4e 	bl	ffff40f4 <alt_sdmmc_command_send>
ffff4a58:	4604      	mov	r4, r0
ffff4a5a:	b138      	cbz	r0, ffff4a6c <alt_sdmmc_card_identify+0x6c>
ffff4a5c:	4b51      	ldr	r3, [pc, #324]	; (ffff4ba4 <alt_sdmmc_card_identify+0x1a4>)
ffff4a5e:	681b      	ldr	r3, [r3, #0]
ffff4a60:	05d9      	lsls	r1, r3, #23
ffff4a62:	d501      	bpl.n	ffff4a68 <alt_sdmmc_card_identify+0x68>
ffff4a64:	4850      	ldr	r0, [pc, #320]	; (ffff4ba8 <alt_sdmmc_card_identify+0x1a8>)
ffff4a66:	e7e6      	b.n	ffff4a36 <alt_sdmmc_card_identify+0x36>
ffff4a68:	4850      	ldr	r0, [pc, #320]	; (ffff4bac <alt_sdmmc_card_identify+0x1ac>)
ffff4a6a:	e7e4      	b.n	ffff4a36 <alt_sdmmc_card_identify+0x36>
ffff4a6c:	ab01      	add	r3, sp, #4
ffff4a6e:	f44f 72d5 	mov.w	r2, #426	; 0x1aa
ffff4a72:	2108      	movs	r1, #8
ffff4a74:	f7ff fb3e 	bl	ffff40f4 <alt_sdmmc_command_send>
ffff4a78:	4604      	mov	r4, r0
ffff4a7a:	b148      	cbz	r0, ffff4a90 <alt_sdmmc_card_identify+0x90>
ffff4a7c:	484c      	ldr	r0, [pc, #304]	; (ffff4bb0 <alt_sdmmc_card_identify+0x1b0>)
ffff4a7e:	f7fb fbd6 	bl	ffff022e <puts>
ffff4a82:	4b48      	ldr	r3, [pc, #288]	; (ffff4ba4 <alt_sdmmc_card_identify+0x1a4>)
ffff4a84:	681b      	ldr	r3, [r3, #0]
ffff4a86:	05da      	lsls	r2, r3, #23
ffff4a88:	bf4c      	ite	mi
ffff4a8a:	484a      	ldrmi	r0, [pc, #296]	; (ffff4bb4 <alt_sdmmc_card_identify+0x1b4>)
ffff4a8c:	484a      	ldrpl	r0, [pc, #296]	; (ffff4bb8 <alt_sdmmc_card_identify+0x1b8>)
ffff4a8e:	e7d2      	b.n	ffff4a36 <alt_sdmmc_card_identify+0x36>
ffff4a90:	9b01      	ldr	r3, [sp, #4]
ffff4a92:	f5b3 7fd5 	cmp.w	r3, #426	; 0x1aa
ffff4a96:	d134      	bne.n	ffff4b02 <alt_sdmmc_card_identify+0x102>
ffff4a98:	4e48      	ldr	r6, [pc, #288]	; (ffff4bbc <alt_sdmmc_card_identify+0x1bc>)
ffff4a9a:	f8df 8134 	ldr.w	r8, [pc, #308]	; ffff4bd0 <alt_sdmmc_card_identify+0x1d0>
ffff4a9e:	2200      	movs	r2, #0
ffff4aa0:	ab01      	add	r3, sp, #4
ffff4aa2:	2137      	movs	r1, #55	; 0x37
ffff4aa4:	4610      	mov	r0, r2
ffff4aa6:	f7ff fb25 	bl	ffff40f4 <alt_sdmmc_command_send>
ffff4aaa:	4607      	mov	r7, r0
ffff4aac:	b168      	cbz	r0, ffff4aca <alt_sdmmc_card_identify+0xca>
ffff4aae:	4b3d      	ldr	r3, [pc, #244]	; (ffff4ba4 <alt_sdmmc_card_identify+0x1a4>)
ffff4ab0:	681b      	ldr	r3, [r3, #0]
ffff4ab2:	05db      	lsls	r3, r3, #23
ffff4ab4:	d504      	bpl.n	ffff4ac0 <alt_sdmmc_card_identify+0xc0>
ffff4ab6:	4842      	ldr	r0, [pc, #264]	; (ffff4bc0 <alt_sdmmc_card_identify+0x1c0>)
ffff4ab8:	2400      	movs	r4, #0
ffff4aba:	f7fb fbb8 	bl	ffff022e <puts>
ffff4abe:	e7bc      	b.n	ffff4a3a <alt_sdmmc_card_identify+0x3a>
ffff4ac0:	4840      	ldr	r0, [pc, #256]	; (ffff4bc4 <alt_sdmmc_card_identify+0x1c4>)
ffff4ac2:	f7fb fbb4 	bl	ffff022e <puts>
ffff4ac6:	463c      	mov	r4, r7
ffff4ac8:	e7b7      	b.n	ffff4a3a <alt_sdmmc_card_identify+0x3a>
ffff4aca:	ab01      	add	r3, sp, #4
ffff4acc:	4642      	mov	r2, r8
ffff4ace:	2129      	movs	r1, #41	; 0x29
ffff4ad0:	2001      	movs	r0, #1
ffff4ad2:	f7ff fb0f 	bl	ffff40f4 <alt_sdmmc_command_send>
ffff4ad6:	4604      	mov	r4, r0
ffff4ad8:	b128      	cbz	r0, ffff4ae6 <alt_sdmmc_card_identify+0xe6>
ffff4ada:	4b32      	ldr	r3, [pc, #200]	; (ffff4ba4 <alt_sdmmc_card_identify+0x1a4>)
ffff4adc:	681b      	ldr	r3, [r3, #0]
ffff4ade:	05de      	lsls	r6, r3, #23
ffff4ae0:	d5ab      	bpl.n	ffff4a3a <alt_sdmmc_card_identify+0x3a>
ffff4ae2:	4839      	ldr	r0, [pc, #228]	; (ffff4bc8 <alt_sdmmc_card_identify+0x1c8>)
ffff4ae4:	e7ed      	b.n	ffff4ac2 <alt_sdmmc_card_identify+0xc2>
ffff4ae6:	9b01      	ldr	r3, [sp, #4]
ffff4ae8:	2b00      	cmp	r3, #0
ffff4aea:	da05      	bge.n	ffff4af8 <alt_sdmmc_card_identify+0xf8>
ffff4aec:	0058      	lsls	r0, r3, #1
ffff4aee:	bf4c      	ite	mi
ffff4af0:	2305      	movmi	r3, #5
ffff4af2:	2302      	movpl	r3, #2
ffff4af4:	602b      	str	r3, [r5, #0]
ffff4af6:	e7a0      	b.n	ffff4a3a <alt_sdmmc_card_identify+0x3a>
ffff4af8:	3e01      	subs	r6, #1
ffff4afa:	d1d0      	bne.n	ffff4a9e <alt_sdmmc_card_identify+0x9e>
ffff4afc:	f06f 040b 	mvn.w	r4, #11
ffff4b00:	e79b      	b.n	ffff4a3a <alt_sdmmc_card_identify+0x3a>
ffff4b02:	f04f 34ff 	mov.w	r4, #4294967295
ffff4b06:	e798      	b.n	ffff4a3a <alt_sdmmc_card_identify+0x3a>
ffff4b08:	b9c4      	cbnz	r4, ffff4b3c <alt_sdmmc_card_identify+0x13c>
ffff4b0a:	2200      	movs	r2, #0
ffff4b0c:	ac02      	add	r4, sp, #8
ffff4b0e:	f844 2d04 	str.w	r2, [r4, #-4]!
ffff4b12:	2105      	movs	r1, #5
ffff4b14:	4623      	mov	r3, r4
ffff4b16:	4610      	mov	r0, r2
ffff4b18:	f7ff faec 	bl	ffff40f4 <alt_sdmmc_command_send>
ffff4b1c:	4603      	mov	r3, r0
ffff4b1e:	b938      	cbnz	r0, ffff4b30 <alt_sdmmc_card_identify+0x130>
ffff4b20:	4623      	mov	r3, r4
ffff4b22:	f44f 1280 	mov.w	r2, #1048576	; 0x100000
ffff4b26:	2105      	movs	r1, #5
ffff4b28:	f7ff fae4 	bl	ffff40f4 <alt_sdmmc_command_send>
ffff4b2c:	4603      	mov	r3, r0
ffff4b2e:	b348      	cbz	r0, ffff4b84 <alt_sdmmc_card_identify+0x184>
ffff4b30:	4a1c      	ldr	r2, [pc, #112]	; (ffff4ba4 <alt_sdmmc_card_identify+0x1a4>)
ffff4b32:	6812      	ldr	r2, [r2, #0]
ffff4b34:	05d2      	lsls	r2, r2, #23
ffff4b36:	d513      	bpl.n	ffff4b60 <alt_sdmmc_card_identify+0x160>
ffff4b38:	2300      	movs	r3, #0
ffff4b3a:	e011      	b.n	ffff4b60 <alt_sdmmc_card_identify+0x160>
ffff4b3c:	2300      	movs	r3, #0
ffff4b3e:	2137      	movs	r1, #55	; 0x37
ffff4b40:	461a      	mov	r2, r3
ffff4b42:	4618      	mov	r0, r3
ffff4b44:	f7ff fad6 	bl	ffff40f4 <alt_sdmmc_command_send>
ffff4b48:	4603      	mov	r3, r0
ffff4b4a:	b168      	cbz	r0, ffff4b68 <alt_sdmmc_card_identify+0x168>
ffff4b4c:	4a15      	ldr	r2, [pc, #84]	; (ffff4ba4 <alt_sdmmc_card_identify+0x1a4>)
ffff4b4e:	6812      	ldr	r2, [r2, #0]
ffff4b50:	05d1      	lsls	r1, r2, #23
ffff4b52:	d500      	bpl.n	ffff4b56 <alt_sdmmc_card_identify+0x156>
ffff4b54:	2300      	movs	r3, #0
ffff4b56:	682a      	ldr	r2, [r5, #0]
ffff4b58:	b18a      	cbz	r2, ffff4b7e <alt_sdmmc_card_identify+0x17e>
ffff4b5a:	2b00      	cmp	r3, #0
ffff4b5c:	f43f af72 	beq.w	ffff4a44 <alt_sdmmc_card_identify+0x44>
ffff4b60:	4618      	mov	r0, r3
ffff4b62:	b002      	add	sp, #8
ffff4b64:	e8bd 81f0 	ldmia.w	sp!, {r4, r5, r6, r7, r8, pc}
ffff4b68:	4a18      	ldr	r2, [pc, #96]	; (ffff4bcc <alt_sdmmc_card_identify+0x1cc>)
ffff4b6a:	2129      	movs	r1, #41	; 0x29
ffff4b6c:	2001      	movs	r0, #1
ffff4b6e:	f7ff fac1 	bl	ffff40f4 <alt_sdmmc_command_send>
ffff4b72:	4603      	mov	r3, r0
ffff4b74:	2800      	cmp	r0, #0
ffff4b76:	d1e9      	bne.n	ffff4b4c <alt_sdmmc_card_identify+0x14c>
ffff4b78:	2202      	movs	r2, #2
ffff4b7a:	602a      	str	r2, [r5, #0]
ffff4b7c:	e7eb      	b.n	ffff4b56 <alt_sdmmc_card_identify+0x156>
ffff4b7e:	2b00      	cmp	r3, #0
ffff4b80:	d1ee      	bne.n	ffff4b60 <alt_sdmmc_card_identify+0x160>
ffff4b82:	e7c2      	b.n	ffff4b0a <alt_sdmmc_card_identify+0x10a>
ffff4b84:	9a01      	ldr	r2, [sp, #4]
ffff4b86:	f012 6f00 	tst.w	r2, #134217728	; 0x8000000
ffff4b8a:	bf14      	ite	ne
ffff4b8c:	2200      	movne	r2, #0
ffff4b8e:	2203      	moveq	r2, #3
ffff4b90:	602a      	str	r2, [r5, #0]
ffff4b92:	e7e5      	b.n	ffff4b60 <alt_sdmmc_card_identify+0x160>
ffff4b94:	ff704018 	.word	0xff704018
ffff4b98:	ffff7a20 	.word	0xffff7a20
ffff4b9c:	0053e2d7 	.word	0x0053e2d7
ffff4ba0:	ffff71f5 	.word	0xffff71f5
ffff4ba4:	ff704040 	.word	0xff704040
ffff4ba8:	ffff7219 	.word	0xffff7219
ffff4bac:	ffff722c 	.word	0xffff722c
ffff4bb0:	ffff7250 	.word	0xffff7250
ffff4bb4:	ffff726b 	.word	0xffff726b
ffff4bb8:	ffff7292 	.word	0xffff7292
ffff4bbc:	000f4240 	.word	0x000f4240
ffff4bc0:	ffff72bb 	.word	0xffff72bb
ffff4bc4:	ffff72d9 	.word	0xffff72d9
ffff4bc8:	ffff7301 	.word	0xffff7301
ffff4bcc:	00ff8000 	.word	0x00ff8000
ffff4bd0:	40ff8000 	.word	0x40ff8000

ffff4bd4 <alt_sdmmc_transfer.isra.7.part.8>:
ffff4bd4:	e92d 4df0 	stmdb	sp!, {r4, r5, r6, r7, r8, sl, fp, lr}
ffff4bd8:	4698      	mov	r8, r3
ffff4bda:	4b3c      	ldr	r3, [pc, #240]	; (ffff4ccc <alt_sdmmc_transfer.isra.7.part.8+0xf8>)
ffff4bdc:	460f      	mov	r7, r1
ffff4bde:	4683      	mov	fp, r0
ffff4be0:	4638      	mov	r0, r7
ffff4be2:	4692      	mov	sl, r2
ffff4be4:	9e08      	ldr	r6, [sp, #32]
ffff4be6:	681c      	ldr	r4, [r3, #0]
ffff4be8:	b2a4      	uxth	r4, r4
ffff4bea:	4621      	mov	r1, r4
ffff4bec:	f001 e94c 	blx	ffff5e88 <__aeabi_uidivmod>
ffff4bf0:	2900      	cmp	r1, #0
ffff4bf2:	d166      	bne.n	ffff4cc2 <alt_sdmmc_transfer.isra.7.part.8+0xee>
ffff4bf4:	4621      	mov	r1, r4
ffff4bf6:	4640      	mov	r0, r8
ffff4bf8:	f001 e946 	blx	ffff5e88 <__aeabi_uidivmod>
ffff4bfc:	2900      	cmp	r1, #0
ffff4bfe:	d160      	bne.n	ffff4cc2 <alt_sdmmc_transfer.isra.7.part.8+0xee>
ffff4c00:	f7ff f928 	bl	ffff3e54 <alt_sdmmc_fifo_reset>
ffff4c04:	2800      	cmp	r0, #0
ffff4c06:	d15e      	bne.n	ffff4cc6 <alt_sdmmc_transfer.isra.7.part.8+0xf2>
ffff4c08:	f7ff fa12 	bl	ffff4030 <alt_sdmmc_is_dma_enabled>
ffff4c0c:	2800      	cmp	r0, #0
ffff4c0e:	d142      	bne.n	ffff4c96 <alt_sdmmc_transfer.isra.7.part.8+0xc2>
ffff4c10:	4621      	mov	r1, r4
ffff4c12:	4640      	mov	r0, r8
ffff4c14:	f001 e884 	blx	ffff5d20 <__aeabi_uidiv>
ffff4c18:	fb04 f500 	mul.w	r5, r4, r0
ffff4c1c:	4b2c      	ldr	r3, [pc, #176]	; (ffff4cd0 <alt_sdmmc_transfer.isra.7.part.8+0xfc>)
ffff4c1e:	2080      	movs	r0, #128	; 0x80
ffff4c20:	681a      	ldr	r2, [r3, #0]
ffff4c22:	601d      	str	r5, [r3, #0]
ffff4c24:	f7ff fa52 	bl	ffff40cc <alt_sdmmc_card_rd_threshold_enable>
ffff4c28:	4544      	cmp	r4, r8
ffff4c2a:	d13a      	bne.n	ffff4ca2 <alt_sdmmc_transfer.isra.7.part.8+0xce>
ffff4c2c:	2e00      	cmp	r6, #0
ffff4c2e:	bf0c      	ite	eq
ffff4c30:	f04f 0811 	moveq.w	r8, #17
ffff4c34:	f04f 0818 	movne.w	r8, #24
ffff4c38:	f7ff f9fa 	bl	ffff4030 <alt_sdmmc_is_dma_enabled>
ffff4c3c:	b180      	cbz	r0, ffff4c60 <alt_sdmmc_transfer.isra.7.part.8+0x8c>
ffff4c3e:	f7ff fc0f 	bl	ffff4460 <alt_sdmmc_desc_chain_clear>
ffff4c42:	4b24      	ldr	r3, [pc, #144]	; (ffff4cd4 <alt_sdmmc_transfer.isra.7.part.8+0x100>)
ffff4c44:	f240 3037 	movw	r0, #823	; 0x337
ffff4c48:	681a      	ldr	r2, [r3, #0]
ffff4c4a:	4b23      	ldr	r3, [pc, #140]	; (ffff4cd8 <alt_sdmmc_transfer.isra.7.part.8+0x104>)
ffff4c4c:	601a      	str	r2, [r3, #0]
ffff4c4e:	4a23      	ldr	r2, [pc, #140]	; (ffff4cdc <alt_sdmmc_transfer.isra.7.part.8+0x108>)
ffff4c50:	6813      	ldr	r3, [r2, #0]
ffff4c52:	f423 63ef 	bic.w	r3, r3, #1912	; 0x778
ffff4c56:	f023 0306 	bic.w	r3, r3, #6
ffff4c5a:	6013      	str	r3, [r2, #0]
ffff4c5c:	f7ff fa2e 	bl	ffff40bc <alt_sdmmc_dma_int_enable>
ffff4c60:	f8db 3000 	ldr.w	r3, [fp]
ffff4c64:	2b05      	cmp	r3, #5
ffff4c66:	d123      	bne.n	ffff4cb0 <alt_sdmmc_transfer.isra.7.part.8+0xdc>
ffff4c68:	4621      	mov	r1, r4
ffff4c6a:	4638      	mov	r0, r7
ffff4c6c:	f001 e858 	blx	ffff5d20 <__aeabi_uidiv>
ffff4c70:	2300      	movs	r3, #0
ffff4c72:	4602      	mov	r2, r0
ffff4c74:	4641      	mov	r1, r8
ffff4c76:	4618      	mov	r0, r3
ffff4c78:	f7ff fa3c 	bl	ffff40f4 <alt_sdmmc_command_send>
ffff4c7c:	bb18      	cbnz	r0, ffff4cc6 <alt_sdmmc_transfer.isra.7.part.8+0xf2>
ffff4c7e:	f7ff f9d7 	bl	ffff4030 <alt_sdmmc_is_dma_enabled>
ffff4c82:	b1c0      	cbz	r0, ffff4cb6 <alt_sdmmc_transfer.isra.7.part.8+0xe2>
ffff4c84:	4629      	mov	r1, r5
ffff4c86:	4650      	mov	r0, sl
ffff4c88:	f7ff fc0c 	bl	ffff44a4 <alt_sdmmc_dma_trans_helper>
ffff4c8c:	b9d8      	cbnz	r0, ffff4cc6 <alt_sdmmc_transfer.isra.7.part.8+0xf2>
ffff4c8e:	e8bd 4df0 	ldmia.w	sp!, {r4, r5, r6, r7, r8, sl, fp, lr}
ffff4c92:	f7ff b9d9 	b.w	ffff4048 <alt_sdmmc_data_done_waiter>
ffff4c96:	f7ff f8ef 	bl	ffff3e78 <alt_sdmmc_dma_reset>
ffff4c9a:	2800      	cmp	r0, #0
ffff4c9c:	d0b8      	beq.n	ffff4c10 <alt_sdmmc_transfer.isra.7.part.8+0x3c>
ffff4c9e:	e8bd 8df0 	ldmia.w	sp!, {r4, r5, r6, r7, r8, sl, fp, pc}
ffff4ca2:	2e00      	cmp	r6, #0
ffff4ca4:	bf0c      	ite	eq
ffff4ca6:	f04f 0812 	moveq.w	r8, #18
ffff4caa:	f04f 0819 	movne.w	r8, #25
ffff4cae:	e7c3      	b.n	ffff4c38 <alt_sdmmc_transfer.isra.7.part.8+0x64>
ffff4cb0:	2300      	movs	r3, #0
ffff4cb2:	463a      	mov	r2, r7
ffff4cb4:	e7de      	b.n	ffff4c74 <alt_sdmmc_transfer.isra.7.part.8+0xa0>
ffff4cb6:	4632      	mov	r2, r6
ffff4cb8:	4629      	mov	r1, r5
ffff4cba:	4650      	mov	r0, sl
ffff4cbc:	f7ff f934 	bl	ffff3f28 <alt_sdmmc_transfer_helper>
ffff4cc0:	e7e4      	b.n	ffff4c8c <alt_sdmmc_transfer.isra.7.part.8+0xb8>
ffff4cc2:	f06f 0008 	mvn.w	r0, #8
ffff4cc6:	e8bd 8df0 	ldmia.w	sp!, {r4, r5, r6, r7, r8, sl, fp, pc}
ffff4cca:	bf00      	nop
ffff4ccc:	ff70401c 	.word	0xff70401c
ffff4cd0:	ff704020 	.word	0xff704020
ffff4cd4:	ffff7a40 	.word	0xffff7a40
ffff4cd8:	ff704088 	.word	0xff704088
ffff4cdc:	ff704080 	.word	0xff704080

ffff4ce0 <alt_sdmmc_read>:
ffff4ce0:	b573      	push	{r0, r1, r4, r5, r6, lr}
ffff4ce2:	460e      	mov	r6, r1
ffff4ce4:	4605      	mov	r5, r0
ffff4ce6:	4611      	mov	r1, r2
ffff4ce8:	461c      	mov	r4, r3
ffff4cea:	b15b      	cbz	r3, ffff4d04 <alt_sdmmc_read+0x24>
ffff4cec:	f7fe ff9e 	bl	ffff3c2c <alt_sdmmc_is_idle>
ffff4cf0:	b150      	cbz	r0, ffff4d08 <alt_sdmmc_read+0x28>
ffff4cf2:	2300      	movs	r3, #0
ffff4cf4:	4632      	mov	r2, r6
ffff4cf6:	9300      	str	r3, [sp, #0]
ffff4cf8:	4628      	mov	r0, r5
ffff4cfa:	4623      	mov	r3, r4
ffff4cfc:	f7ff ff6a 	bl	ffff4bd4 <alt_sdmmc_transfer.isra.7.part.8>
ffff4d00:	b002      	add	sp, #8
ffff4d02:	bd70      	pop	{r4, r5, r6, pc}
ffff4d04:	4618      	mov	r0, r3
ffff4d06:	e7fb      	b.n	ffff4d00 <alt_sdmmc_read+0x20>
ffff4d08:	f04f 30ff 	mov.w	r0, #4294967295
ffff4d0c:	e7f8      	b.n	ffff4d00 <alt_sdmmc_read+0x20>

ffff4d0e <alt_clk_mgr_wait>:
ffff4d0e:	b901      	cbnz	r1, ffff4d12 <alt_clk_mgr_wait+0x4>
ffff4d10:	4770      	bx	lr
ffff4d12:	6803      	ldr	r3, [r0, #0]
ffff4d14:	3901      	subs	r1, #1
ffff4d16:	e7fa      	b.n	ffff4d0e <alt_clk_mgr_wait>

ffff4d18 <alt_clk_plls_settle_wait>:
ffff4d18:	4b07      	ldr	r3, [pc, #28]	; (ffff4d38 <alt_clk_plls_settle_wait+0x20>)
ffff4d1a:	2032      	movs	r0, #50	; 0x32
ffff4d1c:	681a      	ldr	r2, [r3, #0]
ffff4d1e:	07d2      	lsls	r2, r2, #31
ffff4d20:	d503      	bpl.n	ffff4d2a <alt_clk_plls_settle_wait+0x12>
ffff4d22:	f110 30ff 	adds.w	r0, r0, #4294967295
ffff4d26:	d2f9      	bcs.n	ffff4d1c <alt_clk_plls_settle_wait+0x4>
ffff4d28:	4770      	bx	lr
ffff4d2a:	2800      	cmp	r0, #0
ffff4d2c:	bfcc      	ite	gt
ffff4d2e:	2000      	movgt	r0, #0
ffff4d30:	2001      	movle	r0, #1
ffff4d32:	4240      	negs	r0, r0
ffff4d34:	4770      	bx	lr
ffff4d36:	bf00      	nop
ffff4d38:	ffd04014 	.word	0xffd04014

ffff4d3c <alt_clk_pll_is_locked>:
ffff4d3c:	2809      	cmp	r0, #9
ffff4d3e:	d104      	bne.n	ffff4d4a <alt_clk_pll_is_locked+0xe>
ffff4d40:	4b0a      	ldr	r3, [pc, #40]	; (ffff4d6c <alt_clk_pll_is_locked+0x30>)
ffff4d42:	6818      	ldr	r0, [r3, #0]
ffff4d44:	f3c0 1080 	ubfx	r0, r0, #6, #1
ffff4d48:	4770      	bx	lr
ffff4d4a:	280a      	cmp	r0, #10
ffff4d4c:	d104      	bne.n	ffff4d58 <alt_clk_pll_is_locked+0x1c>
ffff4d4e:	4b07      	ldr	r3, [pc, #28]	; (ffff4d6c <alt_clk_pll_is_locked+0x30>)
ffff4d50:	6818      	ldr	r0, [r3, #0]
ffff4d52:	f3c0 10c0 	ubfx	r0, r0, #7, #1
ffff4d56:	4770      	bx	lr
ffff4d58:	280b      	cmp	r0, #11
ffff4d5a:	bf03      	ittte	eq
ffff4d5c:	4b03      	ldreq	r3, [pc, #12]	; (ffff4d6c <alt_clk_pll_is_locked+0x30>)
ffff4d5e:	6818      	ldreq	r0, [r3, #0]
ffff4d60:	f3c0 2000 	ubfxeq	r0, r0, #8, #1
ffff4d64:	f06f 0008 	mvnne.w	r0, #8
ffff4d68:	4770      	bx	lr
ffff4d6a:	bf00      	nop
ffff4d6c:	ffd04008 	.word	0xffd04008

ffff4d70 <alt_clk_pll_bypass_disable>:
ffff4d70:	b5f8      	push	{r3, r4, r5, r6, r7, lr}
ffff4d72:	4602      	mov	r2, r0
ffff4d74:	f7ff ffe2 	bl	ffff4d3c <alt_clk_pll_is_locked>
ffff4d78:	2801      	cmp	r0, #1
ffff4d7a:	d178      	bne.n	ffff4e6e <alt_clk_pll_bypass_disable+0xfe>
ffff4d7c:	2a09      	cmp	r2, #9
ffff4d7e:	d136      	bne.n	ffff4dee <alt_clk_pll_bypass_disable+0x7e>
ffff4d80:	4b44      	ldr	r3, [pc, #272]	; (ffff4e94 <alt_clk_pll_bypass_disable+0x124>)
ffff4d82:	4d45      	ldr	r5, [pc, #276]	; (ffff4e98 <alt_clk_pll_bypass_disable+0x128>)
ffff4d84:	6819      	ldr	r1, [r3, #0]
ffff4d86:	682c      	ldr	r4, [r5, #0]
ffff4d88:	f014 0304 	ands.w	r3, r4, #4
ffff4d8c:	bf18      	it	ne
ffff4d8e:	43cb      	mvnne	r3, r1
ffff4d90:	0722      	lsls	r2, r4, #28
ffff4d92:	f003 0301 	and.w	r3, r3, #1
ffff4d96:	d578      	bpl.n	ffff4e8a <alt_clk_pll_bypass_disable+0x11a>
ffff4d98:	f001 0102 	and.w	r1, r1, #2
ffff4d9c:	b12b      	cbz	r3, ffff4daa <alt_clk_pll_bypass_disable+0x3a>
ffff4d9e:	f024 0204 	bic.w	r2, r4, #4
ffff4da2:	b129      	cbz	r1, ffff4db0 <alt_clk_pll_bypass_disable+0x40>
ffff4da4:	602a      	str	r2, [r5, #0]
ffff4da6:	2101      	movs	r1, #1
ffff4da8:	e007      	b.n	ffff4dba <alt_clk_pll_bypass_disable+0x4a>
ffff4daa:	2900      	cmp	r1, #0
ffff4dac:	d16f      	bne.n	ffff4e8e <alt_clk_pll_bypass_disable+0x11e>
ffff4dae:	4622      	mov	r2, r4
ffff4db0:	f022 0208 	bic.w	r2, r2, #8
ffff4db4:	2101      	movs	r1, #1
ffff4db6:	4319      	orrs	r1, r3
ffff4db8:	d1f4      	bne.n	ffff4da4 <alt_clk_pll_bypass_disable+0x34>
ffff4dba:	4a38      	ldr	r2, [pc, #224]	; (ffff4e9c <alt_clk_pll_bypass_disable+0x12c>)
ffff4dbc:	6813      	ldr	r3, [r2, #0]
ffff4dbe:	f043 7080 	orr.w	r0, r3, #16777216	; 0x1000000
ffff4dc2:	f023 7380 	bic.w	r3, r3, #16777216	; 0x1000000
ffff4dc6:	6010      	str	r0, [r2, #0]
ffff4dc8:	6013      	str	r3, [r2, #0]
ffff4dca:	f7ff ffa5 	bl	ffff4d18 <alt_clk_plls_settle_wait>
ffff4dce:	4a34      	ldr	r2, [pc, #208]	; (ffff4ea0 <alt_clk_pll_bypass_disable+0x130>)
ffff4dd0:	6813      	ldr	r3, [r2, #0]
ffff4dd2:	f023 0301 	bic.w	r3, r3, #1
ffff4dd6:	6013      	str	r3, [r2, #0]
ffff4dd8:	f7ff ff9e 	bl	ffff4d18 <alt_clk_plls_settle_wait>
ffff4ddc:	4602      	mov	r2, r0
ffff4dde:	b121      	cbz	r1, ffff4dea <alt_clk_pll_bypass_disable+0x7a>
ffff4de0:	211e      	movs	r1, #30
ffff4de2:	482d      	ldr	r0, [pc, #180]	; (ffff4e98 <alt_clk_pll_bypass_disable+0x128>)
ffff4de4:	f7ff ff93 	bl	ffff4d0e <alt_clk_mgr_wait>
ffff4de8:	602c      	str	r4, [r5, #0]
ffff4dea:	4610      	mov	r0, r2
ffff4dec:	bdf8      	pop	{r3, r4, r5, r6, r7, pc}
ffff4dee:	2a0a      	cmp	r2, #10
ffff4df0:	d128      	bne.n	ffff4e44 <alt_clk_pll_bypass_disable+0xd4>
ffff4df2:	4b28      	ldr	r3, [pc, #160]	; (ffff4e94 <alt_clk_pll_bypass_disable+0x124>)
ffff4df4:	4d28      	ldr	r5, [pc, #160]	; (ffff4e98 <alt_clk_pll_bypass_disable+0x128>)
ffff4df6:	681a      	ldr	r2, [r3, #0]
ffff4df8:	682c      	ldr	r4, [r5, #0]
ffff4dfa:	f014 0304 	ands.w	r3, r4, #4
ffff4dfe:	bf18      	it	ne
ffff4e00:	4613      	movne	r3, r2
ffff4e02:	f014 0108 	ands.w	r1, r4, #8
ffff4e06:	f003 0301 	and.w	r3, r3, #1
ffff4e0a:	d036      	beq.n	ffff4e7a <alt_clk_pll_bypass_disable+0x10a>
ffff4e0c:	f3c2 0140 	ubfx	r1, r2, #1, #1
ffff4e10:	b1b3      	cbz	r3, ffff4e40 <alt_clk_pll_bypass_disable+0xd0>
ffff4e12:	f024 0204 	bic.w	r2, r4, #4
ffff4e16:	b109      	cbz	r1, ffff4e1c <alt_clk_pll_bypass_disable+0xac>
ffff4e18:	f022 0208 	bic.w	r2, r2, #8
ffff4e1c:	4f21      	ldr	r7, [pc, #132]	; (ffff4ea4 <alt_clk_pll_bypass_disable+0x134>)
ffff4e1e:	4319      	orrs	r1, r3
ffff4e20:	bf18      	it	ne
ffff4e22:	602a      	strne	r2, [r5, #0]
ffff4e24:	683e      	ldr	r6, [r7, #0]
ffff4e26:	f046 7380 	orr.w	r3, r6, #16777216	; 0x1000000
ffff4e2a:	f026 7680 	bic.w	r6, r6, #16777216	; 0x1000000
ffff4e2e:	603b      	str	r3, [r7, #0]
ffff4e30:	f7ff ff72 	bl	ffff4d18 <alt_clk_plls_settle_wait>
ffff4e34:	4a1a      	ldr	r2, [pc, #104]	; (ffff4ea0 <alt_clk_pll_bypass_disable+0x130>)
ffff4e36:	603e      	str	r6, [r7, #0]
ffff4e38:	6813      	ldr	r3, [r2, #0]
ffff4e3a:	f023 0308 	bic.w	r3, r3, #8
ffff4e3e:	e7ca      	b.n	ffff4dd6 <alt_clk_pll_bypass_disable+0x66>
ffff4e40:	4622      	mov	r2, r4
ffff4e42:	e7e8      	b.n	ffff4e16 <alt_clk_pll_bypass_disable+0xa6>
ffff4e44:	2a0b      	cmp	r2, #11
ffff4e46:	d115      	bne.n	ffff4e74 <alt_clk_pll_bypass_disable+0x104>
ffff4e48:	4a17      	ldr	r2, [pc, #92]	; (ffff4ea8 <alt_clk_pll_bypass_disable+0x138>)
ffff4e4a:	6813      	ldr	r3, [r2, #0]
ffff4e4c:	f043 7180 	orr.w	r1, r3, #16777216	; 0x1000000
ffff4e50:	f023 7380 	bic.w	r3, r3, #16777216	; 0x1000000
ffff4e54:	6011      	str	r1, [r2, #0]
ffff4e56:	6013      	str	r3, [r2, #0]
ffff4e58:	f7ff ff5e 	bl	ffff4d18 <alt_clk_plls_settle_wait>
ffff4e5c:	4a10      	ldr	r2, [pc, #64]	; (ffff4ea0 <alt_clk_pll_bypass_disable+0x130>)
ffff4e5e:	6813      	ldr	r3, [r2, #0]
ffff4e60:	f023 0304 	bic.w	r3, r3, #4
ffff4e64:	6013      	str	r3, [r2, #0]
ffff4e66:	e8bd 40f8 	ldmia.w	sp!, {r3, r4, r5, r6, r7, lr}
ffff4e6a:	f7ff bf55 	b.w	ffff4d18 <alt_clk_plls_settle_wait>
ffff4e6e:	f04f 32ff 	mov.w	r2, #4294967295
ffff4e72:	e7ba      	b.n	ffff4dea <alt_clk_pll_bypass_disable+0x7a>
ffff4e74:	f06f 0208 	mvn.w	r2, #8
ffff4e78:	e7b7      	b.n	ffff4dea <alt_clk_pll_bypass_disable+0x7a>
ffff4e7a:	2b00      	cmp	r3, #0
ffff4e7c:	d1c9      	bne.n	ffff4e12 <alt_clk_pll_bypass_disable+0xa2>
ffff4e7e:	4619      	mov	r1, r3
ffff4e80:	4622      	mov	r2, r4
ffff4e82:	e7cb      	b.n	ffff4e1c <alt_clk_pll_bypass_disable+0xac>
ffff4e84:	f024 0204 	bic.w	r2, r4, #4
ffff4e88:	e78c      	b.n	ffff4da4 <alt_clk_pll_bypass_disable+0x34>
ffff4e8a:	2b00      	cmp	r3, #0
ffff4e8c:	d1fa      	bne.n	ffff4e84 <alt_clk_pll_bypass_disable+0x114>
ffff4e8e:	4619      	mov	r1, r3
ffff4e90:	4622      	mov	r2, r4
ffff4e92:	e790      	b.n	ffff4db6 <alt_clk_pll_bypass_disable+0x46>
ffff4e94:	ffd04070 	.word	0xffd04070
ffff4e98:	ffd04060 	.word	0xffd04060
ffff4e9c:	ffd04040 	.word	0xffd04040
ffff4ea0:	ffd04004 	.word	0xffd04004
ffff4ea4:	ffd04080 	.word	0xffd04080
ffff4ea8:	ffd040c0 	.word	0xffd040c0

ffff4eac <alt_clk_pll_bypass_enable>:
ffff4eac:	2809      	cmp	r0, #9
ffff4eae:	b570      	push	{r4, r5, r6, lr}
ffff4eb0:	d127      	bne.n	ffff4f02 <alt_clk_pll_bypass_enable+0x56>
ffff4eb2:	2900      	cmp	r1, #0
ffff4eb4:	d168      	bne.n	ffff4f88 <alt_clk_pll_bypass_enable+0xdc>
ffff4eb6:	4b3b      	ldr	r3, [pc, #236]	; (ffff4fa4 <alt_clk_pll_bypass_enable+0xf8>)
ffff4eb8:	4d3b      	ldr	r5, [pc, #236]	; (ffff4fa8 <alt_clk_pll_bypass_enable+0xfc>)
ffff4eba:	681a      	ldr	r2, [r3, #0]
ffff4ebc:	682c      	ldr	r4, [r5, #0]
ffff4ebe:	0766      	lsls	r6, r4, #29
ffff4ec0:	bf4c      	ite	mi
ffff4ec2:	43d3      	mvnmi	r3, r2
ffff4ec4:	460b      	movpl	r3, r1
ffff4ec6:	0720      	lsls	r0, r4, #28
ffff4ec8:	f003 0301 	and.w	r3, r3, #1
ffff4ecc:	d55f      	bpl.n	ffff4f8e <alt_clk_pll_bypass_enable+0xe2>
ffff4ece:	f082 0102 	eor.w	r1, r2, #2
ffff4ed2:	f3c1 0140 	ubfx	r1, r1, #1, #1
ffff4ed6:	b193      	cbz	r3, ffff4efe <alt_clk_pll_bypass_enable+0x52>
ffff4ed8:	f024 0204 	bic.w	r2, r4, #4
ffff4edc:	b109      	cbz	r1, ffff4ee2 <alt_clk_pll_bypass_enable+0x36>
ffff4ede:	f022 0208 	bic.w	r2, r2, #8
ffff4ee2:	4319      	orrs	r1, r3
ffff4ee4:	bf18      	it	ne
ffff4ee6:	602a      	strne	r2, [r5, #0]
ffff4ee8:	4a30      	ldr	r2, [pc, #192]	; (ffff4fac <alt_clk_pll_bypass_enable+0x100>)
ffff4eea:	6813      	ldr	r3, [r2, #0]
ffff4eec:	f043 0301 	orr.w	r3, r3, #1
ffff4ef0:	6013      	str	r3, [r2, #0]
ffff4ef2:	f7ff ff11 	bl	ffff4d18 <alt_clk_plls_settle_wait>
ffff4ef6:	2900      	cmp	r1, #0
ffff4ef8:	d134      	bne.n	ffff4f64 <alt_clk_pll_bypass_enable+0xb8>
ffff4efa:	2000      	movs	r0, #0
ffff4efc:	bd70      	pop	{r4, r5, r6, pc}
ffff4efe:	4622      	mov	r2, r4
ffff4f00:	e7ec      	b.n	ffff4edc <alt_clk_pll_bypass_enable+0x30>
ffff4f02:	280a      	cmp	r0, #10
ffff4f04:	d130      	bne.n	ffff4f68 <alt_clk_pll_bypass_enable+0xbc>
ffff4f06:	4b27      	ldr	r3, [pc, #156]	; (ffff4fa4 <alt_clk_pll_bypass_enable+0xf8>)
ffff4f08:	4d27      	ldr	r5, [pc, #156]	; (ffff4fa8 <alt_clk_pll_bypass_enable+0xfc>)
ffff4f0a:	681b      	ldr	r3, [r3, #0]
ffff4f0c:	682c      	ldr	r4, [r5, #0]
ffff4f0e:	f014 0204 	ands.w	r2, r4, #4
ffff4f12:	bf18      	it	ne
ffff4f14:	461a      	movne	r2, r3
ffff4f16:	f014 0008 	ands.w	r0, r4, #8
ffff4f1a:	f002 0201 	and.w	r2, r2, #1
ffff4f1e:	d03b      	beq.n	ffff4f98 <alt_clk_pll_bypass_enable+0xec>
ffff4f20:	f003 0602 	and.w	r6, r3, #2
ffff4f24:	f3c3 0040 	ubfx	r0, r3, #1, #1
ffff4f28:	b122      	cbz	r2, ffff4f34 <alt_clk_pll_bypass_enable+0x88>
ffff4f2a:	f024 0304 	bic.w	r3, r4, #4
ffff4f2e:	b920      	cbnz	r0, ffff4f3a <alt_clk_pll_bypass_enable+0x8e>
ffff4f30:	602b      	str	r3, [r5, #0]
ffff4f32:	e007      	b.n	ffff4f44 <alt_clk_pll_bypass_enable+0x98>
ffff4f34:	2e00      	cmp	r6, #0
ffff4f36:	d031      	beq.n	ffff4f9c <alt_clk_pll_bypass_enable+0xf0>
ffff4f38:	4623      	mov	r3, r4
ffff4f3a:	f023 0308 	bic.w	r3, r3, #8
ffff4f3e:	2001      	movs	r0, #1
ffff4f40:	4302      	orrs	r2, r0
ffff4f42:	d1f5      	bne.n	ffff4f30 <alt_clk_pll_bypass_enable+0x84>
ffff4f44:	4e19      	ldr	r6, [pc, #100]	; (ffff4fac <alt_clk_pll_bypass_enable+0x100>)
ffff4f46:	2900      	cmp	r1, #0
ffff4f48:	bf14      	ite	ne
ffff4f4a:	2318      	movne	r3, #24
ffff4f4c:	2308      	moveq	r3, #8
ffff4f4e:	211e      	movs	r1, #30
ffff4f50:	6830      	ldr	r0, [r6, #0]
ffff4f52:	f020 0018 	bic.w	r0, r0, #24
ffff4f56:	4303      	orrs	r3, r0
ffff4f58:	4813      	ldr	r0, [pc, #76]	; (ffff4fa8 <alt_clk_pll_bypass_enable+0xfc>)
ffff4f5a:	6033      	str	r3, [r6, #0]
ffff4f5c:	f7ff fed7 	bl	ffff4d0e <alt_clk_mgr_wait>
ffff4f60:	2a00      	cmp	r2, #0
ffff4f62:	d0ca      	beq.n	ffff4efa <alt_clk_pll_bypass_enable+0x4e>
ffff4f64:	602c      	str	r4, [r5, #0]
ffff4f66:	e7c8      	b.n	ffff4efa <alt_clk_pll_bypass_enable+0x4e>
ffff4f68:	280b      	cmp	r0, #11
ffff4f6a:	d10d      	bne.n	ffff4f88 <alt_clk_pll_bypass_enable+0xdc>
ffff4f6c:	f5a0 103f 	sub.w	r0, r0, #3129344	; 0x2fc000
ffff4f70:	2900      	cmp	r1, #0
ffff4f72:	f1a0 0007 	sub.w	r0, r0, #7
ffff4f76:	6802      	ldr	r2, [r0, #0]
ffff4f78:	bf14      	ite	ne
ffff4f7a:	2306      	movne	r3, #6
ffff4f7c:	2302      	moveq	r3, #2
ffff4f7e:	f022 0206 	bic.w	r2, r2, #6
ffff4f82:	4313      	orrs	r3, r2
ffff4f84:	6003      	str	r3, [r0, #0]
ffff4f86:	e7b8      	b.n	ffff4efa <alt_clk_pll_bypass_enable+0x4e>
ffff4f88:	f06f 0008 	mvn.w	r0, #8
ffff4f8c:	bd70      	pop	{r4, r5, r6, pc}
ffff4f8e:	2b00      	cmp	r3, #0
ffff4f90:	d1a2      	bne.n	ffff4ed8 <alt_clk_pll_bypass_enable+0x2c>
ffff4f92:	4619      	mov	r1, r3
ffff4f94:	4622      	mov	r2, r4
ffff4f96:	e7a4      	b.n	ffff4ee2 <alt_clk_pll_bypass_enable+0x36>
ffff4f98:	2a00      	cmp	r2, #0
ffff4f9a:	d1c6      	bne.n	ffff4f2a <alt_clk_pll_bypass_enable+0x7e>
ffff4f9c:	4610      	mov	r0, r2
ffff4f9e:	4623      	mov	r3, r4
ffff4fa0:	e7ce      	b.n	ffff4f40 <alt_clk_pll_bypass_enable+0x94>
ffff4fa2:	bf00      	nop
ffff4fa4:	ffd04070 	.word	0xffd04070
ffff4fa8:	ffd04060 	.word	0xffd04060
ffff4fac:	ffd04004 	.word	0xffd04004

ffff4fb0 <alt_clk_pll_is_bypassed>:
ffff4fb0:	2809      	cmp	r0, #9
ffff4fb2:	d108      	bne.n	ffff4fc6 <alt_clk_pll_is_bypassed+0x16>
ffff4fb4:	4b11      	ldr	r3, [pc, #68]	; (ffff4ffc <alt_clk_pll_is_bypassed+0x4c>)
ffff4fb6:	681b      	ldr	r3, [r3, #0]
ffff4fb8:	07d9      	lsls	r1, r3, #31
ffff4fba:	d41d      	bmi.n	ffff4ff8 <alt_clk_pll_is_bypassed+0x48>
ffff4fbc:	4b10      	ldr	r3, [pc, #64]	; (ffff5000 <alt_clk_pll_is_bypassed+0x50>)
ffff4fbe:	6818      	ldr	r0, [r3, #0]
ffff4fc0:	f000 0001 	and.w	r0, r0, #1
ffff4fc4:	4770      	bx	lr
ffff4fc6:	280a      	cmp	r0, #10
ffff4fc8:	d108      	bne.n	ffff4fdc <alt_clk_pll_is_bypassed+0x2c>
ffff4fca:	4b0c      	ldr	r3, [pc, #48]	; (ffff4ffc <alt_clk_pll_is_bypassed+0x4c>)
ffff4fcc:	681b      	ldr	r3, [r3, #0]
ffff4fce:	07da      	lsls	r2, r3, #31
ffff4fd0:	d412      	bmi.n	ffff4ff8 <alt_clk_pll_is_bypassed+0x48>
ffff4fd2:	4b0b      	ldr	r3, [pc, #44]	; (ffff5000 <alt_clk_pll_is_bypassed+0x50>)
ffff4fd4:	6818      	ldr	r0, [r3, #0]
ffff4fd6:	f3c0 00c0 	ubfx	r0, r0, #3, #1
ffff4fda:	4770      	bx	lr
ffff4fdc:	280b      	cmp	r0, #11
ffff4fde:	d108      	bne.n	ffff4ff2 <alt_clk_pll_is_bypassed+0x42>
ffff4fe0:	4b06      	ldr	r3, [pc, #24]	; (ffff4ffc <alt_clk_pll_is_bypassed+0x4c>)
ffff4fe2:	681b      	ldr	r3, [r3, #0]
ffff4fe4:	07db      	lsls	r3, r3, #31
ffff4fe6:	d407      	bmi.n	ffff4ff8 <alt_clk_pll_is_bypassed+0x48>
ffff4fe8:	4b05      	ldr	r3, [pc, #20]	; (ffff5000 <alt_clk_pll_is_bypassed+0x50>)
ffff4fea:	6818      	ldr	r0, [r3, #0]
ffff4fec:	f3c0 0040 	ubfx	r0, r0, #1, #1
ffff4ff0:	4770      	bx	lr
ffff4ff2:	f06f 0008 	mvn.w	r0, #8
ffff4ff6:	4770      	bx	lr
ffff4ff8:	2001      	movs	r0, #1
ffff4ffa:	4770      	bx	lr
ffff4ffc:	ffd04000 	.word	0xffd04000
ffff5000:	ffd04004 	.word	0xffd04004

ffff5004 <alt_clk_clock_disable>:
ffff5004:	b508      	push	{r3, lr}
ffff5006:	f1a0 0309 	sub.w	r3, r0, #9
ffff500a:	2b37      	cmp	r3, #55	; 0x37
ffff500c:	d81d      	bhi.n	ffff504a <alt_clk_clock_disable+0x46>
ffff500e:	e8df f003 	tbb	[pc, r3]
ffff5012:	1f1f      	.short	0x1f1f
ffff5014:	1c1c1c1f 	.word	0x1c1c1c1f
ffff5018:	1c1c1c1c 	.word	0x1c1c1c1c
ffff501c:	1c1c1c1c 	.word	0x1c1c1c1c
ffff5020:	2e241c29 	.word	0x2e241c29
ffff5024:	44381c33 	.word	0x44381c33
ffff5028:	1c1c3f49 	.word	0x1c1c3f49
ffff502c:	1c1c534e 	.word	0x1c1c534e
ffff5030:	1c1c1c1c 	.word	0x1c1c1c1c
ffff5034:	68725c7f 	.word	0x68725c7f
ffff5038:	5a58667f 	.word	0x5a58667f
ffff503c:	6462605e 	.word	0x6462605e
ffff5040:	1c1c1c1c 	.word	0x1c1c1c1c
ffff5044:	79771c1c 	.word	0x79771c1c
ffff5048:	7d7b      	.short	0x7d7b
ffff504a:	f06f 0008 	mvn.w	r0, #8
ffff504e:	bd08      	pop	{r3, pc}
ffff5050:	2100      	movs	r1, #0
ffff5052:	e8bd 4008 	ldmia.w	sp!, {r3, lr}
ffff5056:	f7ff bf29 	b.w	ffff4eac <alt_clk_pll_bypass_enable>
ffff505a:	4a2f      	ldr	r2, [pc, #188]	; (ffff5118 <alt_clk_clock_disable+0x114>)
ffff505c:	6813      	ldr	r3, [r2, #0]
ffff505e:	f023 0301 	bic.w	r3, r3, #1
ffff5062:	e012      	b.n	ffff508a <alt_clk_clock_disable+0x86>
ffff5064:	4a2c      	ldr	r2, [pc, #176]	; (ffff5118 <alt_clk_clock_disable+0x114>)
ffff5066:	6813      	ldr	r3, [r2, #0]
ffff5068:	f023 0302 	bic.w	r3, r3, #2
ffff506c:	e00d      	b.n	ffff508a <alt_clk_clock_disable+0x86>
ffff506e:	4a2a      	ldr	r2, [pc, #168]	; (ffff5118 <alt_clk_clock_disable+0x114>)
ffff5070:	6813      	ldr	r3, [r2, #0]
ffff5072:	f023 0304 	bic.w	r3, r3, #4
ffff5076:	e008      	b.n	ffff508a <alt_clk_clock_disable+0x86>
ffff5078:	4a27      	ldr	r2, [pc, #156]	; (ffff5118 <alt_clk_clock_disable+0x114>)
ffff507a:	6813      	ldr	r3, [r2, #0]
ffff507c:	f023 0308 	bic.w	r3, r3, #8
ffff5080:	e003      	b.n	ffff508a <alt_clk_clock_disable+0x86>
ffff5082:	4a25      	ldr	r2, [pc, #148]	; (ffff5118 <alt_clk_clock_disable+0x114>)
ffff5084:	6813      	ldr	r3, [r2, #0]
ffff5086:	f023 0310 	bic.w	r3, r3, #16
ffff508a:	6013      	str	r3, [r2, #0]
ffff508c:	2000      	movs	r0, #0
ffff508e:	bd08      	pop	{r3, pc}
ffff5090:	4a21      	ldr	r2, [pc, #132]	; (ffff5118 <alt_clk_clock_disable+0x114>)
ffff5092:	6813      	ldr	r3, [r2, #0]
ffff5094:	f023 0320 	bic.w	r3, r3, #32
ffff5098:	e7f7      	b.n	ffff508a <alt_clk_clock_disable+0x86>
ffff509a:	4a1f      	ldr	r2, [pc, #124]	; (ffff5118 <alt_clk_clock_disable+0x114>)
ffff509c:	6813      	ldr	r3, [r2, #0]
ffff509e:	f023 0340 	bic.w	r3, r3, #64	; 0x40
ffff50a2:	e7f2      	b.n	ffff508a <alt_clk_clock_disable+0x86>
ffff50a4:	4a1c      	ldr	r2, [pc, #112]	; (ffff5118 <alt_clk_clock_disable+0x114>)
ffff50a6:	6813      	ldr	r3, [r2, #0]
ffff50a8:	f023 0380 	bic.w	r3, r3, #128	; 0x80
ffff50ac:	e7ed      	b.n	ffff508a <alt_clk_clock_disable+0x86>
ffff50ae:	4a1a      	ldr	r2, [pc, #104]	; (ffff5118 <alt_clk_clock_disable+0x114>)
ffff50b0:	6813      	ldr	r3, [r2, #0]
ffff50b2:	f423 7380 	bic.w	r3, r3, #256	; 0x100
ffff50b6:	e7e8      	b.n	ffff508a <alt_clk_clock_disable+0x86>
ffff50b8:	4a17      	ldr	r2, [pc, #92]	; (ffff5118 <alt_clk_clock_disable+0x114>)
ffff50ba:	6813      	ldr	r3, [r2, #0]
ffff50bc:	f423 7300 	bic.w	r3, r3, #512	; 0x200
ffff50c0:	e7e3      	b.n	ffff508a <alt_clk_clock_disable+0x86>
ffff50c2:	4a16      	ldr	r2, [pc, #88]	; (ffff511c <alt_clk_clock_disable+0x118>)
ffff50c4:	e7ca      	b.n	ffff505c <alt_clk_clock_disable+0x58>
ffff50c6:	4a15      	ldr	r2, [pc, #84]	; (ffff511c <alt_clk_clock_disable+0x118>)
ffff50c8:	e7cd      	b.n	ffff5066 <alt_clk_clock_disable+0x62>
ffff50ca:	4a14      	ldr	r2, [pc, #80]	; (ffff511c <alt_clk_clock_disable+0x118>)
ffff50cc:	e7d5      	b.n	ffff507a <alt_clk_clock_disable+0x76>
ffff50ce:	4a13      	ldr	r2, [pc, #76]	; (ffff511c <alt_clk_clock_disable+0x118>)
ffff50d0:	e7d8      	b.n	ffff5084 <alt_clk_clock_disable+0x80>
ffff50d2:	4a12      	ldr	r2, [pc, #72]	; (ffff511c <alt_clk_clock_disable+0x118>)
ffff50d4:	e7dd      	b.n	ffff5092 <alt_clk_clock_disable+0x8e>
ffff50d6:	4a11      	ldr	r2, [pc, #68]	; (ffff511c <alt_clk_clock_disable+0x118>)
ffff50d8:	e7e0      	b.n	ffff509c <alt_clk_clock_disable+0x98>
ffff50da:	4a10      	ldr	r2, [pc, #64]	; (ffff511c <alt_clk_clock_disable+0x118>)
ffff50dc:	e7e3      	b.n	ffff50a6 <alt_clk_clock_disable+0xa2>
ffff50de:	4a0f      	ldr	r2, [pc, #60]	; (ffff511c <alt_clk_clock_disable+0x118>)
ffff50e0:	e7e6      	b.n	ffff50b0 <alt_clk_clock_disable+0xac>
ffff50e2:	4a0e      	ldr	r2, [pc, #56]	; (ffff511c <alt_clk_clock_disable+0x118>)
ffff50e4:	2108      	movs	r1, #8
ffff50e6:	6813      	ldr	r3, [r2, #0]
ffff50e8:	4610      	mov	r0, r2
ffff50ea:	f423 6380 	bic.w	r3, r3, #1024	; 0x400
ffff50ee:	6013      	str	r3, [r2, #0]
ffff50f0:	f7ff fe0d 	bl	ffff4d0e <alt_clk_mgr_wait>
ffff50f4:	e7e1      	b.n	ffff50ba <alt_clk_clock_disable+0xb6>
ffff50f6:	4a09      	ldr	r2, [pc, #36]	; (ffff511c <alt_clk_clock_disable+0x118>)
ffff50f8:	6813      	ldr	r3, [r2, #0]
ffff50fa:	f423 6300 	bic.w	r3, r3, #2048	; 0x800
ffff50fe:	e7c4      	b.n	ffff508a <alt_clk_clock_disable+0x86>
ffff5100:	4a07      	ldr	r2, [pc, #28]	; (ffff5120 <alt_clk_clock_disable+0x11c>)
ffff5102:	e7ab      	b.n	ffff505c <alt_clk_clock_disable+0x58>
ffff5104:	4a06      	ldr	r2, [pc, #24]	; (ffff5120 <alt_clk_clock_disable+0x11c>)
ffff5106:	e7ae      	b.n	ffff5066 <alt_clk_clock_disable+0x62>
ffff5108:	4a05      	ldr	r2, [pc, #20]	; (ffff5120 <alt_clk_clock_disable+0x11c>)
ffff510a:	e7b1      	b.n	ffff5070 <alt_clk_clock_disable+0x6c>
ffff510c:	4a04      	ldr	r2, [pc, #16]	; (ffff5120 <alt_clk_clock_disable+0x11c>)
ffff510e:	e7b4      	b.n	ffff507a <alt_clk_clock_disable+0x76>
ffff5110:	f06f 000d 	mvn.w	r0, #13
ffff5114:	bd08      	pop	{r3, pc}
ffff5116:	bf00      	nop
ffff5118:	ffd04060 	.word	0xffd04060
ffff511c:	ffd040a0 	.word	0xffd040a0
ffff5120:	ffd040d8 	.word	0xffd040d8

ffff5124 <alt_clk_clock_enable>:
ffff5124:	b508      	push	{r3, lr}
ffff5126:	f1a0 0309 	sub.w	r3, r0, #9
ffff512a:	2b37      	cmp	r3, #55	; 0x37
ffff512c:	f200 808b 	bhi.w	ffff5246 <alt_clk_clock_enable+0x122>
ffff5130:	e8df f003 	tbb	[pc, r3]
ffff5134:	891c1c1c 	.word	0x891c1c1c
ffff5138:	89898989 	.word	0x89898989
ffff513c:	89898989 	.word	0x89898989
ffff5140:	89258989 	.word	0x89258989
ffff5144:	892f2a20 	.word	0x892f2a20
ffff5148:	39433e34 	.word	0x39433e34
ffff514c:	4d488989 	.word	0x4d488989
ffff5150:	89898989 	.word	0x89898989
ffff5154:	59578989 	.word	0x59578989
ffff5158:	636f657c 	.word	0x636f657c
ffff515c:	5d5b5553 	.word	0x5d5b5553
ffff5160:	8989615f 	.word	0x8989615f
ffff5164:	89898989 	.word	0x89898989
ffff5168:	87858381 	.word	0x87858381
ffff516c:	e8bd 4008 	ldmia.w	sp!, {r3, lr}
ffff5170:	f7ff bdfe 	b.w	ffff4d70 <alt_clk_pll_bypass_disable>
ffff5174:	4a35      	ldr	r2, [pc, #212]	; (ffff524c <alt_clk_clock_enable+0x128>)
ffff5176:	6813      	ldr	r3, [r2, #0]
ffff5178:	f043 0301 	orr.w	r3, r3, #1
ffff517c:	e02b      	b.n	ffff51d6 <alt_clk_clock_enable+0xb2>
ffff517e:	4a33      	ldr	r2, [pc, #204]	; (ffff524c <alt_clk_clock_enable+0x128>)
ffff5180:	6813      	ldr	r3, [r2, #0]
ffff5182:	f043 0302 	orr.w	r3, r3, #2
ffff5186:	e026      	b.n	ffff51d6 <alt_clk_clock_enable+0xb2>
ffff5188:	4a30      	ldr	r2, [pc, #192]	; (ffff524c <alt_clk_clock_enable+0x128>)
ffff518a:	6813      	ldr	r3, [r2, #0]
ffff518c:	f043 0304 	orr.w	r3, r3, #4
ffff5190:	e021      	b.n	ffff51d6 <alt_clk_clock_enable+0xb2>
ffff5192:	4a2e      	ldr	r2, [pc, #184]	; (ffff524c <alt_clk_clock_enable+0x128>)
ffff5194:	6813      	ldr	r3, [r2, #0]
ffff5196:	f043 0308 	orr.w	r3, r3, #8
ffff519a:	e01c      	b.n	ffff51d6 <alt_clk_clock_enable+0xb2>
ffff519c:	4a2b      	ldr	r2, [pc, #172]	; (ffff524c <alt_clk_clock_enable+0x128>)
ffff519e:	6813      	ldr	r3, [r2, #0]
ffff51a0:	f043 0310 	orr.w	r3, r3, #16
ffff51a4:	e017      	b.n	ffff51d6 <alt_clk_clock_enable+0xb2>
ffff51a6:	4a29      	ldr	r2, [pc, #164]	; (ffff524c <alt_clk_clock_enable+0x128>)
ffff51a8:	6813      	ldr	r3, [r2, #0]
ffff51aa:	f043 0320 	orr.w	r3, r3, #32
ffff51ae:	e012      	b.n	ffff51d6 <alt_clk_clock_enable+0xb2>
ffff51b0:	4a26      	ldr	r2, [pc, #152]	; (ffff524c <alt_clk_clock_enable+0x128>)
ffff51b2:	6813      	ldr	r3, [r2, #0]
ffff51b4:	f043 0340 	orr.w	r3, r3, #64	; 0x40
ffff51b8:	e00d      	b.n	ffff51d6 <alt_clk_clock_enable+0xb2>
ffff51ba:	4a24      	ldr	r2, [pc, #144]	; (ffff524c <alt_clk_clock_enable+0x128>)
ffff51bc:	6813      	ldr	r3, [r2, #0]
ffff51be:	f043 0380 	orr.w	r3, r3, #128	; 0x80
ffff51c2:	e008      	b.n	ffff51d6 <alt_clk_clock_enable+0xb2>
ffff51c4:	4a21      	ldr	r2, [pc, #132]	; (ffff524c <alt_clk_clock_enable+0x128>)
ffff51c6:	6813      	ldr	r3, [r2, #0]
ffff51c8:	f443 7380 	orr.w	r3, r3, #256	; 0x100
ffff51cc:	e003      	b.n	ffff51d6 <alt_clk_clock_enable+0xb2>
ffff51ce:	4a1f      	ldr	r2, [pc, #124]	; (ffff524c <alt_clk_clock_enable+0x128>)
ffff51d0:	6813      	ldr	r3, [r2, #0]
ffff51d2:	f443 7300 	orr.w	r3, r3, #512	; 0x200
ffff51d6:	6013      	str	r3, [r2, #0]
ffff51d8:	e019      	b.n	ffff520e <alt_clk_clock_enable+0xea>
ffff51da:	4a1d      	ldr	r2, [pc, #116]	; (ffff5250 <alt_clk_clock_enable+0x12c>)
ffff51dc:	e7cb      	b.n	ffff5176 <alt_clk_clock_enable+0x52>
ffff51de:	4a1c      	ldr	r2, [pc, #112]	; (ffff5250 <alt_clk_clock_enable+0x12c>)
ffff51e0:	e7ce      	b.n	ffff5180 <alt_clk_clock_enable+0x5c>
ffff51e2:	4a1b      	ldr	r2, [pc, #108]	; (ffff5250 <alt_clk_clock_enable+0x12c>)
ffff51e4:	e7d1      	b.n	ffff518a <alt_clk_clock_enable+0x66>
ffff51e6:	4a1a      	ldr	r2, [pc, #104]	; (ffff5250 <alt_clk_clock_enable+0x12c>)
ffff51e8:	e7d4      	b.n	ffff5194 <alt_clk_clock_enable+0x70>
ffff51ea:	4a19      	ldr	r2, [pc, #100]	; (ffff5250 <alt_clk_clock_enable+0x12c>)
ffff51ec:	e7d7      	b.n	ffff519e <alt_clk_clock_enable+0x7a>
ffff51ee:	4a18      	ldr	r2, [pc, #96]	; (ffff5250 <alt_clk_clock_enable+0x12c>)
ffff51f0:	e7da      	b.n	ffff51a8 <alt_clk_clock_enable+0x84>
ffff51f2:	4a17      	ldr	r2, [pc, #92]	; (ffff5250 <alt_clk_clock_enable+0x12c>)
ffff51f4:	e7dd      	b.n	ffff51b2 <alt_clk_clock_enable+0x8e>
ffff51f6:	4a16      	ldr	r2, [pc, #88]	; (ffff5250 <alt_clk_clock_enable+0x12c>)
ffff51f8:	e7e0      	b.n	ffff51bc <alt_clk_clock_enable+0x98>
ffff51fa:	4a15      	ldr	r2, [pc, #84]	; (ffff5250 <alt_clk_clock_enable+0x12c>)
ffff51fc:	e7e3      	b.n	ffff51c6 <alt_clk_clock_enable+0xa2>
ffff51fe:	4814      	ldr	r0, [pc, #80]	; (ffff5250 <alt_clk_clock_enable+0x12c>)
ffff5200:	2108      	movs	r1, #8
ffff5202:	6803      	ldr	r3, [r0, #0]
ffff5204:	f443 7300 	orr.w	r3, r3, #512	; 0x200
ffff5208:	6003      	str	r3, [r0, #0]
ffff520a:	f7ff fd80 	bl	ffff4d0e <alt_clk_mgr_wait>
ffff520e:	2000      	movs	r0, #0
ffff5210:	bd08      	pop	{r3, pc}
ffff5212:	4a0f      	ldr	r2, [pc, #60]	; (ffff5250 <alt_clk_clock_enable+0x12c>)
ffff5214:	2108      	movs	r1, #8
ffff5216:	6813      	ldr	r3, [r2, #0]
ffff5218:	4610      	mov	r0, r2
ffff521a:	f443 7300 	orr.w	r3, r3, #512	; 0x200
ffff521e:	6013      	str	r3, [r2, #0]
ffff5220:	f7ff fd75 	bl	ffff4d0e <alt_clk_mgr_wait>
ffff5224:	6813      	ldr	r3, [r2, #0]
ffff5226:	f443 6380 	orr.w	r3, r3, #1024	; 0x400
ffff522a:	e7d4      	b.n	ffff51d6 <alt_clk_clock_enable+0xb2>
ffff522c:	4a08      	ldr	r2, [pc, #32]	; (ffff5250 <alt_clk_clock_enable+0x12c>)
ffff522e:	6813      	ldr	r3, [r2, #0]
ffff5230:	f443 6300 	orr.w	r3, r3, #2048	; 0x800
ffff5234:	e7cf      	b.n	ffff51d6 <alt_clk_clock_enable+0xb2>
ffff5236:	4a07      	ldr	r2, [pc, #28]	; (ffff5254 <alt_clk_clock_enable+0x130>)
ffff5238:	e79d      	b.n	ffff5176 <alt_clk_clock_enable+0x52>
ffff523a:	4a06      	ldr	r2, [pc, #24]	; (ffff5254 <alt_clk_clock_enable+0x130>)
ffff523c:	e7a0      	b.n	ffff5180 <alt_clk_clock_enable+0x5c>
ffff523e:	4a05      	ldr	r2, [pc, #20]	; (ffff5254 <alt_clk_clock_enable+0x130>)
ffff5240:	e7a3      	b.n	ffff518a <alt_clk_clock_enable+0x66>
ffff5242:	4a04      	ldr	r2, [pc, #16]	; (ffff5254 <alt_clk_clock_enable+0x130>)
ffff5244:	e7a6      	b.n	ffff5194 <alt_clk_clock_enable+0x70>
ffff5246:	f06f 0008 	mvn.w	r0, #8
ffff524a:	bd08      	pop	{r3, pc}
ffff524c:	ffd04060 	.word	0xffd04060
ffff5250:	ffd040a0 	.word	0xffd040a0
ffff5254:	ffd040d8 	.word	0xffd040d8

ffff5258 <alt_clk_is_enabled>:
ffff5258:	b508      	push	{r3, lr}
ffff525a:	f1a0 0309 	sub.w	r3, r0, #9
ffff525e:	2b37      	cmp	r3, #55	; 0x37
ffff5260:	d87c      	bhi.n	ffff535c <alt_clk_is_enabled+0x104>
ffff5262:	e8df f003 	tbb	[pc, r3]
ffff5266:	1c1c      	.short	0x1c1c
ffff5268:	7b7b7b1c 	.word	0x7b7b7b1c
ffff526c:	7b7b7b7b 	.word	0x7b7b7b7b
ffff5270:	7b7b7b7b 	.word	0x7b7b7b7b
ffff5274:	2d237b28 	.word	0x2d237b28
ffff5278:	41377b32 	.word	0x41377b32
ffff527c:	7b7b3c46 	.word	0x7b7b3c46
ffff5280:	7b7b504b 	.word	0x7b7b504b
ffff5284:	7b7b7b7b 	.word	0x7b7b7b7b
ffff5288:	676e5b59 	.word	0x676e5b59
ffff528c:	57556569 	.word	0x57556569
ffff5290:	63615f5d 	.word	0x63615f5d
ffff5294:	7b7b7b7b 	.word	0x7b7b7b7b
ffff5298:	75737b7b 	.word	0x75737b7b
ffff529c:	7977      	.short	0x7977
ffff529e:	f7ff fe87 	bl	ffff4fb0 <alt_clk_pll_is_bypassed>
ffff52a2:	f110 30ff 	adds.w	r0, r0, #4294967295
ffff52a6:	bf18      	it	ne
ffff52a8:	2001      	movne	r0, #1
ffff52aa:	bd08      	pop	{r3, pc}
ffff52ac:	4b2d      	ldr	r3, [pc, #180]	; (ffff5364 <alt_clk_is_enabled+0x10c>)
ffff52ae:	6818      	ldr	r0, [r3, #0]
ffff52b0:	f000 0001 	and.w	r0, r0, #1
ffff52b4:	bd08      	pop	{r3, pc}
ffff52b6:	4b2b      	ldr	r3, [pc, #172]	; (ffff5364 <alt_clk_is_enabled+0x10c>)
ffff52b8:	6818      	ldr	r0, [r3, #0]
ffff52ba:	f3c0 0040 	ubfx	r0, r0, #1, #1
ffff52be:	bd08      	pop	{r3, pc}
ffff52c0:	4b28      	ldr	r3, [pc, #160]	; (ffff5364 <alt_clk_is_enabled+0x10c>)
ffff52c2:	6818      	ldr	r0, [r3, #0]
ffff52c4:	f3c0 0080 	ubfx	r0, r0, #2, #1
ffff52c8:	bd08      	pop	{r3, pc}
ffff52ca:	4b26      	ldr	r3, [pc, #152]	; (ffff5364 <alt_clk_is_enabled+0x10c>)
ffff52cc:	6818      	ldr	r0, [r3, #0]
ffff52ce:	f3c0 00c0 	ubfx	r0, r0, #3, #1
ffff52d2:	bd08      	pop	{r3, pc}
ffff52d4:	4b23      	ldr	r3, [pc, #140]	; (ffff5364 <alt_clk_is_enabled+0x10c>)
ffff52d6:	6818      	ldr	r0, [r3, #0]
ffff52d8:	f3c0 1000 	ubfx	r0, r0, #4, #1
ffff52dc:	bd08      	pop	{r3, pc}
ffff52de:	4b21      	ldr	r3, [pc, #132]	; (ffff5364 <alt_clk_is_enabled+0x10c>)
ffff52e0:	6818      	ldr	r0, [r3, #0]
ffff52e2:	f3c0 1040 	ubfx	r0, r0, #5, #1
ffff52e6:	bd08      	pop	{r3, pc}
ffff52e8:	4b1e      	ldr	r3, [pc, #120]	; (ffff5364 <alt_clk_is_enabled+0x10c>)
ffff52ea:	6818      	ldr	r0, [r3, #0]
ffff52ec:	f3c0 1080 	ubfx	r0, r0, #6, #1
ffff52f0:	bd08      	pop	{r3, pc}
ffff52f2:	4b1c      	ldr	r3, [pc, #112]	; (ffff5364 <alt_clk_is_enabled+0x10c>)
ffff52f4:	6818      	ldr	r0, [r3, #0]
ffff52f6:	f3c0 10c0 	ubfx	r0, r0, #7, #1
ffff52fa:	bd08      	pop	{r3, pc}
ffff52fc:	4b19      	ldr	r3, [pc, #100]	; (ffff5364 <alt_clk_is_enabled+0x10c>)
ffff52fe:	6818      	ldr	r0, [r3, #0]
ffff5300:	f3c0 2000 	ubfx	r0, r0, #8, #1
ffff5304:	bd08      	pop	{r3, pc}
ffff5306:	4b17      	ldr	r3, [pc, #92]	; (ffff5364 <alt_clk_is_enabled+0x10c>)
ffff5308:	6818      	ldr	r0, [r3, #0]
ffff530a:	f3c0 2040 	ubfx	r0, r0, #9, #1
ffff530e:	bd08      	pop	{r3, pc}
ffff5310:	4b15      	ldr	r3, [pc, #84]	; (ffff5368 <alt_clk_is_enabled+0x110>)
ffff5312:	e7cc      	b.n	ffff52ae <alt_clk_is_enabled+0x56>
ffff5314:	4b14      	ldr	r3, [pc, #80]	; (ffff5368 <alt_clk_is_enabled+0x110>)
ffff5316:	e7cf      	b.n	ffff52b8 <alt_clk_is_enabled+0x60>
ffff5318:	4b13      	ldr	r3, [pc, #76]	; (ffff5368 <alt_clk_is_enabled+0x110>)
ffff531a:	e7d2      	b.n	ffff52c2 <alt_clk_is_enabled+0x6a>
ffff531c:	4b12      	ldr	r3, [pc, #72]	; (ffff5368 <alt_clk_is_enabled+0x110>)
ffff531e:	e7d5      	b.n	ffff52cc <alt_clk_is_enabled+0x74>
ffff5320:	4b11      	ldr	r3, [pc, #68]	; (ffff5368 <alt_clk_is_enabled+0x110>)
ffff5322:	e7d8      	b.n	ffff52d6 <alt_clk_is_enabled+0x7e>
ffff5324:	4b10      	ldr	r3, [pc, #64]	; (ffff5368 <alt_clk_is_enabled+0x110>)
ffff5326:	e7db      	b.n	ffff52e0 <alt_clk_is_enabled+0x88>
ffff5328:	4b0f      	ldr	r3, [pc, #60]	; (ffff5368 <alt_clk_is_enabled+0x110>)
ffff532a:	e7de      	b.n	ffff52ea <alt_clk_is_enabled+0x92>
ffff532c:	4b0e      	ldr	r3, [pc, #56]	; (ffff5368 <alt_clk_is_enabled+0x110>)
ffff532e:	e7e1      	b.n	ffff52f4 <alt_clk_is_enabled+0x9c>
ffff5330:	4b0d      	ldr	r3, [pc, #52]	; (ffff5368 <alt_clk_is_enabled+0x110>)
ffff5332:	e7e4      	b.n	ffff52fe <alt_clk_is_enabled+0xa6>
ffff5334:	4b0c      	ldr	r3, [pc, #48]	; (ffff5368 <alt_clk_is_enabled+0x110>)
ffff5336:	e7e7      	b.n	ffff5308 <alt_clk_is_enabled+0xb0>
ffff5338:	4b0b      	ldr	r3, [pc, #44]	; (ffff5368 <alt_clk_is_enabled+0x110>)
ffff533a:	6818      	ldr	r0, [r3, #0]
ffff533c:	f3c0 2080 	ubfx	r0, r0, #10, #1
ffff5340:	bd08      	pop	{r3, pc}
ffff5342:	4b09      	ldr	r3, [pc, #36]	; (ffff5368 <alt_clk_is_enabled+0x110>)
ffff5344:	6818      	ldr	r0, [r3, #0]
ffff5346:	f3c0 20c0 	ubfx	r0, r0, #11, #1
ffff534a:	bd08      	pop	{r3, pc}
ffff534c:	4b07      	ldr	r3, [pc, #28]	; (ffff536c <alt_clk_is_enabled+0x114>)
ffff534e:	e7ae      	b.n	ffff52ae <alt_clk_is_enabled+0x56>
ffff5350:	4b06      	ldr	r3, [pc, #24]	; (ffff536c <alt_clk_is_enabled+0x114>)
ffff5352:	e7b1      	b.n	ffff52b8 <alt_clk_is_enabled+0x60>
ffff5354:	4b05      	ldr	r3, [pc, #20]	; (ffff536c <alt_clk_is_enabled+0x114>)
ffff5356:	e7b4      	b.n	ffff52c2 <alt_clk_is_enabled+0x6a>
ffff5358:	4b04      	ldr	r3, [pc, #16]	; (ffff536c <alt_clk_is_enabled+0x114>)
ffff535a:	e7b7      	b.n	ffff52cc <alt_clk_is_enabled+0x74>
ffff535c:	f06f 0008 	mvn.w	r0, #8
ffff5360:	bd08      	pop	{r3, pc}
ffff5362:	bf00      	nop
ffff5364:	ffd04060 	.word	0xffd04060
ffff5368:	ffd040a0 	.word	0xffd040a0
ffff536c:	ffd040d8 	.word	0xffd040d8

ffff5370 <alt_clk_pll_vco_freq_get>:
ffff5370:	b570      	push	{r4, r5, r6, lr}
ffff5372:	460e      	mov	r6, r1
ffff5374:	2900      	cmp	r1, #0
ffff5376:	f000 808b 	beq.w	ffff5490 <alt_clk_pll_vco_freq_get+0x120>
ffff537a:	2809      	cmp	r0, #9
ffff537c:	d120      	bne.n	ffff53c0 <alt_clk_pll_vco_freq_get+0x50>
ffff537e:	4b47      	ldr	r3, [pc, #284]	; (ffff549c <alt_clk_pll_vco_freq_get+0x12c>)
ffff5380:	681c      	ldr	r4, [r3, #0]
ffff5382:	f014 0401 	ands.w	r4, r4, #1
ffff5386:	d004      	beq.n	ffff5392 <alt_clk_pll_vco_freq_get+0x22>
ffff5388:	4b45      	ldr	r3, [pc, #276]	; (ffff54a0 <alt_clk_pll_vco_freq_get+0x130>)
ffff538a:	681b      	ldr	r3, [r3, #0]
ffff538c:	6033      	str	r3, [r6, #0]
ffff538e:	2000      	movs	r0, #0
ffff5390:	bd70      	pop	{r4, r5, r6, pc}
ffff5392:	4b44      	ldr	r3, [pc, #272]	; (ffff54a4 <alt_clk_pll_vco_freq_get+0x134>)
ffff5394:	681a      	ldr	r2, [r3, #0]
ffff5396:	4b42      	ldr	r3, [pc, #264]	; (ffff54a0 <alt_clk_pll_vco_freq_get+0x130>)
ffff5398:	f3c2 01cc 	ubfx	r1, r2, #3, #13
ffff539c:	f3c2 4205 	ubfx	r2, r2, #16, #6
ffff53a0:	6818      	ldr	r0, [r3, #0]
ffff53a2:	3101      	adds	r1, #1
ffff53a4:	3201      	adds	r2, #1
ffff53a6:	4623      	mov	r3, r4
ffff53a8:	fba1 0100 	umull	r0, r1, r1, r0
ffff53ac:	f000 ed8c 	blx	ffff5ec8 <__aeabi_uldivmod>
ffff53b0:	2901      	cmp	r1, #1
ffff53b2:	bf08      	it	eq
ffff53b4:	2800      	cmpeq	r0, #0
ffff53b6:	d26e      	bcs.n	ffff5496 <alt_clk_pll_vco_freq_get+0x126>
ffff53b8:	4b3b      	ldr	r3, [pc, #236]	; (ffff54a8 <alt_clk_pll_vco_freq_get+0x138>)
ffff53ba:	6318      	str	r0, [r3, #48]	; 0x30
ffff53bc:	6030      	str	r0, [r6, #0]
ffff53be:	e7e6      	b.n	ffff538e <alt_clk_pll_vco_freq_get+0x1e>
ffff53c0:	280a      	cmp	r0, #10
ffff53c2:	d131      	bne.n	ffff5428 <alt_clk_pll_vco_freq_get+0xb8>
ffff53c4:	4b35      	ldr	r3, [pc, #212]	; (ffff549c <alt_clk_pll_vco_freq_get+0x12c>)
ffff53c6:	681b      	ldr	r3, [r3, #0]
ffff53c8:	0718      	lsls	r0, r3, #28
ffff53ca:	d504      	bpl.n	ffff53d6 <alt_clk_pll_vco_freq_get+0x66>
ffff53cc:	06d9      	lsls	r1, r3, #27
ffff53ce:	d5db      	bpl.n	ffff5388 <alt_clk_pll_vco_freq_get+0x18>
ffff53d0:	4b33      	ldr	r3, [pc, #204]	; (ffff54a0 <alt_clk_pll_vco_freq_get+0x130>)
ffff53d2:	6a1b      	ldr	r3, [r3, #32]
ffff53d4:	e7da      	b.n	ffff538c <alt_clk_pll_vco_freq_get+0x1c>
ffff53d6:	4b35      	ldr	r3, [pc, #212]	; (ffff54ac <alt_clk_pll_vco_freq_get+0x13c>)
ffff53d8:	681b      	ldr	r3, [r3, #0]
ffff53da:	f3c3 01cc 	ubfx	r1, r3, #3, #13
ffff53de:	f3c3 4205 	ubfx	r2, r3, #16, #6
ffff53e2:	f3c3 5381 	ubfx	r3, r3, #22, #2
ffff53e6:	b9ab      	cbnz	r3, ffff5414 <alt_clk_pll_vco_freq_get+0xa4>
ffff53e8:	4b2d      	ldr	r3, [pc, #180]	; (ffff54a0 <alt_clk_pll_vco_freq_get+0x130>)
ffff53ea:	681c      	ldr	r4, [r3, #0]
ffff53ec:	2500      	movs	r5, #0
ffff53ee:	ea54 0305 	orrs.w	r3, r4, r5
ffff53f2:	d04d      	beq.n	ffff5490 <alt_clk_pll_vco_freq_get+0x120>
ffff53f4:	1c4b      	adds	r3, r1, #1
ffff53f6:	3201      	adds	r2, #1
ffff53f8:	fba3 0104 	umull	r0, r1, r3, r4
ffff53fc:	fb03 1105 	mla	r1, r3, r5, r1
ffff5400:	2300      	movs	r3, #0
ffff5402:	f000 ed62 	blx	ffff5ec8 <__aeabi_uldivmod>
ffff5406:	2901      	cmp	r1, #1
ffff5408:	bf08      	it	eq
ffff540a:	2800      	cmpeq	r0, #0
ffff540c:	d243      	bcs.n	ffff5496 <alt_clk_pll_vco_freq_get+0x126>
ffff540e:	4b26      	ldr	r3, [pc, #152]	; (ffff54a8 <alt_clk_pll_vco_freq_get+0x138>)
ffff5410:	6418      	str	r0, [r3, #64]	; 0x40
ffff5412:	e7d3      	b.n	ffff53bc <alt_clk_pll_vco_freq_get+0x4c>
ffff5414:	2b01      	cmp	r3, #1
ffff5416:	d102      	bne.n	ffff541e <alt_clk_pll_vco_freq_get+0xae>
ffff5418:	4b21      	ldr	r3, [pc, #132]	; (ffff54a0 <alt_clk_pll_vco_freq_get+0x130>)
ffff541a:	691c      	ldr	r4, [r3, #16]
ffff541c:	e7e6      	b.n	ffff53ec <alt_clk_pll_vco_freq_get+0x7c>
ffff541e:	2b02      	cmp	r3, #2
ffff5420:	d136      	bne.n	ffff5490 <alt_clk_pll_vco_freq_get+0x120>
ffff5422:	4b1f      	ldr	r3, [pc, #124]	; (ffff54a0 <alt_clk_pll_vco_freq_get+0x130>)
ffff5424:	6a1c      	ldr	r4, [r3, #32]
ffff5426:	e7e1      	b.n	ffff53ec <alt_clk_pll_vco_freq_get+0x7c>
ffff5428:	280b      	cmp	r0, #11
ffff542a:	d131      	bne.n	ffff5490 <alt_clk_pll_vco_freq_get+0x120>
ffff542c:	4b1b      	ldr	r3, [pc, #108]	; (ffff549c <alt_clk_pll_vco_freq_get+0x12c>)
ffff542e:	681b      	ldr	r3, [r3, #0]
ffff5430:	07da      	lsls	r2, r3, #31
ffff5432:	d504      	bpl.n	ffff543e <alt_clk_pll_vco_freq_get+0xce>
ffff5434:	075b      	lsls	r3, r3, #29
ffff5436:	d5a7      	bpl.n	ffff5388 <alt_clk_pll_vco_freq_get+0x18>
ffff5438:	4b19      	ldr	r3, [pc, #100]	; (ffff54a0 <alt_clk_pll_vco_freq_get+0x130>)
ffff543a:	6b1b      	ldr	r3, [r3, #48]	; 0x30
ffff543c:	e7a6      	b.n	ffff538c <alt_clk_pll_vco_freq_get+0x1c>
ffff543e:	4b1c      	ldr	r3, [pc, #112]	; (ffff54b0 <alt_clk_pll_vco_freq_get+0x140>)
ffff5440:	681b      	ldr	r3, [r3, #0]
ffff5442:	f3c3 01cc 	ubfx	r1, r3, #3, #13
ffff5446:	f3c3 4205 	ubfx	r2, r3, #16, #6
ffff544a:	f3c3 5381 	ubfx	r3, r3, #22, #2
ffff544e:	b9ab      	cbnz	r3, ffff547c <alt_clk_pll_vco_freq_get+0x10c>
ffff5450:	4b13      	ldr	r3, [pc, #76]	; (ffff54a0 <alt_clk_pll_vco_freq_get+0x130>)
ffff5452:	681c      	ldr	r4, [r3, #0]
ffff5454:	2500      	movs	r5, #0
ffff5456:	ea54 0305 	orrs.w	r3, r4, r5
ffff545a:	d019      	beq.n	ffff5490 <alt_clk_pll_vco_freq_get+0x120>
ffff545c:	1c4b      	adds	r3, r1, #1
ffff545e:	3201      	adds	r2, #1
ffff5460:	fba3 0104 	umull	r0, r1, r3, r4
ffff5464:	fb03 1105 	mla	r1, r3, r5, r1
ffff5468:	2300      	movs	r3, #0
ffff546a:	f000 ed2e 	blx	ffff5ec8 <__aeabi_uldivmod>
ffff546e:	2901      	cmp	r1, #1
ffff5470:	bf08      	it	eq
ffff5472:	2800      	cmpeq	r0, #0
ffff5474:	d20f      	bcs.n	ffff5496 <alt_clk_pll_vco_freq_get+0x126>
ffff5476:	4b0c      	ldr	r3, [pc, #48]	; (ffff54a8 <alt_clk_pll_vco_freq_get+0x138>)
ffff5478:	6518      	str	r0, [r3, #80]	; 0x50
ffff547a:	e79f      	b.n	ffff53bc <alt_clk_pll_vco_freq_get+0x4c>
ffff547c:	2b01      	cmp	r3, #1
ffff547e:	d102      	bne.n	ffff5486 <alt_clk_pll_vco_freq_get+0x116>
ffff5480:	4b07      	ldr	r3, [pc, #28]	; (ffff54a0 <alt_clk_pll_vco_freq_get+0x130>)
ffff5482:	691c      	ldr	r4, [r3, #16]
ffff5484:	e7e6      	b.n	ffff5454 <alt_clk_pll_vco_freq_get+0xe4>
ffff5486:	2b02      	cmp	r3, #2
ffff5488:	d102      	bne.n	ffff5490 <alt_clk_pll_vco_freq_get+0x120>
ffff548a:	4b05      	ldr	r3, [pc, #20]	; (ffff54a0 <alt_clk_pll_vco_freq_get+0x130>)
ffff548c:	6b1c      	ldr	r4, [r3, #48]	; 0x30
ffff548e:	e7e1      	b.n	ffff5454 <alt_clk_pll_vco_freq_get+0xe4>
ffff5490:	f06f 0008 	mvn.w	r0, #8
ffff5494:	bd70      	pop	{r4, r5, r6, pc}
ffff5496:	f04f 30ff 	mov.w	r0, #4294967295
ffff549a:	bd70      	pop	{r4, r5, r6, pc}
ffff549c:	ffd04004 	.word	0xffd04004
ffff54a0:	ffff78f4 	.word	0xffff78f4
ffff54a4:	ffd04040 	.word	0xffd04040
ffff54a8:	ffff7934 	.word	0xffff7934
ffff54ac:	ffd04080 	.word	0xffd04080
ffff54b0:	ffd040c0 	.word	0xffd040c0

ffff54b4 <alt_clk_divider_get>:
ffff54b4:	2900      	cmp	r1, #0
ffff54b6:	f000 8098 	beq.w	ffff55ea <alt_clk_divider_get+0x136>
ffff54ba:	380d      	subs	r0, #13
ffff54bc:	2833      	cmp	r0, #51	; 0x33
ffff54be:	f200 8094 	bhi.w	ffff55ea <alt_clk_divider_get+0x136>
ffff54c2:	e8df f000 	tbb	[pc, r0]
ffff54c6:	281a      	.short	0x281a
ffff54c8:	34322c2a 	.word	0x34322c2a
ffff54cc:	28908e1a 	.word	0x28908e1a
ffff54d0:	5828534a 	.word	0x5828534a
ffff54d4:	73642a5f 	.word	0x73642a5f
ffff54d8:	322c6e2a 	.word	0x322c6e2a
ffff54dc:	38363434 	.word	0x38363434
ffff54e0:	403e3c3a 	.word	0x403e3c3a
ffff54e4:	92927a78 	.word	0x92927a78
ffff54e8:	38369290 	.word	0x38369290
ffff54ec:	4089847f 	.word	0x4089847f
ffff54f0:	92464442 	.word	0x92464442
ffff54f4:	44424892 	.word	0x44424892
ffff54f8:	4846      	.short	0x4846
ffff54fa:	4b3d      	ldr	r3, [pc, #244]	; (ffff55f0 <alt_clk_divider_get+0x13c>)
ffff54fc:	681a      	ldr	r2, [r3, #0]
ffff54fe:	3398      	adds	r3, #152	; 0x98
ffff5500:	681b      	ldr	r3, [r3, #0]
ffff5502:	f3c2 0208 	ubfx	r2, r2, #0, #9
ffff5506:	f3c3 0308 	ubfx	r3, r3, #0, #9
ffff550a:	3301      	adds	r3, #1
ffff550c:	fb02 3303 	mla	r3, r2, r3, r3
ffff5510:	600b      	str	r3, [r1, #0]
ffff5512:	2000      	movs	r0, #0
ffff5514:	4770      	bx	lr
ffff5516:	4b37      	ldr	r3, [pc, #220]	; (ffff55f4 <alt_clk_divider_get+0x140>)
ffff5518:	e7f0      	b.n	ffff54fc <alt_clk_divider_get+0x48>
ffff551a:	4b37      	ldr	r3, [pc, #220]	; (ffff55f8 <alt_clk_divider_get+0x144>)
ffff551c:	e7ee      	b.n	ffff54fc <alt_clk_divider_get+0x48>
ffff551e:	4b37      	ldr	r3, [pc, #220]	; (ffff55fc <alt_clk_divider_get+0x148>)
ffff5520:	681b      	ldr	r3, [r3, #0]
ffff5522:	f3c3 0308 	ubfx	r3, r3, #0, #9
ffff5526:	3301      	adds	r3, #1
ffff5528:	e7f2      	b.n	ffff5510 <alt_clk_divider_get+0x5c>
ffff552a:	4b35      	ldr	r3, [pc, #212]	; (ffff5600 <alt_clk_divider_get+0x14c>)
ffff552c:	e7f8      	b.n	ffff5520 <alt_clk_divider_get+0x6c>
ffff552e:	4b35      	ldr	r3, [pc, #212]	; (ffff5604 <alt_clk_divider_get+0x150>)
ffff5530:	e7f6      	b.n	ffff5520 <alt_clk_divider_get+0x6c>
ffff5532:	4b35      	ldr	r3, [pc, #212]	; (ffff5608 <alt_clk_divider_get+0x154>)
ffff5534:	e7f4      	b.n	ffff5520 <alt_clk_divider_get+0x6c>
ffff5536:	4b35      	ldr	r3, [pc, #212]	; (ffff560c <alt_clk_divider_get+0x158>)
ffff5538:	e7f2      	b.n	ffff5520 <alt_clk_divider_get+0x6c>
ffff553a:	4b35      	ldr	r3, [pc, #212]	; (ffff5610 <alt_clk_divider_get+0x15c>)
ffff553c:	e7f0      	b.n	ffff5520 <alt_clk_divider_get+0x6c>
ffff553e:	4b35      	ldr	r3, [pc, #212]	; (ffff5614 <alt_clk_divider_get+0x160>)
ffff5540:	e7ee      	b.n	ffff5520 <alt_clk_divider_get+0x6c>
ffff5542:	4b35      	ldr	r3, [pc, #212]	; (ffff5618 <alt_clk_divider_get+0x164>)
ffff5544:	e7ec      	b.n	ffff5520 <alt_clk_divider_get+0x6c>
ffff5546:	4b35      	ldr	r3, [pc, #212]	; (ffff561c <alt_clk_divider_get+0x168>)
ffff5548:	e7ea      	b.n	ffff5520 <alt_clk_divider_get+0x6c>
ffff554a:	4b35      	ldr	r3, [pc, #212]	; (ffff5620 <alt_clk_divider_get+0x16c>)
ffff554c:	e7e8      	b.n	ffff5520 <alt_clk_divider_get+0x6c>
ffff554e:	4b35      	ldr	r3, [pc, #212]	; (ffff5624 <alt_clk_divider_get+0x170>)
ffff5550:	e7e6      	b.n	ffff5520 <alt_clk_divider_get+0x6c>
ffff5552:	4b35      	ldr	r3, [pc, #212]	; (ffff5628 <alt_clk_divider_get+0x174>)
ffff5554:	e7e4      	b.n	ffff5520 <alt_clk_divider_get+0x6c>
ffff5556:	4b35      	ldr	r3, [pc, #212]	; (ffff562c <alt_clk_divider_get+0x178>)
ffff5558:	e7e2      	b.n	ffff5520 <alt_clk_divider_get+0x6c>
ffff555a:	4b35      	ldr	r3, [pc, #212]	; (ffff5630 <alt_clk_divider_get+0x17c>)
ffff555c:	681b      	ldr	r3, [r3, #0]
ffff555e:	f003 0303 	and.w	r3, r3, #3
ffff5562:	2b01      	cmp	r3, #1
ffff5564:	d9df      	bls.n	ffff5526 <alt_clk_divider_get+0x72>
ffff5566:	f04f 30ff 	mov.w	r0, #4294967295
ffff556a:	4770      	bx	lr
ffff556c:	4b30      	ldr	r3, [pc, #192]	; (ffff5630 <alt_clk_divider_get+0x17c>)
ffff556e:	681b      	ldr	r3, [r3, #0]
ffff5570:	f3c3 0381 	ubfx	r3, r3, #2, #2
ffff5574:	e7f5      	b.n	ffff5562 <alt_clk_divider_get+0xae>
ffff5576:	4b2e      	ldr	r3, [pc, #184]	; (ffff5630 <alt_clk_divider_get+0x17c>)
ffff5578:	681b      	ldr	r3, [r3, #0]
ffff557a:	f3c3 1302 	ubfx	r3, r3, #4, #3
ffff557e:	2b04      	cmp	r3, #4
ffff5580:	d90b      	bls.n	ffff559a <alt_clk_divider_get+0xe6>
ffff5582:	e7f0      	b.n	ffff5566 <alt_clk_divider_get+0xb2>
ffff5584:	4b2a      	ldr	r3, [pc, #168]	; (ffff5630 <alt_clk_divider_get+0x17c>)
ffff5586:	681b      	ldr	r3, [r3, #0]
ffff5588:	f3c3 13c2 	ubfx	r3, r3, #7, #3
ffff558c:	e7f7      	b.n	ffff557e <alt_clk_divider_get+0xca>
ffff558e:	4b29      	ldr	r3, [pc, #164]	; (ffff5634 <alt_clk_divider_get+0x180>)
ffff5590:	681b      	ldr	r3, [r3, #0]
ffff5592:	f003 0303 	and.w	r3, r3, #3
ffff5596:	2b03      	cmp	r3, #3
ffff5598:	d0e5      	beq.n	ffff5566 <alt_clk_divider_get+0xb2>
ffff559a:	2201      	movs	r2, #1
ffff559c:	fa02 f303 	lsl.w	r3, r2, r3
ffff55a0:	e7b6      	b.n	ffff5510 <alt_clk_divider_get+0x5c>
ffff55a2:	4b24      	ldr	r3, [pc, #144]	; (ffff5634 <alt_clk_divider_get+0x180>)
ffff55a4:	681b      	ldr	r3, [r3, #0]
ffff55a6:	f3c3 0381 	ubfx	r3, r3, #2, #2
ffff55aa:	e7f4      	b.n	ffff5596 <alt_clk_divider_get+0xe2>
ffff55ac:	4b22      	ldr	r3, [pc, #136]	; (ffff5638 <alt_clk_divider_get+0x184>)
ffff55ae:	681b      	ldr	r3, [r3, #0]
ffff55b0:	f003 0307 	and.w	r3, r3, #7
ffff55b4:	e7e3      	b.n	ffff557e <alt_clk_divider_get+0xca>
ffff55b6:	4b21      	ldr	r3, [pc, #132]	; (ffff563c <alt_clk_divider_get+0x188>)
ffff55b8:	e7f9      	b.n	ffff55ae <alt_clk_divider_get+0xfa>
ffff55ba:	4b20      	ldr	r3, [pc, #128]	; (ffff563c <alt_clk_divider_get+0x188>)
ffff55bc:	681b      	ldr	r3, [r3, #0]
ffff55be:	f3c3 03c2 	ubfx	r3, r3, #3, #3
ffff55c2:	e7dc      	b.n	ffff557e <alt_clk_divider_get+0xca>
ffff55c4:	4b1d      	ldr	r3, [pc, #116]	; (ffff563c <alt_clk_divider_get+0x188>)
ffff55c6:	681b      	ldr	r3, [r3, #0]
ffff55c8:	f3c3 1382 	ubfx	r3, r3, #6, #3
ffff55cc:	e7d7      	b.n	ffff557e <alt_clk_divider_get+0xca>
ffff55ce:	4b1b      	ldr	r3, [pc, #108]	; (ffff563c <alt_clk_divider_get+0x188>)
ffff55d0:	681b      	ldr	r3, [r3, #0]
ffff55d2:	f3c3 2342 	ubfx	r3, r3, #9, #3
ffff55d6:	e7d2      	b.n	ffff557e <alt_clk_divider_get+0xca>
ffff55d8:	4b19      	ldr	r3, [pc, #100]	; (ffff5640 <alt_clk_divider_get+0x18c>)
ffff55da:	681b      	ldr	r3, [r3, #0]
ffff55dc:	f023 437f 	bic.w	r3, r3, #4278190080	; 0xff000000
ffff55e0:	e7a1      	b.n	ffff5526 <alt_clk_divider_get+0x72>
ffff55e2:	2302      	movs	r3, #2
ffff55e4:	e794      	b.n	ffff5510 <alt_clk_divider_get+0x5c>
ffff55e6:	2304      	movs	r3, #4
ffff55e8:	e792      	b.n	ffff5510 <alt_clk_divider_get+0x5c>
ffff55ea:	f06f 0008 	mvn.w	r0, #8
ffff55ee:	4770      	bx	lr
ffff55f0:	ffd04048 	.word	0xffd04048
ffff55f4:	ffd0404c 	.word	0xffd0404c
ffff55f8:	ffd04050 	.word	0xffd04050
ffff55fc:	ffd04054 	.word	0xffd04054
ffff5600:	ffd04058 	.word	0xffd04058
ffff5604:	ffd0405c 	.word	0xffd0405c
ffff5608:	ffd04088 	.word	0xffd04088
ffff560c:	ffd0408c 	.word	0xffd0408c
ffff5610:	ffd04090 	.word	0xffd04090
ffff5614:	ffd04094 	.word	0xffd04094
ffff5618:	ffd04098 	.word	0xffd04098
ffff561c:	ffd0409c 	.word	0xffd0409c
ffff5620:	ffd040c8 	.word	0xffd040c8
ffff5624:	ffd040cc 	.word	0xffd040cc
ffff5628:	ffd040d0 	.word	0xffd040d0
ffff562c:	ffd040d4 	.word	0xffd040d4
ffff5630:	ffd04064 	.word	0xffd04064
ffff5634:	ffd04068 	.word	0xffd04068
ffff5638:	ffd0406c 	.word	0xffd0406c
ffff563c:	ffd040a4 	.word	0xffd040a4
ffff5640:	ffd040a8 	.word	0xffd040a8

ffff5644 <alt_clk_freq_get>:
ffff5644:	2300      	movs	r3, #0
ffff5646:	e92d 4df3 	stmdb	sp!, {r0, r1, r4, r5, r6, r7, r8, sl, fp, lr}
ffff564a:	4604      	mov	r4, r0
ffff564c:	9301      	str	r3, [sp, #4]
ffff564e:	4688      	mov	r8, r1
ffff5650:	2900      	cmp	r1, #0
ffff5652:	f000 8337 	beq.w	ffff5cc4 <alt_clk_freq_get+0x680>
ffff5656:	2840      	cmp	r0, #64	; 0x40
ffff5658:	f200 8334 	bhi.w	ffff5cc4 <alt_clk_freq_get+0x680>
ffff565c:	e8df f010 	tbh	[pc, r0, lsl #1]
ffff5660:	0041015b 	.word	0x0041015b
ffff5664:	004a0047 	.word	0x004a0047
ffff5668:	03320332 	.word	0x03320332
ffff566c:	03320332 	.word	0x03320332
ffff5670:	004d0332 	.word	0x004d0332
ffff5674:	007e005c 	.word	0x007e005c
ffff5678:	0097015b 	.word	0x0097015b
ffff567c:	00970097 	.word	0x00970097
ffff5680:	00970097 	.word	0x00970097
ffff5684:	00a20097 	.word	0x00a20097
ffff5688:	00b100c8 	.word	0x00b100c8
ffff568c:	00e500da 	.word	0x00e500da
ffff5690:	00da00f8 	.word	0x00da00f8
ffff5694:	013e0124 	.word	0x013e0124
ffff5698:	016a0156 	.word	0x016a0156
ffff569c:	015601bf 	.word	0x015601bf
ffff56a0:	02e20194 	.word	0x02e20194
ffff56a4:	01e00282 	.word	0x01e00282
ffff56a8:	01ec01e0 	.word	0x01ec01e0
ffff56ac:	01ec01ec 	.word	0x01ec01ec
ffff56b0:	01ec01ec 	.word	0x01ec01ec
ffff56b4:	020701ec 	.word	0x020701ec
ffff56b8:	02d9021b 	.word	0x02d9021b
ffff56bc:	029f02b3 	.word	0x029f02b3
ffff56c0:	01ef0277 	.word	0x01ef0277
ffff56c4:	022f01fb 	.word	0x022f01fb
ffff56c8:	02570243 	.word	0x02570243
ffff56cc:	0302026b 	.word	0x0302026b
ffff56d0:	031a030e 	.word	0x031a030e
ffff56d4:	03320332 	.word	0x03320332
ffff56d8:	03020326 	.word	0x03020326
ffff56dc:	031a030e 	.word	0x031a030e
ffff56e0:	0326      	.short	0x0326
ffff56e2:	4ba4      	ldr	r3, [pc, #656]	; (ffff5974 <alt_clk_freq_get+0x330>)
ffff56e4:	691f      	ldr	r7, [r3, #16]
ffff56e6:	2600      	movs	r6, #0
ffff56e8:	2401      	movs	r4, #1
ffff56ea:	2500      	movs	r5, #0
ffff56ec:	e261      	b.n	ffff5bb2 <alt_clk_freq_get+0x56e>
ffff56ee:	4ba1      	ldr	r3, [pc, #644]	; (ffff5974 <alt_clk_freq_get+0x330>)
ffff56f0:	6a1f      	ldr	r7, [r3, #32]
ffff56f2:	e7f8      	b.n	ffff56e6 <alt_clk_freq_get+0xa2>
ffff56f4:	4b9f      	ldr	r3, [pc, #636]	; (ffff5974 <alt_clk_freq_get+0x330>)
ffff56f6:	6b1f      	ldr	r7, [r3, #48]	; 0x30
ffff56f8:	e7f5      	b.n	ffff56e6 <alt_clk_freq_get+0xa2>
ffff56fa:	2009      	movs	r0, #9
ffff56fc:	f7ff fc58 	bl	ffff4fb0 <alt_clk_pll_is_bypassed>
ffff5700:	2801      	cmp	r0, #1
ffff5702:	d104      	bne.n	ffff570e <alt_clk_freq_get+0xca>
ffff5704:	4b9b      	ldr	r3, [pc, #620]	; (ffff5974 <alt_clk_freq_get+0x330>)
ffff5706:	681b      	ldr	r3, [r3, #0]
ffff5708:	9301      	str	r3, [sp, #4]
ffff570a:	2000      	movs	r0, #0
ffff570c:	e012      	b.n	ffff5734 <alt_clk_freq_get+0xf0>
ffff570e:	a901      	add	r1, sp, #4
ffff5710:	2009      	movs	r0, #9
ffff5712:	f7ff fe2d 	bl	ffff5370 <alt_clk_pll_vco_freq_get>
ffff5716:	e00d      	b.n	ffff5734 <alt_clk_freq_get+0xf0>
ffff5718:	200a      	movs	r0, #10
ffff571a:	f7ff fc49 	bl	ffff4fb0 <alt_clk_pll_is_bypassed>
ffff571e:	2801      	cmp	r0, #1
ffff5720:	d119      	bne.n	ffff5756 <alt_clk_freq_get+0x112>
ffff5722:	4b95      	ldr	r3, [pc, #596]	; (ffff5978 <alt_clk_freq_get+0x334>)
ffff5724:	6818      	ldr	r0, [r3, #0]
ffff5726:	f3c0 5081 	ubfx	r0, r0, #22, #2
ffff572a:	9001      	str	r0, [sp, #4]
ffff572c:	b948      	cbnz	r0, ffff5742 <alt_clk_freq_get+0xfe>
ffff572e:	4b91      	ldr	r3, [pc, #580]	; (ffff5974 <alt_clk_freq_get+0x330>)
ffff5730:	681b      	ldr	r3, [r3, #0]
ffff5732:	9301      	str	r3, [sp, #4]
ffff5734:	9f01      	ldr	r7, [sp, #4]
ffff5736:	2600      	movs	r6, #0
ffff5738:	2800      	cmp	r0, #0
ffff573a:	d0d5      	beq.n	ffff56e8 <alt_clk_freq_get+0xa4>
ffff573c:	b002      	add	sp, #8
ffff573e:	e8bd 8df0 	ldmia.w	sp!, {r4, r5, r6, r7, r8, sl, fp, pc}
ffff5742:	2801      	cmp	r0, #1
ffff5744:	d102      	bne.n	ffff574c <alt_clk_freq_get+0x108>
ffff5746:	4b8b      	ldr	r3, [pc, #556]	; (ffff5974 <alt_clk_freq_get+0x330>)
ffff5748:	691b      	ldr	r3, [r3, #16]
ffff574a:	e7dd      	b.n	ffff5708 <alt_clk_freq_get+0xc4>
ffff574c:	2802      	cmp	r0, #2
ffff574e:	d11b      	bne.n	ffff5788 <alt_clk_freq_get+0x144>
ffff5750:	4b88      	ldr	r3, [pc, #544]	; (ffff5974 <alt_clk_freq_get+0x330>)
ffff5752:	6a1b      	ldr	r3, [r3, #32]
ffff5754:	e7d8      	b.n	ffff5708 <alt_clk_freq_get+0xc4>
ffff5756:	a901      	add	r1, sp, #4
ffff5758:	200a      	movs	r0, #10
ffff575a:	e7da      	b.n	ffff5712 <alt_clk_freq_get+0xce>
ffff575c:	200b      	movs	r0, #11
ffff575e:	f7ff fc27 	bl	ffff4fb0 <alt_clk_pll_is_bypassed>
ffff5762:	2801      	cmp	r0, #1
ffff5764:	d10d      	bne.n	ffff5782 <alt_clk_freq_get+0x13e>
ffff5766:	4b85      	ldr	r3, [pc, #532]	; (ffff597c <alt_clk_freq_get+0x338>)
ffff5768:	6818      	ldr	r0, [r3, #0]
ffff576a:	f3c0 5081 	ubfx	r0, r0, #22, #2
ffff576e:	9001      	str	r0, [sp, #4]
ffff5770:	2800      	cmp	r0, #0
ffff5772:	d0dc      	beq.n	ffff572e <alt_clk_freq_get+0xea>
ffff5774:	2801      	cmp	r0, #1
ffff5776:	d0e6      	beq.n	ffff5746 <alt_clk_freq_get+0x102>
ffff5778:	2802      	cmp	r0, #2
ffff577a:	d105      	bne.n	ffff5788 <alt_clk_freq_get+0x144>
ffff577c:	4b7d      	ldr	r3, [pc, #500]	; (ffff5974 <alt_clk_freq_get+0x330>)
ffff577e:	6b1b      	ldr	r3, [r3, #48]	; 0x30
ffff5780:	e7c2      	b.n	ffff5708 <alt_clk_freq_get+0xc4>
ffff5782:	a901      	add	r1, sp, #4
ffff5784:	200b      	movs	r0, #11
ffff5786:	e7c4      	b.n	ffff5712 <alt_clk_freq_get+0xce>
ffff5788:	f04f 30ff 	mov.w	r0, #4294967295
ffff578c:	e7d2      	b.n	ffff5734 <alt_clk_freq_get+0xf0>
ffff578e:	a901      	add	r1, sp, #4
ffff5790:	2009      	movs	r0, #9
ffff5792:	f7ff fded 	bl	ffff5370 <alt_clk_pll_vco_freq_get>
ffff5796:	2800      	cmp	r0, #0
ffff5798:	d1d0      	bne.n	ffff573c <alt_clk_freq_get+0xf8>
ffff579a:	4606      	mov	r6, r0
ffff579c:	9f01      	ldr	r7, [sp, #4]
ffff579e:	a901      	add	r1, sp, #4
ffff57a0:	4620      	mov	r0, r4
ffff57a2:	e009      	b.n	ffff57b8 <alt_clk_freq_get+0x174>
ffff57a4:	a901      	add	r1, sp, #4
ffff57a6:	2009      	movs	r0, #9
ffff57a8:	f7ff fde2 	bl	ffff5370 <alt_clk_pll_vco_freq_get>
ffff57ac:	2800      	cmp	r0, #0
ffff57ae:	d1c5      	bne.n	ffff573c <alt_clk_freq_get+0xf8>
ffff57b0:	9f01      	ldr	r7, [sp, #4]
ffff57b2:	4606      	mov	r6, r0
ffff57b4:	a901      	add	r1, sp, #4
ffff57b6:	200d      	movs	r0, #13
ffff57b8:	f7ff fe7c 	bl	ffff54b4 <alt_clk_divider_get>
ffff57bc:	2500      	movs	r5, #0
ffff57be:	9c01      	ldr	r4, [sp, #4]
ffff57c0:	e06a      	b.n	ffff5898 <alt_clk_freq_get+0x254>
ffff57c2:	a901      	add	r1, sp, #4
ffff57c4:	2009      	movs	r0, #9
ffff57c6:	f7ff fdd3 	bl	ffff5370 <alt_clk_pll_vco_freq_get>
ffff57ca:	2800      	cmp	r0, #0
ffff57cc:	d1b6      	bne.n	ffff573c <alt_clk_freq_get+0xf8>
ffff57ce:	4606      	mov	r6, r0
ffff57d0:	a901      	add	r1, sp, #4
ffff57d2:	200d      	movs	r0, #13
ffff57d4:	9f01      	ldr	r7, [sp, #4]
ffff57d6:	f7ff fe6d 	bl	ffff54b4 <alt_clk_divider_get>
ffff57da:	2800      	cmp	r0, #0
ffff57dc:	d1ae      	bne.n	ffff573c <alt_clk_freq_get+0xf8>
ffff57de:	9c01      	ldr	r4, [sp, #4]
ffff57e0:	a901      	add	r1, sp, #4
ffff57e2:	2015      	movs	r0, #21
ffff57e4:	f7ff fe66 	bl	ffff54b4 <alt_clk_divider_get>
ffff57e8:	9a01      	ldr	r2, [sp, #4]
ffff57ea:	fba4 4502 	umull	r4, r5, r4, r2
ffff57ee:	e053      	b.n	ffff5898 <alt_clk_freq_get+0x254>
ffff57f0:	a901      	add	r1, sp, #4
ffff57f2:	2009      	movs	r0, #9
ffff57f4:	f7ff fdbc 	bl	ffff5370 <alt_clk_pll_vco_freq_get>
ffff57f8:	2800      	cmp	r0, #0
ffff57fa:	d19f      	bne.n	ffff573c <alt_clk_freq_get+0xf8>
ffff57fc:	4606      	mov	r6, r0
ffff57fe:	a901      	add	r1, sp, #4
ffff5800:	200d      	movs	r0, #13
ffff5802:	9f01      	ldr	r7, [sp, #4]
ffff5804:	f7ff fe56 	bl	ffff54b4 <alt_clk_divider_get>
ffff5808:	2800      	cmp	r0, #0
ffff580a:	d197      	bne.n	ffff573c <alt_clk_freq_get+0xf8>
ffff580c:	9c01      	ldr	r4, [sp, #4]
ffff580e:	a901      	add	r1, sp, #4
ffff5810:	2014      	movs	r0, #20
ffff5812:	e7e7      	b.n	ffff57e4 <alt_clk_freq_get+0x1a0>
ffff5814:	a901      	add	r1, sp, #4
ffff5816:	2009      	movs	r0, #9
ffff5818:	f7ff fdaa 	bl	ffff5370 <alt_clk_pll_vco_freq_get>
ffff581c:	2800      	cmp	r0, #0
ffff581e:	d18d      	bne.n	ffff573c <alt_clk_freq_get+0xf8>
ffff5820:	4606      	mov	r6, r0
ffff5822:	9f01      	ldr	r7, [sp, #4]
ffff5824:	a901      	add	r1, sp, #4
ffff5826:	200e      	movs	r0, #14
ffff5828:	e7c6      	b.n	ffff57b8 <alt_clk_freq_get+0x174>
ffff582a:	a901      	add	r1, sp, #4
ffff582c:	2009      	movs	r0, #9
ffff582e:	f7ff fd9f 	bl	ffff5370 <alt_clk_pll_vco_freq_get>
ffff5832:	2800      	cmp	r0, #0
ffff5834:	d182      	bne.n	ffff573c <alt_clk_freq_get+0xf8>
ffff5836:	4606      	mov	r6, r0
ffff5838:	a901      	add	r1, sp, #4
ffff583a:	200e      	movs	r0, #14
ffff583c:	9f01      	ldr	r7, [sp, #4]
ffff583e:	f7ff fe39 	bl	ffff54b4 <alt_clk_divider_get>
ffff5842:	2800      	cmp	r0, #0
ffff5844:	f47f af7a 	bne.w	ffff573c <alt_clk_freq_get+0xf8>
ffff5848:	9c01      	ldr	r4, [sp, #4]
ffff584a:	a901      	add	r1, sp, #4
ffff584c:	2017      	movs	r0, #23
ffff584e:	e7c9      	b.n	ffff57e4 <alt_clk_freq_get+0x1a0>
ffff5850:	a901      	add	r1, sp, #4
ffff5852:	2009      	movs	r0, #9
ffff5854:	f7ff fd8c 	bl	ffff5370 <alt_clk_pll_vco_freq_get>
ffff5858:	2800      	cmp	r0, #0
ffff585a:	f47f af6f 	bne.w	ffff573c <alt_clk_freq_get+0xf8>
ffff585e:	4606      	mov	r6, r0
ffff5860:	a901      	add	r1, sp, #4
ffff5862:	200e      	movs	r0, #14
ffff5864:	9f01      	ldr	r7, [sp, #4]
ffff5866:	f7ff fe25 	bl	ffff54b4 <alt_clk_divider_get>
ffff586a:	2800      	cmp	r0, #0
ffff586c:	f47f af66 	bne.w	ffff573c <alt_clk_freq_get+0xf8>
ffff5870:	a901      	add	r1, sp, #4
ffff5872:	2017      	movs	r0, #23
ffff5874:	9c01      	ldr	r4, [sp, #4]
ffff5876:	f7ff fe1d 	bl	ffff54b4 <alt_clk_divider_get>
ffff587a:	2800      	cmp	r0, #0
ffff587c:	f47f af5e 	bne.w	ffff573c <alt_clk_freq_get+0xf8>
ffff5880:	9b01      	ldr	r3, [sp, #4]
ffff5882:	a901      	add	r1, sp, #4
ffff5884:	2018      	movs	r0, #24
ffff5886:	fba4 ab03 	umull	sl, fp, r4, r3
ffff588a:	f7ff fe13 	bl	ffff54b4 <alt_clk_divider_get>
ffff588e:	9b01      	ldr	r3, [sp, #4]
ffff5890:	fba3 450a 	umull	r4, r5, r3, sl
ffff5894:	fb03 550b 	mla	r5, r3, fp, r5
ffff5898:	2800      	cmp	r0, #0
ffff589a:	f47f af4f 	bne.w	ffff573c <alt_clk_freq_get+0xf8>
ffff589e:	ea54 0305 	orrs.w	r3, r4, r5
ffff58a2:	f040 8186 	bne.w	ffff5bb2 <alt_clk_freq_get+0x56e>
ffff58a6:	e16b      	b.n	ffff5b80 <alt_clk_freq_get+0x53c>
ffff58a8:	a901      	add	r1, sp, #4
ffff58aa:	201a      	movs	r0, #26
ffff58ac:	f7ff fe02 	bl	ffff54b4 <alt_clk_divider_get>
ffff58b0:	2800      	cmp	r0, #0
ffff58b2:	f47f af43 	bne.w	ffff573c <alt_clk_freq_get+0xf8>
ffff58b6:	4b32      	ldr	r3, [pc, #200]	; (ffff5980 <alt_clk_freq_get+0x33c>)
ffff58b8:	9c01      	ldr	r4, [sp, #4]
ffff58ba:	681b      	ldr	r3, [r3, #0]
ffff58bc:	f003 0301 	and.w	r3, r3, #1
ffff58c0:	9301      	str	r3, [sp, #4]
ffff58c2:	a901      	add	r1, sp, #4
ffff58c4:	b9bb      	cbnz	r3, ffff58f6 <alt_clk_freq_get+0x2b2>
ffff58c6:	2009      	movs	r0, #9
ffff58c8:	f7ff fd52 	bl	ffff5370 <alt_clk_pll_vco_freq_get>
ffff58cc:	2800      	cmp	r0, #0
ffff58ce:	f47f af35 	bne.w	ffff573c <alt_clk_freq_get+0xf8>
ffff58d2:	4606      	mov	r6, r0
ffff58d4:	9f01      	ldr	r7, [sp, #4]
ffff58d6:	a901      	add	r1, sp, #4
ffff58d8:	200e      	movs	r0, #14
ffff58da:	e783      	b.n	ffff57e4 <alt_clk_freq_get+0x1a0>
ffff58dc:	a901      	add	r1, sp, #4
ffff58de:	201b      	movs	r0, #27
ffff58e0:	f7ff fde8 	bl	ffff54b4 <alt_clk_divider_get>
ffff58e4:	2800      	cmp	r0, #0
ffff58e6:	f47f af29 	bne.w	ffff573c <alt_clk_freq_get+0xf8>
ffff58ea:	4b25      	ldr	r3, [pc, #148]	; (ffff5980 <alt_clk_freq_get+0x33c>)
ffff58ec:	9c01      	ldr	r4, [sp, #4]
ffff58ee:	681b      	ldr	r3, [r3, #0]
ffff58f0:	f3c3 0340 	ubfx	r3, r3, #1, #1
ffff58f4:	e7e4      	b.n	ffff58c0 <alt_clk_freq_get+0x27c>
ffff58f6:	200a      	movs	r0, #10
ffff58f8:	f7ff fd3a 	bl	ffff5370 <alt_clk_pll_vco_freq_get>
ffff58fc:	2800      	cmp	r0, #0
ffff58fe:	f47f af1d 	bne.w	ffff573c <alt_clk_freq_get+0xf8>
ffff5902:	4606      	mov	r6, r0
ffff5904:	9f01      	ldr	r7, [sp, #4]
ffff5906:	a901      	add	r1, sp, #4
ffff5908:	2029      	movs	r0, #41	; 0x29
ffff590a:	e76b      	b.n	ffff57e4 <alt_clk_freq_get+0x1a0>
ffff590c:	4b1d      	ldr	r3, [pc, #116]	; (ffff5984 <alt_clk_freq_get+0x340>)
ffff590e:	681b      	ldr	r3, [r3, #0]
ffff5910:	07d8      	lsls	r0, r3, #31
ffff5912:	9301      	str	r3, [sp, #4]
ffff5914:	d502      	bpl.n	ffff591c <alt_clk_freq_get+0x2d8>
ffff5916:	4b17      	ldr	r3, [pc, #92]	; (ffff5974 <alt_clk_freq_get+0x330>)
ffff5918:	681f      	ldr	r7, [r3, #0]
ffff591a:	e6e4      	b.n	ffff56e6 <alt_clk_freq_get+0xa2>
ffff591c:	a901      	add	r1, sp, #4
ffff591e:	2009      	movs	r0, #9
ffff5920:	f7ff fd26 	bl	ffff5370 <alt_clk_pll_vco_freq_get>
ffff5924:	2800      	cmp	r0, #0
ffff5926:	f47f af09 	bne.w	ffff573c <alt_clk_freq_get+0xf8>
ffff592a:	4606      	mov	r6, r0
ffff592c:	9f01      	ldr	r7, [sp, #4]
ffff592e:	a901      	add	r1, sp, #4
ffff5930:	200f      	movs	r0, #15
ffff5932:	e741      	b.n	ffff57b8 <alt_clk_freq_get+0x174>
ffff5934:	4b13      	ldr	r3, [pc, #76]	; (ffff5984 <alt_clk_freq_get+0x340>)
ffff5936:	ad02      	add	r5, sp, #8
ffff5938:	681b      	ldr	r3, [r3, #0]
ffff593a:	07d9      	lsls	r1, r3, #31
ffff593c:	f845 3d04 	str.w	r3, [r5, #-4]!
ffff5940:	d506      	bpl.n	ffff5950 <alt_clk_freq_get+0x30c>
ffff5942:	4b0c      	ldr	r3, [pc, #48]	; (ffff5974 <alt_clk_freq_get+0x330>)
ffff5944:	2600      	movs	r6, #0
ffff5946:	681f      	ldr	r7, [r3, #0]
ffff5948:	9c01      	ldr	r4, [sp, #4]
ffff594a:	4629      	mov	r1, r5
ffff594c:	201d      	movs	r0, #29
ffff594e:	e749      	b.n	ffff57e4 <alt_clk_freq_get+0x1a0>
ffff5950:	4629      	mov	r1, r5
ffff5952:	2009      	movs	r0, #9
ffff5954:	f7ff fd0c 	bl	ffff5370 <alt_clk_pll_vco_freq_get>
ffff5958:	2800      	cmp	r0, #0
ffff595a:	f47f aeef 	bne.w	ffff573c <alt_clk_freq_get+0xf8>
ffff595e:	4629      	mov	r1, r5
ffff5960:	200f      	movs	r0, #15
ffff5962:	9f01      	ldr	r7, [sp, #4]
ffff5964:	f7ff fda6 	bl	ffff54b4 <alt_clk_divider_get>
ffff5968:	2800      	cmp	r0, #0
ffff596a:	f47f aee7 	bne.w	ffff573c <alt_clk_freq_get+0xf8>
ffff596e:	4606      	mov	r6, r0
ffff5970:	e7ea      	b.n	ffff5948 <alt_clk_freq_get+0x304>
ffff5972:	bf00      	nop
ffff5974:	ffff78f4 	.word	0xffff78f4
ffff5978:	ffd04080 	.word	0xffd04080
ffff597c:	ffd040c0 	.word	0xffd040c0
ffff5980:	ffd04070 	.word	0xffd04070
ffff5984:	ffd04010 	.word	0xffd04010
ffff5988:	4bac      	ldr	r3, [pc, #688]	; (ffff5c3c <alt_clk_freq_get+0x5f8>)
ffff598a:	ac02      	add	r4, sp, #8
ffff598c:	681b      	ldr	r3, [r3, #0]
ffff598e:	07da      	lsls	r2, r3, #31
ffff5990:	f844 3d04 	str.w	r3, [r4, #-4]!
ffff5994:	d512      	bpl.n	ffff59bc <alt_clk_freq_get+0x378>
ffff5996:	4baa      	ldr	r3, [pc, #680]	; (ffff5c40 <alt_clk_freq_get+0x5fc>)
ffff5998:	2600      	movs	r6, #0
ffff599a:	681f      	ldr	r7, [r3, #0]
ffff599c:	2301      	movs	r3, #1
ffff599e:	9301      	str	r3, [sp, #4]
ffff59a0:	4621      	mov	r1, r4
ffff59a2:	201d      	movs	r0, #29
ffff59a4:	9d01      	ldr	r5, [sp, #4]
ffff59a6:	f7ff fd85 	bl	ffff54b4 <alt_clk_divider_get>
ffff59aa:	2800      	cmp	r0, #0
ffff59ac:	f47f aec6 	bne.w	ffff573c <alt_clk_freq_get+0xf8>
ffff59b0:	9b01      	ldr	r3, [sp, #4]
ffff59b2:	4621      	mov	r1, r4
ffff59b4:	2020      	movs	r0, #32
ffff59b6:	fba5 ab03 	umull	sl, fp, r5, r3
ffff59ba:	e766      	b.n	ffff588a <alt_clk_freq_get+0x246>
ffff59bc:	4621      	mov	r1, r4
ffff59be:	2009      	movs	r0, #9
ffff59c0:	f7ff fcd6 	bl	ffff5370 <alt_clk_pll_vco_freq_get>
ffff59c4:	2800      	cmp	r0, #0
ffff59c6:	f47f aeb9 	bne.w	ffff573c <alt_clk_freq_get+0xf8>
ffff59ca:	4621      	mov	r1, r4
ffff59cc:	200f      	movs	r0, #15
ffff59ce:	9f01      	ldr	r7, [sp, #4]
ffff59d0:	f7ff fd70 	bl	ffff54b4 <alt_clk_divider_get>
ffff59d4:	2800      	cmp	r0, #0
ffff59d6:	f47f aeb1 	bne.w	ffff573c <alt_clk_freq_get+0xf8>
ffff59da:	4606      	mov	r6, r0
ffff59dc:	e7e0      	b.n	ffff59a0 <alt_clk_freq_get+0x35c>
ffff59de:	4b97      	ldr	r3, [pc, #604]	; (ffff5c3c <alt_clk_freq_get+0x5f8>)
ffff59e0:	ad02      	add	r5, sp, #8
ffff59e2:	681b      	ldr	r3, [r3, #0]
ffff59e4:	f845 3d04 	str.w	r3, [r5, #-4]!
ffff59e8:	07db      	lsls	r3, r3, #31
ffff59ea:	d508      	bpl.n	ffff59fe <alt_clk_freq_get+0x3ba>
ffff59ec:	4b94      	ldr	r3, [pc, #592]	; (ffff5c40 <alt_clk_freq_get+0x5fc>)
ffff59ee:	2600      	movs	r6, #0
ffff59f0:	681f      	ldr	r7, [r3, #0]
ffff59f2:	2301      	movs	r3, #1
ffff59f4:	9301      	str	r3, [sp, #4]
ffff59f6:	9c01      	ldr	r4, [sp, #4]
ffff59f8:	4629      	mov	r1, r5
ffff59fa:	201e      	movs	r0, #30
ffff59fc:	e6f2      	b.n	ffff57e4 <alt_clk_freq_get+0x1a0>
ffff59fe:	4629      	mov	r1, r5
ffff5a00:	2009      	movs	r0, #9
ffff5a02:	f7ff fcb5 	bl	ffff5370 <alt_clk_pll_vco_freq_get>
ffff5a06:	2800      	cmp	r0, #0
ffff5a08:	f47f ae98 	bne.w	ffff573c <alt_clk_freq_get+0xf8>
ffff5a0c:	4629      	mov	r1, r5
ffff5a0e:	200f      	movs	r0, #15
ffff5a10:	9f01      	ldr	r7, [sp, #4]
ffff5a12:	f7ff fd4f 	bl	ffff54b4 <alt_clk_divider_get>
ffff5a16:	2800      	cmp	r0, #0
ffff5a18:	f47f ae90 	bne.w	ffff573c <alt_clk_freq_get+0xf8>
ffff5a1c:	4606      	mov	r6, r0
ffff5a1e:	e7ea      	b.n	ffff59f6 <alt_clk_freq_get+0x3b2>
ffff5a20:	a901      	add	r1, sp, #4
ffff5a22:	2009      	movs	r0, #9
ffff5a24:	f7ff fca4 	bl	ffff5370 <alt_clk_pll_vco_freq_get>
ffff5a28:	2800      	cmp	r0, #0
ffff5a2a:	f47f ae87 	bne.w	ffff573c <alt_clk_freq_get+0xf8>
ffff5a2e:	4606      	mov	r6, r0
ffff5a30:	9f01      	ldr	r7, [sp, #4]
ffff5a32:	a901      	add	r1, sp, #4
ffff5a34:	2012      	movs	r0, #18
ffff5a36:	e6bf      	b.n	ffff57b8 <alt_clk_freq_get+0x174>
ffff5a38:	a901      	add	r1, sp, #4
ffff5a3a:	200a      	movs	r0, #10
ffff5a3c:	e6a9      	b.n	ffff5792 <alt_clk_freq_get+0x14e>
ffff5a3e:	a901      	add	r1, sp, #4
ffff5a40:	200a      	movs	r0, #10
ffff5a42:	f7ff fc95 	bl	ffff5370 <alt_clk_pll_vco_freq_get>
ffff5a46:	2800      	cmp	r0, #0
ffff5a48:	f47f ae78 	bne.w	ffff573c <alt_clk_freq_get+0xf8>
ffff5a4c:	4606      	mov	r6, r0
ffff5a4e:	9f01      	ldr	r7, [sp, #4]
ffff5a50:	a901      	add	r1, sp, #4
ffff5a52:	2025      	movs	r0, #37	; 0x25
ffff5a54:	e6b0      	b.n	ffff57b8 <alt_clk_freq_get+0x174>
ffff5a56:	a901      	add	r1, sp, #4
ffff5a58:	200a      	movs	r0, #10
ffff5a5a:	f7ff fc89 	bl	ffff5370 <alt_clk_pll_vco_freq_get>
ffff5a5e:	2800      	cmp	r0, #0
ffff5a60:	f47f ae6c 	bne.w	ffff573c <alt_clk_freq_get+0xf8>
ffff5a64:	4606      	mov	r6, r0
ffff5a66:	9f01      	ldr	r7, [sp, #4]
ffff5a68:	a901      	add	r1, sp, #4
ffff5a6a:	2026      	movs	r0, #38	; 0x26
ffff5a6c:	e6a4      	b.n	ffff57b8 <alt_clk_freq_get+0x174>
ffff5a6e:	a901      	add	r1, sp, #4
ffff5a70:	200a      	movs	r0, #10
ffff5a72:	f7ff fc7d 	bl	ffff5370 <alt_clk_pll_vco_freq_get>
ffff5a76:	2800      	cmp	r0, #0
ffff5a78:	f47f ae60 	bne.w	ffff573c <alt_clk_freq_get+0xf8>
ffff5a7c:	a901      	add	r1, sp, #4
ffff5a7e:	2029      	movs	r0, #41	; 0x29
ffff5a80:	9f01      	ldr	r7, [sp, #4]
ffff5a82:	f7ff fd17 	bl	ffff54b4 <alt_clk_divider_get>
ffff5a86:	2800      	cmp	r0, #0
ffff5a88:	f47f ae58 	bne.w	ffff573c <alt_clk_freq_get+0xf8>
ffff5a8c:	4606      	mov	r6, r0
ffff5a8e:	9c01      	ldr	r4, [sp, #4]
ffff5a90:	a901      	add	r1, sp, #4
ffff5a92:	202b      	movs	r0, #43	; 0x2b
ffff5a94:	e6a6      	b.n	ffff57e4 <alt_clk_freq_get+0x1a0>
ffff5a96:	a901      	add	r1, sp, #4
ffff5a98:	200a      	movs	r0, #10
ffff5a9a:	f7ff fc69 	bl	ffff5370 <alt_clk_pll_vco_freq_get>
ffff5a9e:	2800      	cmp	r0, #0
ffff5aa0:	f47f ae4c 	bne.w	ffff573c <alt_clk_freq_get+0xf8>
ffff5aa4:	4606      	mov	r6, r0
ffff5aa6:	a901      	add	r1, sp, #4
ffff5aa8:	2029      	movs	r0, #41	; 0x29
ffff5aaa:	9f01      	ldr	r7, [sp, #4]
ffff5aac:	f7ff fd02 	bl	ffff54b4 <alt_clk_divider_get>
ffff5ab0:	2800      	cmp	r0, #0
ffff5ab2:	f47f ae43 	bne.w	ffff573c <alt_clk_freq_get+0xf8>
ffff5ab6:	9c01      	ldr	r4, [sp, #4]
ffff5ab8:	a901      	add	r1, sp, #4
ffff5aba:	202c      	movs	r0, #44	; 0x2c
ffff5abc:	e692      	b.n	ffff57e4 <alt_clk_freq_get+0x1a0>
ffff5abe:	a901      	add	r1, sp, #4
ffff5ac0:	200a      	movs	r0, #10
ffff5ac2:	f7ff fc55 	bl	ffff5370 <alt_clk_pll_vco_freq_get>
ffff5ac6:	2800      	cmp	r0, #0
ffff5ac8:	f47f ae38 	bne.w	ffff573c <alt_clk_freq_get+0xf8>
ffff5acc:	4606      	mov	r6, r0
ffff5ace:	a901      	add	r1, sp, #4
ffff5ad0:	2029      	movs	r0, #41	; 0x29
ffff5ad2:	9f01      	ldr	r7, [sp, #4]
ffff5ad4:	f7ff fcee 	bl	ffff54b4 <alt_clk_divider_get>
ffff5ad8:	2800      	cmp	r0, #0
ffff5ada:	f47f ae2f 	bne.w	ffff573c <alt_clk_freq_get+0xf8>
ffff5ade:	9c01      	ldr	r4, [sp, #4]
ffff5ae0:	a901      	add	r1, sp, #4
ffff5ae2:	2033      	movs	r0, #51	; 0x33
ffff5ae4:	e67e      	b.n	ffff57e4 <alt_clk_freq_get+0x1a0>
ffff5ae6:	a901      	add	r1, sp, #4
ffff5ae8:	200a      	movs	r0, #10
ffff5aea:	f7ff fc41 	bl	ffff5370 <alt_clk_pll_vco_freq_get>
ffff5aee:	2800      	cmp	r0, #0
ffff5af0:	f47f ae24 	bne.w	ffff573c <alt_clk_freq_get+0xf8>
ffff5af4:	4606      	mov	r6, r0
ffff5af6:	a901      	add	r1, sp, #4
ffff5af8:	2029      	movs	r0, #41	; 0x29
ffff5afa:	9f01      	ldr	r7, [sp, #4]
ffff5afc:	f7ff fcda 	bl	ffff54b4 <alt_clk_divider_get>
ffff5b00:	2800      	cmp	r0, #0
ffff5b02:	f47f ae1b 	bne.w	ffff573c <alt_clk_freq_get+0xf8>
ffff5b06:	9c01      	ldr	r4, [sp, #4]
ffff5b08:	a901      	add	r1, sp, #4
ffff5b0a:	2034      	movs	r0, #52	; 0x34
ffff5b0c:	e66a      	b.n	ffff57e4 <alt_clk_freq_get+0x1a0>
ffff5b0e:	a901      	add	r1, sp, #4
ffff5b10:	200a      	movs	r0, #10
ffff5b12:	f7ff fc2d 	bl	ffff5370 <alt_clk_pll_vco_freq_get>
ffff5b16:	2800      	cmp	r0, #0
ffff5b18:	f47f ae10 	bne.w	ffff573c <alt_clk_freq_get+0xf8>
ffff5b1c:	4606      	mov	r6, r0
ffff5b1e:	a901      	add	r1, sp, #4
ffff5b20:	2029      	movs	r0, #41	; 0x29
ffff5b22:	9f01      	ldr	r7, [sp, #4]
ffff5b24:	f7ff fcc6 	bl	ffff54b4 <alt_clk_divider_get>
ffff5b28:	2800      	cmp	r0, #0
ffff5b2a:	f47f ae07 	bne.w	ffff573c <alt_clk_freq_get+0xf8>
ffff5b2e:	9c01      	ldr	r4, [sp, #4]
ffff5b30:	a901      	add	r1, sp, #4
ffff5b32:	2035      	movs	r0, #53	; 0x35
ffff5b34:	e656      	b.n	ffff57e4 <alt_clk_freq_get+0x1a0>
ffff5b36:	a901      	add	r1, sp, #4
ffff5b38:	200a      	movs	r0, #10
ffff5b3a:	f7ff fc19 	bl	ffff5370 <alt_clk_pll_vco_freq_get>
ffff5b3e:	2800      	cmp	r0, #0
ffff5b40:	f47f adfc 	bne.w	ffff573c <alt_clk_freq_get+0xf8>
ffff5b44:	4606      	mov	r6, r0
ffff5b46:	9f01      	ldr	r7, [sp, #4]
ffff5b48:	a901      	add	r1, sp, #4
ffff5b4a:	202a      	movs	r0, #42	; 0x2a
ffff5b4c:	e634      	b.n	ffff57b8 <alt_clk_freq_get+0x174>
ffff5b4e:	4b3d      	ldr	r3, [pc, #244]	; (ffff5c44 <alt_clk_freq_get+0x600>)
ffff5b50:	681e      	ldr	r6, [r3, #0]
ffff5b52:	f006 0603 	and.w	r6, r6, #3
ffff5b56:	9601      	str	r6, [sp, #4]
ffff5b58:	b916      	cbnz	r6, ffff5b60 <alt_clk_freq_get+0x51c>
ffff5b5a:	4b39      	ldr	r3, [pc, #228]	; (ffff5c40 <alt_clk_freq_get+0x5fc>)
ffff5b5c:	6a1f      	ldr	r7, [r3, #32]
ffff5b5e:	e5c3      	b.n	ffff56e8 <alt_clk_freq_get+0xa4>
ffff5b60:	2e01      	cmp	r6, #1
ffff5b62:	d10b      	bne.n	ffff5b7c <alt_clk_freq_get+0x538>
ffff5b64:	a901      	add	r1, sp, #4
ffff5b66:	2009      	movs	r0, #9
ffff5b68:	f7ff fc02 	bl	ffff5370 <alt_clk_pll_vco_freq_get>
ffff5b6c:	2800      	cmp	r0, #0
ffff5b6e:	f47f ade5 	bne.w	ffff573c <alt_clk_freq_get+0xf8>
ffff5b72:	4606      	mov	r6, r0
ffff5b74:	9f01      	ldr	r7, [sp, #4]
ffff5b76:	a901      	add	r1, sp, #4
ffff5b78:	2011      	movs	r0, #17
ffff5b7a:	e61d      	b.n	ffff57b8 <alt_clk_freq_get+0x174>
ffff5b7c:	2e02      	cmp	r6, #2
ffff5b7e:	d002      	beq.n	ffff5b86 <alt_clk_freq_get+0x542>
ffff5b80:	f04f 30ff 	mov.w	r0, #4294967295
ffff5b84:	e5da      	b.n	ffff573c <alt_clk_freq_get+0xf8>
ffff5b86:	a901      	add	r1, sp, #4
ffff5b88:	200a      	movs	r0, #10
ffff5b8a:	f7ff fbf1 	bl	ffff5370 <alt_clk_pll_vco_freq_get>
ffff5b8e:	2800      	cmp	r0, #0
ffff5b90:	f47f add4 	bne.w	ffff573c <alt_clk_freq_get+0xf8>
ffff5b94:	4606      	mov	r6, r0
ffff5b96:	9f01      	ldr	r7, [sp, #4]
ffff5b98:	a901      	add	r1, sp, #4
ffff5b9a:	2028      	movs	r0, #40	; 0x28
ffff5b9c:	e60c      	b.n	ffff57b8 <alt_clk_freq_get+0x174>
ffff5b9e:	2404      	movs	r4, #4
ffff5ba0:	4b28      	ldr	r3, [pc, #160]	; (ffff5c44 <alt_clk_freq_get+0x600>)
ffff5ba2:	2500      	movs	r5, #0
ffff5ba4:	681e      	ldr	r6, [r3, #0]
ffff5ba6:	f3c6 0681 	ubfx	r6, r6, #2, #2
ffff5baa:	9601      	str	r6, [sp, #4]
ffff5bac:	b96e      	cbnz	r6, ffff5bca <alt_clk_freq_get+0x586>
ffff5bae:	4b24      	ldr	r3, [pc, #144]	; (ffff5c40 <alt_clk_freq_get+0x5fc>)
ffff5bb0:	6a1f      	ldr	r7, [r3, #32]
ffff5bb2:	4622      	mov	r2, r4
ffff5bb4:	462b      	mov	r3, r5
ffff5bb6:	4638      	mov	r0, r7
ffff5bb8:	4631      	mov	r1, r6
ffff5bba:	f000 e986 	blx	ffff5ec8 <__aeabi_uldivmod>
ffff5bbe:	f8c8 0000 	str.w	r0, [r8]
ffff5bc2:	2000      	movs	r0, #0
ffff5bc4:	e5ba      	b.n	ffff573c <alt_clk_freq_get+0xf8>
ffff5bc6:	2401      	movs	r4, #1
ffff5bc8:	e7ea      	b.n	ffff5ba0 <alt_clk_freq_get+0x55c>
ffff5bca:	2e01      	cmp	r6, #1
ffff5bcc:	d113      	bne.n	ffff5bf6 <alt_clk_freq_get+0x5b2>
ffff5bce:	a901      	add	r1, sp, #4
ffff5bd0:	2009      	movs	r0, #9
ffff5bd2:	f7ff fbcd 	bl	ffff5370 <alt_clk_pll_vco_freq_get>
ffff5bd6:	2800      	cmp	r0, #0
ffff5bd8:	f47f adb0 	bne.w	ffff573c <alt_clk_freq_get+0xf8>
ffff5bdc:	9f01      	ldr	r7, [sp, #4]
ffff5bde:	4606      	mov	r6, r0
ffff5be0:	a901      	add	r1, sp, #4
ffff5be2:	2011      	movs	r0, #17
ffff5be4:	f7ff fc66 	bl	ffff54b4 <alt_clk_divider_get>
ffff5be8:	9b01      	ldr	r3, [sp, #4]
ffff5bea:	fb03 f205 	mul.w	r2, r3, r5
ffff5bee:	fba4 4503 	umull	r4, r5, r4, r3
ffff5bf2:	4415      	add	r5, r2
ffff5bf4:	e650      	b.n	ffff5898 <alt_clk_freq_get+0x254>
ffff5bf6:	2e02      	cmp	r6, #2
ffff5bf8:	d1c2      	bne.n	ffff5b80 <alt_clk_freq_get+0x53c>
ffff5bfa:	a901      	add	r1, sp, #4
ffff5bfc:	200a      	movs	r0, #10
ffff5bfe:	f7ff fbb7 	bl	ffff5370 <alt_clk_pll_vco_freq_get>
ffff5c02:	2800      	cmp	r0, #0
ffff5c04:	f47f ad9a 	bne.w	ffff573c <alt_clk_freq_get+0xf8>
ffff5c08:	4606      	mov	r6, r0
ffff5c0a:	9f01      	ldr	r7, [sp, #4]
ffff5c0c:	a901      	add	r1, sp, #4
ffff5c0e:	2028      	movs	r0, #40	; 0x28
ffff5c10:	e7e8      	b.n	ffff5be4 <alt_clk_freq_get+0x5a0>
ffff5c12:	4b0c      	ldr	r3, [pc, #48]	; (ffff5c44 <alt_clk_freq_get+0x600>)
ffff5c14:	681e      	ldr	r6, [r3, #0]
ffff5c16:	f3c6 1601 	ubfx	r6, r6, #4, #2
ffff5c1a:	9601      	str	r6, [sp, #4]
ffff5c1c:	2e00      	cmp	r6, #0
ffff5c1e:	d09c      	beq.n	ffff5b5a <alt_clk_freq_get+0x516>
ffff5c20:	2e01      	cmp	r6, #1
ffff5c22:	d111      	bne.n	ffff5c48 <alt_clk_freq_get+0x604>
ffff5c24:	a901      	add	r1, sp, #4
ffff5c26:	2009      	movs	r0, #9
ffff5c28:	f7ff fba2 	bl	ffff5370 <alt_clk_pll_vco_freq_get>
ffff5c2c:	2800      	cmp	r0, #0
ffff5c2e:	f47f ad85 	bne.w	ffff573c <alt_clk_freq_get+0xf8>
ffff5c32:	4606      	mov	r6, r0
ffff5c34:	9f01      	ldr	r7, [sp, #4]
ffff5c36:	a901      	add	r1, sp, #4
ffff5c38:	2010      	movs	r0, #16
ffff5c3a:	e5bd      	b.n	ffff57b8 <alt_clk_freq_get+0x174>
ffff5c3c:	ffd04010 	.word	0xffd04010
ffff5c40:	ffff78f4 	.word	0xffff78f4
ffff5c44:	ffd040ac 	.word	0xffd040ac
ffff5c48:	2e02      	cmp	r6, #2
ffff5c4a:	d199      	bne.n	ffff5b80 <alt_clk_freq_get+0x53c>
ffff5c4c:	a901      	add	r1, sp, #4
ffff5c4e:	200a      	movs	r0, #10
ffff5c50:	f7ff fb8e 	bl	ffff5370 <alt_clk_pll_vco_freq_get>
ffff5c54:	2800      	cmp	r0, #0
ffff5c56:	f47f ad71 	bne.w	ffff573c <alt_clk_freq_get+0xf8>
ffff5c5a:	4606      	mov	r6, r0
ffff5c5c:	9f01      	ldr	r7, [sp, #4]
ffff5c5e:	a901      	add	r1, sp, #4
ffff5c60:	2027      	movs	r0, #39	; 0x27
ffff5c62:	e5a9      	b.n	ffff57b8 <alt_clk_freq_get+0x174>
ffff5c64:	a901      	add	r1, sp, #4
ffff5c66:	200b      	movs	r0, #11
ffff5c68:	f7ff fb82 	bl	ffff5370 <alt_clk_pll_vco_freq_get>
ffff5c6c:	2800      	cmp	r0, #0
ffff5c6e:	f47f ad65 	bne.w	ffff573c <alt_clk_freq_get+0xf8>
ffff5c72:	4606      	mov	r6, r0
ffff5c74:	9f01      	ldr	r7, [sp, #4]
ffff5c76:	a901      	add	r1, sp, #4
ffff5c78:	2037      	movs	r0, #55	; 0x37
ffff5c7a:	e59d      	b.n	ffff57b8 <alt_clk_freq_get+0x174>
ffff5c7c:	a901      	add	r1, sp, #4
ffff5c7e:	200b      	movs	r0, #11
ffff5c80:	f7ff fb76 	bl	ffff5370 <alt_clk_pll_vco_freq_get>
ffff5c84:	2800      	cmp	r0, #0
ffff5c86:	f47f ad59 	bne.w	ffff573c <alt_clk_freq_get+0xf8>
ffff5c8a:	4606      	mov	r6, r0
ffff5c8c:	9f01      	ldr	r7, [sp, #4]
ffff5c8e:	a901      	add	r1, sp, #4
ffff5c90:	2038      	movs	r0, #56	; 0x38
ffff5c92:	e591      	b.n	ffff57b8 <alt_clk_freq_get+0x174>
ffff5c94:	a901      	add	r1, sp, #4
ffff5c96:	200b      	movs	r0, #11
ffff5c98:	f7ff fb6a 	bl	ffff5370 <alt_clk_pll_vco_freq_get>
ffff5c9c:	2800      	cmp	r0, #0
ffff5c9e:	f47f ad4d 	bne.w	ffff573c <alt_clk_freq_get+0xf8>
ffff5ca2:	4606      	mov	r6, r0
ffff5ca4:	9f01      	ldr	r7, [sp, #4]
ffff5ca6:	a901      	add	r1, sp, #4
ffff5ca8:	2039      	movs	r0, #57	; 0x39
ffff5caa:	e585      	b.n	ffff57b8 <alt_clk_freq_get+0x174>
ffff5cac:	a901      	add	r1, sp, #4
ffff5cae:	200b      	movs	r0, #11
ffff5cb0:	f7ff fb5e 	bl	ffff5370 <alt_clk_pll_vco_freq_get>
ffff5cb4:	2800      	cmp	r0, #0
ffff5cb6:	f47f ad41 	bne.w	ffff573c <alt_clk_freq_get+0xf8>
ffff5cba:	4606      	mov	r6, r0
ffff5cbc:	9f01      	ldr	r7, [sp, #4]
ffff5cbe:	a901      	add	r1, sp, #4
ffff5cc0:	203c      	movs	r0, #60	; 0x3c
ffff5cc2:	e579      	b.n	ffff57b8 <alt_clk_freq_get+0x174>
ffff5cc4:	f06f 0008 	mvn.w	r0, #8
ffff5cc8:	e538      	b.n	ffff573c <alt_clk_freq_get+0xf8>
ffff5cca:	bf00      	nop

ffff5ccc <get_current_cpu_num>:
ffff5ccc:	ee10 0fb0 	mrc	15, 0, r0, cr0, cr0, {5}
ffff5cd0:	b2c0      	uxtb	r0, r0
ffff5cd2:	4770      	bx	lr

ffff5cd4 <alt_int_handler_irq>:
ffff5cd4:	b570      	push	{r4, r5, r6, lr}
ffff5cd6:	4c0e      	ldr	r4, [pc, #56]	; (ffff5d10 <alt_int_handler_irq+0x3c>)
ffff5cd8:	6822      	ldr	r2, [r4, #0]
ffff5cda:	68d6      	ldr	r6, [r2, #12]
ffff5cdc:	f3c6 0509 	ubfx	r5, r6, #0, #10
ffff5ce0:	2dff      	cmp	r5, #255	; 0xff
ffff5ce2:	d80b      	bhi.n	ffff5cfc <alt_int_handler_irq+0x28>
ffff5ce4:	4b0b      	ldr	r3, [pc, #44]	; (ffff5d14 <alt_int_handler_irq+0x40>)
ffff5ce6:	f853 2035 	ldr.w	r2, [r3, r5, lsl #3]
ffff5cea:	b122      	cbz	r2, ffff5cf6 <alt_int_handler_irq+0x22>
ffff5cec:	eb03 05c5 	add.w	r5, r3, r5, lsl #3
ffff5cf0:	4630      	mov	r0, r6
ffff5cf2:	6869      	ldr	r1, [r5, #4]
ffff5cf4:	4790      	blx	r2
ffff5cf6:	6823      	ldr	r3, [r4, #0]
ffff5cf8:	611e      	str	r6, [r3, #16]
ffff5cfa:	bd70      	pop	{r4, r5, r6, pc}
ffff5cfc:	4806      	ldr	r0, [pc, #24]	; (ffff5d18 <alt_int_handler_irq+0x44>)
ffff5cfe:	f7fa fa96 	bl	ffff022e <puts>
ffff5d02:	4628      	mov	r0, r5
ffff5d04:	f7fa fa54 	bl	ffff01b0 <putHexa32>
ffff5d08:	4804      	ldr	r0, [pc, #16]	; (ffff5d1c <alt_int_handler_irq+0x48>)
ffff5d0a:	f7fa fa90 	bl	ffff022e <puts>
ffff5d0e:	e7f2      	b.n	ffff5cf6 <alt_int_handler_irq+0x22>
ffff5d10:	ffff8264 	.word	0xffff8264
ffff5d14:	ffff8268 	.word	0xffff8268
ffff5d18:	ffff714b 	.word	0xffff714b
ffff5d1c:	ffff7588 	.word	0xffff7588

ffff5d20 <__aeabi_uidiv>:
ffff5d20:	e2512001 	subs	r2, r1, #1
ffff5d24:	012fff1e 	bxeq	lr
ffff5d28:	3a000062 	bcc	ffff5eb8 <Ldiv0>
ffff5d2c:	e1500001 	cmp	r0, r1
ffff5d30:	9a00001a 	bls	ffff5da0 <__aeabi_uidiv+0x80>
ffff5d34:	e1110002 	tst	r1, r2
ffff5d38:	0a00001b 	beq	ffff5dac <__aeabi_uidiv+0x8c>
ffff5d3c:	e16f3f11 	clz	r3, r1
ffff5d40:	e16f2f10 	clz	r2, r0
ffff5d44:	e0432002 	sub	r2, r3, r2
ffff5d48:	e3a03001 	mov	r3, #1
ffff5d4c:	e1a01211 	lsl	r1, r1, r2
ffff5d50:	e1a03213 	lsl	r3, r3, r2
ffff5d54:	e3a02000 	mov	r2, #0
ffff5d58:	e1500001 	cmp	r0, r1
ffff5d5c:	20400001 	subcs	r0, r0, r1
ffff5d60:	21822003 	orrcs	r2, r2, r3
ffff5d64:	e15000a1 	cmp	r0, r1, lsr #1
ffff5d68:	204000a1 	subcs	r0, r0, r1, lsr #1
ffff5d6c:	218220a3 	orrcs	r2, r2, r3, lsr #1
ffff5d70:	e1500121 	cmp	r0, r1, lsr #2
ffff5d74:	20400121 	subcs	r0, r0, r1, lsr #2
ffff5d78:	21822123 	orrcs	r2, r2, r3, lsr #2
ffff5d7c:	e15001a1 	cmp	r0, r1, lsr #3
ffff5d80:	204001a1 	subcs	r0, r0, r1, lsr #3
ffff5d84:	218221a3 	orrcs	r2, r2, r3, lsr #3
ffff5d88:	e3500000 	cmp	r0, #0
ffff5d8c:	11b03223 	lsrsne	r3, r3, #4
ffff5d90:	11a01221 	lsrne	r1, r1, #4
ffff5d94:	1affffef 	bne	ffff5d58 <__aeabi_uidiv+0x38>
ffff5d98:	e1a00002 	mov	r0, r2
ffff5d9c:	e12fff1e 	bx	lr
ffff5da0:	03a00001 	moveq	r0, #1
ffff5da4:	13a00000 	movne	r0, #0
ffff5da8:	e12fff1e 	bx	lr
ffff5dac:	e16f2f11 	clz	r2, r1
ffff5db0:	e262201f 	rsb	r2, r2, #31
ffff5db4:	e1a00230 	lsr	r0, r0, r2
ffff5db8:	e12fff1e 	bx	lr

ffff5dbc <__aeabi_idiv>:
ffff5dbc:	e3510000 	cmp	r1, #0
ffff5dc0:	e020c001 	eor	ip, r0, r1
ffff5dc4:	0a00003b 	beq	ffff5eb8 <Ldiv0>
ffff5dc8:	42611000 	rsbmi	r1, r1, #0
ffff5dcc:	e2512001 	subs	r2, r1, #1
ffff5dd0:	0a00001f 	beq	ffff5e54 <__aeabi_idiv+0x98>
ffff5dd4:	e1b03000 	movs	r3, r0
ffff5dd8:	42603000 	rsbmi	r3, r0, #0
ffff5ddc:	e1530001 	cmp	r3, r1
ffff5de0:	9a00001e 	bls	ffff5e60 <__aeabi_idiv+0xa4>
ffff5de4:	e1110002 	tst	r1, r2
ffff5de8:	0a000020 	beq	ffff5e70 <__aeabi_idiv+0xb4>
ffff5dec:	e16f2f11 	clz	r2, r1
ffff5df0:	e16f0f13 	clz	r0, r3
ffff5df4:	e0420000 	sub	r0, r2, r0
ffff5df8:	e3a02001 	mov	r2, #1
ffff5dfc:	e1a01011 	lsl	r1, r1, r0
ffff5e00:	e1a02012 	lsl	r2, r2, r0
ffff5e04:	e3a00000 	mov	r0, #0
ffff5e08:	e1530001 	cmp	r3, r1
ffff5e0c:	20433001 	subcs	r3, r3, r1
ffff5e10:	21800002 	orrcs	r0, r0, r2
ffff5e14:	e15300a1 	cmp	r3, r1, lsr #1
ffff5e18:	204330a1 	subcs	r3, r3, r1, lsr #1
ffff5e1c:	218000a2 	orrcs	r0, r0, r2, lsr #1
ffff5e20:	e1530121 	cmp	r3, r1, lsr #2
ffff5e24:	20433121 	subcs	r3, r3, r1, lsr #2
ffff5e28:	21800122 	orrcs	r0, r0, r2, lsr #2
ffff5e2c:	e15301a1 	cmp	r3, r1, lsr #3
ffff5e30:	204331a1 	subcs	r3, r3, r1, lsr #3
ffff5e34:	218001a2 	orrcs	r0, r0, r2, lsr #3
ffff5e38:	e3530000 	cmp	r3, #0
ffff5e3c:	11b02222 	lsrsne	r2, r2, #4
ffff5e40:	11a01221 	lsrne	r1, r1, #4
ffff5e44:	1affffef 	bne	ffff5e08 <__aeabi_idiv+0x4c>
ffff5e48:	e35c0000 	cmp	ip, #0
ffff5e4c:	42600000 	rsbmi	r0, r0, #0
ffff5e50:	e12fff1e 	bx	lr
ffff5e54:	e13c0000 	teq	ip, r0
ffff5e58:	42600000 	rsbmi	r0, r0, #0
ffff5e5c:	e12fff1e 	bx	lr
ffff5e60:	33a00000 	movcc	r0, #0
ffff5e64:	01a00fcc 	asreq	r0, ip, #31
ffff5e68:	03800001 	orreq	r0, r0, #1
ffff5e6c:	e12fff1e 	bx	lr
ffff5e70:	e16f2f11 	clz	r2, r1
ffff5e74:	e262201f 	rsb	r2, r2, #31
ffff5e78:	e35c0000 	cmp	ip, #0
ffff5e7c:	e1a00233 	lsr	r0, r3, r2
ffff5e80:	42600000 	rsbmi	r0, r0, #0
ffff5e84:	e12fff1e 	bx	lr

ffff5e88 <__aeabi_uidivmod>:
ffff5e88:	e92d5003 	push	{r0, r1, ip, lr}
ffff5e8c:	ebffffa3 	bl	ffff5d20 <__aeabi_uidiv>
ffff5e90:	e8bd5006 	pop	{r1, r2, ip, lr}
ffff5e94:	e0030290 	mul	r3, r0, r2
ffff5e98:	e0411003 	sub	r1, r1, r3
ffff5e9c:	e12fff1e 	bx	lr

ffff5ea0 <__aeabi_idivmod>:
ffff5ea0:	e92d5003 	push	{r0, r1, ip, lr}
ffff5ea4:	ebffffc4 	bl	ffff5dbc <__aeabi_idiv>
ffff5ea8:	e8bd5006 	pop	{r1, r2, ip, lr}
ffff5eac:	e0030290 	mul	r3, r0, r2
ffff5eb0:	e0411003 	sub	r1, r1, r3
ffff5eb4:	e12fff1e 	bx	lr

ffff5eb8 <Ldiv0>:
ffff5eb8:	e52de008 	str	lr, [sp, #-8]!
ffff5ebc:	fa000063 	blx	ffff6050 <__div0>
ffff5ec0:	e3a00000 	mov	r0, #0
ffff5ec4:	e49df008 	ldr	pc, [sp], #8

ffff5ec8 <__aeabi_uldivmod>:
ffff5ec8:	e92d41f0 	push	{r4, r5, r6, r7, r8, lr}
ffff5ecc:	e192c003 	orrs	ip, r2, r3
ffff5ed0:	0a000058 	beq	ffff6038 <L_div_by_0>
ffff5ed4:	e2524001 	subs	r4, r2, #1
ffff5ed8:	e2c35000 	sbc	r5, r3, #0
ffff5edc:	e1140002 	tst	r4, r2
ffff5ee0:	01130005 	tsteq	r3, r5
ffff5ee4:	0a000036 	beq	ffff5fc4 <L_pow2>
ffff5ee8:	e191c003 	orrs	ip, r1, r3
ffff5eec:	0a00002e 	beq	ffff5fac <L_div_32_32>

ffff5ef0 <L_div_64_64>:
ffff5ef0:	e3a04001 	mov	r4, #1
ffff5ef4:	e3a05000 	mov	r5, #0
ffff5ef8:	e3a06000 	mov	r6, #0
ffff5efc:	e3a07000 	mov	r7, #0

ffff5f00 <L_lsl_4>:
ffff5f00:	e3530201 	cmp	r3, #268435456	; 0x10000000
ffff5f04:	31530001 	cmpcc	r3, r1
ffff5f08:	01520000 	cmpeq	r2, r0
ffff5f0c:	2a000006 	bcs	ffff5f2c <L_lsl_1>
ffff5f10:	e1a03203 	lsl	r3, r3, #4
ffff5f14:	e1833e22 	orr	r3, r3, r2, lsr #28
ffff5f18:	e1a02202 	lsl	r2, r2, #4
ffff5f1c:	e1a05205 	lsl	r5, r5, #4
ffff5f20:	e1855e24 	orr	r5, r5, r4, lsr #28
ffff5f24:	e1a04204 	lsl	r4, r4, #4
ffff5f28:	eafffff4 	b	ffff5f00 <L_lsl_4>

ffff5f2c <L_lsl_1>:
ffff5f2c:	e3530102 	cmp	r3, #-2147483648	; 0x80000000
ffff5f30:	31530001 	cmpcc	r3, r1
ffff5f34:	01520000 	cmpeq	r2, r0
ffff5f38:	2a000006 	bcs	ffff5f58 <L_subtract>
ffff5f3c:	e1a03083 	lsl	r3, r3, #1
ffff5f40:	e1833fa2 	orr	r3, r3, r2, lsr #31
ffff5f44:	e1a02082 	lsl	r2, r2, #1
ffff5f48:	e1a05085 	lsl	r5, r5, #1
ffff5f4c:	e1855fa4 	orr	r5, r5, r4, lsr #31
ffff5f50:	e1a04084 	lsl	r4, r4, #1
ffff5f54:	eafffff4 	b	ffff5f2c <L_lsl_1>

ffff5f58 <L_subtract>:
ffff5f58:	e1510003 	cmp	r1, r3
ffff5f5c:	01500002 	cmpeq	r0, r2
ffff5f60:	3a000003 	bcc	ffff5f74 <L_update>
ffff5f64:	e0500002 	subs	r0, r0, r2
ffff5f68:	e0c11003 	sbc	r1, r1, r3
ffff5f6c:	e1866004 	orr	r6, r6, r4
ffff5f70:	e1877005 	orr	r7, r7, r5

ffff5f74 <L_update>:
ffff5f74:	e191c000 	orrs	ip, r1, r0
ffff5f78:	0a000006 	beq	ffff5f98 <L_exit>
ffff5f7c:	e1b050a5 	lsrs	r5, r5, #1
ffff5f80:	e1b04064 	rrxs	r4, r4
ffff5f84:	e195c004 	orrs	ip, r5, r4
ffff5f88:	0a000002 	beq	ffff5f98 <L_exit>
ffff5f8c:	e1b030a3 	lsrs	r3, r3, #1
ffff5f90:	e1a02062 	rrx	r2, r2
ffff5f94:	eaffffef 	b	ffff5f58 <L_subtract>

ffff5f98 <L_exit>:
ffff5f98:	e1a02000 	mov	r2, r0
ffff5f9c:	e1a03001 	mov	r3, r1
ffff5fa0:	e1a00006 	mov	r0, r6
ffff5fa4:	e1a01007 	mov	r1, r7
ffff5fa8:	e8bd81f0 	pop	{r4, r5, r6, r7, r8, pc}

ffff5fac <L_div_32_32>:
ffff5fac:	e1a01002 	mov	r1, r2
ffff5fb0:	ebffffb4 	bl	ffff5e88 <__aeabi_uidivmod>
ffff5fb4:	e1a02001 	mov	r2, r1
ffff5fb8:	e3a03000 	mov	r3, #0
ffff5fbc:	e3a01000 	mov	r1, #0
ffff5fc0:	e8bd81f0 	pop	{r4, r5, r6, r7, r8, pc}

ffff5fc4 <L_pow2>:
ffff5fc4:	e0004004 	and	r4, r0, r4
ffff5fc8:	e0015005 	and	r5, r1, r5
ffff5fcc:	e3a06000 	mov	r6, #0
ffff5fd0:	e1922002 	orrs	r2, r2, r2
ffff5fd4:	01a00001 	moveq	r0, r1
ffff5fd8:	03a01000 	moveq	r1, #0
ffff5fdc:	01a02003 	moveq	r2, r3
ffff5fe0:	e1b03802 	lsls	r3, r2, #16
ffff5fe4:	02866010 	addeq	r6, r6, #16
ffff5fe8:	01a02822 	lsreq	r2, r2, #16
ffff5fec:	e31200ff 	tst	r2, #255	; 0xff
ffff5ff0:	02866008 	addeq	r6, r6, #8
ffff5ff4:	01a02422 	lsreq	r2, r2, #8
ffff5ff8:	e312000f 	tst	r2, #15
ffff5ffc:	02866004 	addeq	r6, r6, #4
ffff6000:	01a02222 	lsreq	r2, r2, #4
ffff6004:	e3120003 	tst	r2, #3
ffff6008:	02866002 	addeq	r6, r6, #2
ffff600c:	01a02122 	lsreq	r2, r2, #2
ffff6010:	e3120001 	tst	r2, #1
ffff6014:	02866001 	addeq	r6, r6, #1
ffff6018:	e2667020 	rsb	r7, r6, #32
ffff601c:	e1a00630 	lsr	r0, r0, r6
ffff6020:	e1a01711 	lsl	r1, r1, r7
ffff6024:	e1800001 	orr	r0, r0, r1
ffff6028:	e1a01631 	lsr	r1, r1, r6
ffff602c:	e1a02004 	mov	r2, r4
ffff6030:	e1a03005 	mov	r3, r5
ffff6034:	e8bd81f0 	pop	{r4, r5, r6, r7, r8, pc}

ffff6038 <L_div_by_0>:
ffff6038:	fa000004 	blx	ffff6050 <__div0>
ffff603c:	e3a00000 	mov	r0, #0
ffff6040:	e3a01000 	mov	r1, #0
ffff6044:	e3a02000 	mov	r2, #0
ffff6048:	e3a03000 	mov	r3, #0
ffff604c:	e8bd81f0 	pop	{r4, r5, r6, r7, r8, pc}

ffff6050 <__div0>:
ffff6050:	f7fa bd62 	b.w	ffff0b18 <hang>
	...

ffff6060 <memset>:
ffff6060:	f010 0303 	ands.w	r3, r0, #3
ffff6064:	4684      	mov	ip, r0
ffff6066:	d13d      	bne.n	ffff60e4 <memset+0x84>
ffff6068:	ea41 2101 	orr.w	r1, r1, r1, lsl #8
ffff606c:	ea41 4101 	orr.w	r1, r1, r1, lsl #16
ffff6070:	460b      	mov	r3, r1
ffff6072:	2a10      	cmp	r2, #16
ffff6074:	db1f      	blt.n	ffff60b6 <memset+0x56>
ffff6076:	e92d 4100 	stmdb	sp!, {r8, lr}
ffff607a:	4688      	mov	r8, r1
ffff607c:	468e      	mov	lr, r1
ffff607e:	3a40      	subs	r2, #64	; 0x40
ffff6080:	bfa1      	itttt	ge
ffff6082:	e8ac 410a 	stmiage.w	ip!, {r1, r3, r8, lr}
ffff6086:	e8ac 410a 	stmiage.w	ip!, {r1, r3, r8, lr}
ffff608a:	e8ac 410a 	stmiage.w	ip!, {r1, r3, r8, lr}
ffff608e:	e8ac 410a 	stmiage.w	ip!, {r1, r3, r8, lr}
ffff6092:	dcf4      	bgt.n	ffff607e <memset+0x1e>
ffff6094:	bf08      	it	eq
ffff6096:	e8bd 8100 	ldmiaeq.w	sp!, {r8, pc}
ffff609a:	f012 0f20 	tst.w	r2, #32
ffff609e:	bf1c      	itt	ne
ffff60a0:	e8ac 410a 	stmiane.w	ip!, {r1, r3, r8, lr}
ffff60a4:	e8ac 410a 	stmiane.w	ip!, {r1, r3, r8, lr}
ffff60a8:	f012 0f10 	tst.w	r2, #16
ffff60ac:	bf18      	it	ne
ffff60ae:	e8ac 410a 	stmiane.w	ip!, {r1, r3, r8, lr}
ffff60b2:	e8bd 4100 	ldmia.w	sp!, {r8, lr}
ffff60b6:	f012 0f08 	tst.w	r2, #8
ffff60ba:	bf18      	it	ne
ffff60bc:	e8ac 000a 	stmiane.w	ip!, {r1, r3}
ffff60c0:	f012 0f04 	tst.w	r2, #4
ffff60c4:	bf18      	it	ne
ffff60c6:	f84c 1b04 	strne.w	r1, [ip], #4
ffff60ca:	f012 0f02 	tst.w	r2, #2
ffff60ce:	bf1c      	itt	ne
ffff60d0:	f80c 1b01 	strbne.w	r1, [ip], #1
ffff60d4:	f80c 1b01 	strbne.w	r1, [ip], #1
ffff60d8:	f012 0f01 	tst.w	r2, #1
ffff60dc:	bf18      	it	ne
ffff60de:	f80c 1b01 	strbne.w	r1, [ip], #1
ffff60e2:	4770      	bx	lr
ffff60e4:	3a04      	subs	r2, #4
ffff60e6:	dbf0      	blt.n	ffff60ca <memset+0x6a>
ffff60e8:	2b02      	cmp	r3, #2
ffff60ea:	bfb8      	it	lt
ffff60ec:	f80c 1b01 	strblt.w	r1, [ip], #1
ffff60f0:	bfd8      	it	le
ffff60f2:	f80c 1b01 	strble.w	r1, [ip], #1
ffff60f6:	f80c 1b01 	strb.w	r1, [ip], #1
ffff60fa:	441a      	add	r2, r3
ffff60fc:	e7b4      	b.n	ffff6068 <memset+0x8>
ffff60fe:	bf00      	nop

ffff6100 <__div64_32>:
ffff6100:	e92d 41f0 	stmdb	sp!, {r4, r5, r6, r7, r8, lr}
ffff6104:	4680      	mov	r8, r0
ffff6106:	460c      	mov	r4, r1
ffff6108:	e9d0 7600 	ldrd	r7, r6, [r0]
ffff610c:	2500      	movs	r5, #0
ffff610e:	42b1      	cmp	r1, r6
ffff6110:	d831      	bhi.n	ffff6176 <__div64_32+0x76>
ffff6112:	4630      	mov	r0, r6
ffff6114:	f7ff ee04 	blx	ffff5d20 <__aeabi_uidiv>
ffff6118:	fb00 6614 	mls	r6, r0, r4, r6
ffff611c:	46ac      	mov	ip, r5
ffff611e:	2301      	movs	r3, #1
ffff6120:	2200      	movs	r2, #0
ffff6122:	e003      	b.n	ffff612c <__div64_32+0x2c>
ffff6124:	1924      	adds	r4, r4, r4
ffff6126:	416d      	adcs	r5, r5
ffff6128:	18db      	adds	r3, r3, r3
ffff612a:	4152      	adcs	r2, r2
ffff612c:	2c01      	cmp	r4, #1
ffff612e:	f175 0100 	sbcs.w	r1, r5, #0
ffff6132:	db03      	blt.n	ffff613c <__div64_32+0x3c>
ffff6134:	42bc      	cmp	r4, r7
ffff6136:	eb75 0106 	sbcs.w	r1, r5, r6
ffff613a:	d3f3      	bcc.n	ffff6124 <__div64_32+0x24>
ffff613c:	42a7      	cmp	r7, r4
ffff613e:	eb76 0105 	sbcs.w	r1, r6, r5
ffff6142:	d307      	bcc.n	ffff6154 <__div64_32+0x54>
ffff6144:	1b3f      	subs	r7, r7, r4
ffff6146:	eb66 0605 	sbc.w	r6, r6, r5
ffff614a:	eb1c 0103 	adds.w	r1, ip, r3
ffff614e:	468c      	mov	ip, r1
ffff6150:	eb40 0002 	adc.w	r0, r0, r2
ffff6154:	085b      	lsrs	r3, r3, #1
ffff6156:	0864      	lsrs	r4, r4, #1
ffff6158:	ea43 73c2 	orr.w	r3, r3, r2, lsl #31
ffff615c:	0852      	lsrs	r2, r2, #1
ffff615e:	ea44 74c5 	orr.w	r4, r4, r5, lsl #31
ffff6162:	ea53 0102 	orrs.w	r1, r3, r2
ffff6166:	ea4f 0555 	mov.w	r5, r5, lsr #1
ffff616a:	d1e7      	bne.n	ffff613c <__div64_32+0x3c>
ffff616c:	e9c8 c000 	strd	ip, r0, [r8]
ffff6170:	4638      	mov	r0, r7
ffff6172:	e8bd 81f0 	ldmia.w	sp!, {r4, r5, r6, r7, r8, pc}
ffff6176:	46ac      	mov	ip, r5
ffff6178:	4628      	mov	r0, r5
ffff617a:	e7d0      	b.n	ffff611e <__div64_32+0x1e>
