
SdRamExec.o:     file format elf32-littlearm


Disassembly of section .text:

00000000 <__image_copy_start>:
       0:	ea00000f 	b	44 <reset_SdRamPart>
       4:	e59ff014 	ldr	pc, [pc, #20]	; 20 <_undefined_instruction_SdRamPart>
       8:	e59ff014 	ldr	pc, [pc, #20]	; 24 <_software_interrupt_SdRamPart>
       c:	e59ff014 	ldr	pc, [pc, #20]	; 28 <_prefetch_abort_SdRamPart>
      10:	e59ff014 	ldr	pc, [pc, #20]	; 2c <_data_abort_SdRamPart>
      14:	e59ff014 	ldr	pc, [pc, #20]	; 30 <_not_used_SdRamPart>
      18:	e59ff014 	ldr	pc, [pc, #20]	; 34 <_irq_SdRamPart>
      1c:	e59ff014 	ldr	pc, [pc, #20]	; 38 <_fiq_SdRamPart>

00000020 <_undefined_instruction_SdRamPart>:
      20:	00000040 	.word	0x00000040

00000024 <_software_interrupt_SdRamPart>:
      24:	00000040 	.word	0x00000040

00000028 <_prefetch_abort_SdRamPart>:
      28:	00000040 	.word	0x00000040

0000002c <_data_abort_SdRamPart>:
      2c:	00000040 	.word	0x00000040

00000030 <_not_used_SdRamPart>:
      30:	00000040 	.word	0x00000040

00000034 <_irq_SdRamPart>:
      34:	0000010c 	.word	0x0000010c

00000038 <_fiq_SdRamPart>:
      38:	00000040 	.word	0x00000040
      3c:	deadbeef 	.word	0xdeadbeef

00000040 <data_abort_SdRamPart>:
      40:	ebfffffe 	bl	40 <data_abort_SdRamPart>

00000044 <reset_SdRamPart>:
      44:	e10f0000 	mrs	r0, CPSR
      48:	e200101f 	and	r1, r0, #31
      4c:	e331001a 	teq	r1, #26
      50:	13c0001f 	bicne	r0, r0, #31
      54:	13800013 	orrne	r0, r0, #19
      58:	e38000c0 	orr	r0, r0, #192	; 0xc0
      5c:	e129f000 	msr	CPSR_fc, r0
      60:	ee110f10 	mrc	15, 0, r0, cr1, cr0, {0}
      64:	e3c00a02 	bic	r0, r0, #8192	; 0x2000
      68:	ee010f10 	mcr	15, 0, r0, cr1, cr0, {0}
      6c:	e59f006c 	ldr	r0, [pc, #108]	; e0 <cpu_init_cp15_SdRamPart+0x54>
      70:	ee0c0f10 	mcr	15, 0, r0, cr12, cr0, {0}
      74:	eb000004 	bl	8c <cpu_init_cp15_SdRamPart>
      78:	fa000094 	blx	2d0 <SdRamMain>

0000007c <c_runtime_cpu_setup_SdRamPart>:
      7c:	ee070f15 	mcr	15, 0, r0, cr7, cr5, {0}
      80:	ee070f9a 	mcr	15, 0, r0, cr7, cr10, {4}
      84:	ee070f95 	mcr	15, 0, r0, cr7, cr5, {4}
      88:	e12fff1e 	bx	lr

0000008c <cpu_init_cp15_SdRamPart>:
      8c:	e3a00000 	mov	r0, #0
      90:	ee080f17 	mcr	15, 0, r0, cr8, cr7, {0}
      94:	ee070f15 	mcr	15, 0, r0, cr7, cr5, {0}
      98:	ee070fd5 	mcr	15, 0, r0, cr7, cr5, {6}
      9c:	ee070f9a 	mcr	15, 0, r0, cr7, cr10, {4}
      a0:	ee070f95 	mcr	15, 0, r0, cr7, cr5, {4}
      a4:	ee110f10 	mrc	15, 0, r0, cr1, cr0, {0}
      a8:	e3c00a02 	bic	r0, r0, #8192	; 0x2000
      ac:	e3c00007 	bic	r0, r0, #7
      b0:	e3800002 	orr	r0, r0, #2
      b4:	e3800b02 	orr	r0, r0, #2048	; 0x800
      b8:	e3800a01 	orr	r0, r0, #4096	; 0x1000
      bc:	ee010f10 	mcr	15, 0, r0, cr1, cr0, {0}
      c0:	e1a0500e 	mov	r5, lr
      c4:	ee101f10 	mrc	15, 0, r1, cr0, cr0, {0}
      c8:	e1a03a21 	lsr	r3, r1, #20
      cc:	e203300f 	and	r3, r3, #15
      d0:	e201400f 	and	r4, r1, #15
      d4:	e1a02203 	lsl	r2, r3, #4
      d8:	e1842002 	orr	r2, r4, r2
      dc:	e1a0f005 	mov	pc, r5
	...

00000100 <_mainSdRamPart>:
     100:	e59f0028 	ldr	r0, [pc, #40]	; 130 <UartData+0x4>
     104:	ee0c0f10 	mcr	15, 0, r0, cr12, cr0, {0}
     108:	fa000070 	blx	2d0 <SdRamMain>

0000010c <irq_SdRamPart>:
     10c:	e92d40ff 	push	{r0, r1, r2, r3, r4, r5, r6, r7, lr}
     110:	fa00104e 	blx	4250 <alt_int_handler_irq>
     114:	e8bd40ff 	pop	{r0, r1, r2, r3, r4, r5, r6, r7, lr}
     118:	e25ef004 	subs	pc, lr, #4

0000011c <lirq_SdRamPart>:
     11c:	ebfffffe 	bl	11c <lirq_SdRamPart>

00000120 <LedValue>:
     120:	01000000 	.word	0x01000000

00000124 <LedData>:
     124:	ff709000 	.word	0xff709000

00000128 <UartValue>:
     128:	00000055 	.word	0x00000055

0000012c <UartData>:
     12c:	ffc02000 	.word	0xffc02000
     130:	00000000 	.word	0x00000000

00000134 <get_ticks>:
     134:	4b07      	ldr	r3, [pc, #28]	; (154 <get_ticks+0x20>)
     136:	6858      	ldr	r0, [r3, #4]
     138:	f3bf 8f5f 	dmb	sy
     13c:	4906      	ldr	r1, [pc, #24]	; (158 <get_ticks+0x24>)
     13e:	680b      	ldr	r3, [r1, #0]
     140:	6008      	str	r0, [r1, #0]
     142:	4283      	cmp	r3, r0
     144:	4b05      	ldr	r3, [pc, #20]	; (15c <get_ticks+0x28>)
     146:	bf3e      	ittt	cc
     148:	681a      	ldrcc	r2, [r3, #0]
     14a:	f102 32ff 	addcc.w	r2, r2, #4294967295
     14e:	601a      	strcc	r2, [r3, #0]
     150:	6819      	ldr	r1, [r3, #0]
     152:	4770      	bx	lr
     154:	ffd00000 	.word	0xffd00000
     158:	0000672c 	.word	0x0000672c
     15c:	00006728 	.word	0x00006728

00000160 <putc>:
     160:	4b02      	ldr	r3, [pc, #8]	; (16c <putc+0xc>)
     162:	695a      	ldr	r2, [r3, #20]
     164:	0692      	lsls	r2, r2, #26
     166:	d5fc      	bpl.n	162 <putc+0x2>
     168:	6018      	str	r0, [r3, #0]
     16a:	4770      	bx	lr
     16c:	ffc02000 	.word	0xffc02000

00000170 <PutNible>:
     170:	4603      	mov	r3, r0
     172:	3030      	adds	r0, #48	; 0x30
     174:	b2c0      	uxtb	r0, r0
     176:	2839      	cmp	r0, #57	; 0x39
     178:	bf84      	itt	hi
     17a:	3337      	addhi	r3, #55	; 0x37
     17c:	b2d8      	uxtbhi	r0, r3
     17e:	f7ff bfef 	b.w	160 <putc>

00000182 <PutByte>:
     182:	b508      	push	{r3, lr}
     184:	4601      	mov	r1, r0
     186:	0900      	lsrs	r0, r0, #4
     188:	f7ff fff2 	bl	170 <PutNible>
     18c:	f001 000f 	and.w	r0, r1, #15
     190:	e8bd 4008 	ldmia.w	sp!, {r3, lr}
     194:	f7ff bfec 	b.w	170 <PutNible>

00000198 <putHexa32>:
     198:	b510      	push	{r4, lr}
     19a:	4604      	mov	r4, r0
     19c:	2030      	movs	r0, #48	; 0x30
     19e:	f7ff ffdf 	bl	160 <putc>
     1a2:	2078      	movs	r0, #120	; 0x78
     1a4:	f7ff ffdc 	bl	160 <putc>
     1a8:	0e20      	lsrs	r0, r4, #24
     1aa:	f7ff ffea 	bl	182 <PutByte>
     1ae:	f3c4 4007 	ubfx	r0, r4, #16, #8
     1b2:	f7ff ffe6 	bl	182 <PutByte>
     1b6:	f3c4 2007 	ubfx	r0, r4, #8, #8
     1ba:	f7ff ffe2 	bl	182 <PutByte>
     1be:	b2e0      	uxtb	r0, r4
     1c0:	e8bd 4010 	ldmia.w	sp!, {r4, lr}
     1c4:	f7ff bfdd 	b.w	182 <PutByte>

000001c8 <putHexa64>:
     1c8:	b538      	push	{r3, r4, r5, lr}
     1ca:	4604      	mov	r4, r0
     1cc:	2030      	movs	r0, #48	; 0x30
     1ce:	460d      	mov	r5, r1
     1d0:	f7ff ffc6 	bl	160 <putc>
     1d4:	2078      	movs	r0, #120	; 0x78
     1d6:	f7ff ffc3 	bl	160 <putc>
     1da:	0e08      	lsrs	r0, r1, #24
     1dc:	f7ff ffd1 	bl	182 <PutByte>
     1e0:	f3c5 4007 	ubfx	r0, r5, #16, #8
     1e4:	f7ff ffcd 	bl	182 <PutByte>
     1e8:	f3c5 2007 	ubfx	r0, r5, #8, #8
     1ec:	f7ff ffc9 	bl	182 <PutByte>
     1f0:	b2e8      	uxtb	r0, r5
     1f2:	f7ff ffc6 	bl	182 <PutByte>
     1f6:	0e20      	lsrs	r0, r4, #24
     1f8:	f7ff ffc3 	bl	182 <PutByte>
     1fc:	f3c4 4007 	ubfx	r0, r4, #16, #8
     200:	f7ff ffbf 	bl	182 <PutByte>
     204:	f3c4 2007 	ubfx	r0, r4, #8, #8
     208:	f7ff ffbb 	bl	182 <PutByte>
     20c:	b2e0      	uxtb	r0, r4
     20e:	e8bd 4038 	ldmia.w	sp!, {r3, r4, r5, lr}
     212:	f7ff bfb6 	b.w	182 <PutByte>

00000216 <puts>:
     216:	1e41      	subs	r1, r0, #1
     218:	b508      	push	{r3, lr}
     21a:	f811 0f01 	ldrb.w	r0, [r1, #1]!
     21e:	b900      	cbnz	r0, 222 <puts+0xc>
     220:	bd08      	pop	{r3, pc}
     222:	f7ff ff9d 	bl	160 <putc>
     226:	e7f8      	b.n	21a <puts+0x4>

00000228 <HexDump>:
     228:	e92d 4df3 	stmdb	sp!, {r0, r1, r4, r5, r6, r7, r8, sl, fp, lr}
     22c:	4607      	mov	r7, r0
     22e:	f8df 808c 	ldr.w	r8, [pc, #140]	; 2bc <HexDump+0x94>
     232:	f8df a08c 	ldr.w	sl, [pc, #140]	; 2c0 <HexDump+0x98>
     236:	460e      	mov	r6, r1
     238:	f04f 0b00 	mov.w	fp, #0
     23c:	45b3      	cmp	fp, r6
     23e:	d302      	bcc.n	246 <HexDump+0x1e>
     240:	b002      	add	sp, #8
     242:	e8bd 8df0 	ldmia.w	sp!, {r4, r5, r6, r7, r8, sl, fp, pc}
     246:	eb07 000b 	add.w	r0, r7, fp
     24a:	4d1e      	ldr	r5, [pc, #120]	; (2c4 <HexDump+0x9c>)
     24c:	f7ff ffa4 	bl	198 <putHexa32>
     250:	4640      	mov	r0, r8
     252:	f7ff ffe0 	bl	216 <puts>
     256:	2200      	movs	r2, #0
     258:	4629      	mov	r1, r5
     25a:	4610      	mov	r0, r2
     25c:	3201      	adds	r2, #1
     25e:	f801 0b01 	strb.w	r0, [r1], #1
     262:	2a14      	cmp	r2, #20
     264:	d1fa      	bne.n	25c <HexDump+0x34>
     266:	465c      	mov	r4, fp
     268:	42b4      	cmp	r4, r6
     26a:	d81f      	bhi.n	2ac <HexDump+0x84>
     26c:	5d3a      	ldrb	r2, [r7, r4]
     26e:	9201      	str	r2, [sp, #4]
     270:	4610      	mov	r0, r2
     272:	f7ff ff86 	bl	182 <PutByte>
     276:	2020      	movs	r0, #32
     278:	f7ff ff72 	bl	160 <putc>
     27c:	9a01      	ldr	r2, [sp, #4]
     27e:	f1a2 0120 	sub.w	r1, r2, #32
     282:	295a      	cmp	r1, #90	; 0x5a
     284:	bf88      	it	hi
     286:	222e      	movhi	r2, #46	; 0x2e
     288:	702a      	strb	r2, [r5, #0]
     28a:	3401      	adds	r4, #1
     28c:	f10b 0210 	add.w	r2, fp, #16
     290:	3501      	adds	r5, #1
     292:	4294      	cmp	r4, r2
     294:	d1e8      	bne.n	268 <HexDump+0x40>
     296:	480c      	ldr	r0, [pc, #48]	; (2c8 <HexDump+0xa0>)
     298:	46a3      	mov	fp, r4
     29a:	f7ff ffbc 	bl	216 <puts>
     29e:	4809      	ldr	r0, [pc, #36]	; (2c4 <HexDump+0x9c>)
     2a0:	f7ff ffb9 	bl	216 <puts>
     2a4:	4809      	ldr	r0, [pc, #36]	; (2cc <HexDump+0xa4>)
     2a6:	f7ff ffb6 	bl	216 <puts>
     2aa:	e7c7      	b.n	23c <HexDump+0x14>
     2ac:	4650      	mov	r0, sl
     2ae:	f7ff ffb2 	bl	216 <puts>
     2b2:	f04f 0320 	mov.w	r3, #32
     2b6:	702b      	strb	r3, [r5, #0]
     2b8:	e7e7      	b.n	28a <HexDump+0x62>
     2ba:	bf00      	nop
     2bc:	000059fc 	.word	0x000059fc
     2c0:	00005a00 	.word	0x00005a00
     2c4:	00006714 	.word	0x00006714
     2c8:	000059fd 	.word	0x000059fd
     2cc:	00005abc 	.word	0x00005abc

000002d0 <SdRamMain>:
     2d0:	e92d 45f8 	stmdb	sp!, {r3, r4, r5, r6, r7, r8, sl, lr}
     2d4:	f3bf 8f5f 	dmb	sy
     2d8:	4a46      	ldr	r2, [pc, #280]	; (3f4 <SdRamMain+0x124>)
     2da:	f04f 33ff 	mov.w	r3, #4294967295
     2de:	6013      	str	r3, [r2, #0]
     2e0:	f3bf 8f5f 	dmb	sy
     2e4:	6053      	str	r3, [r2, #4]
     2e6:	6891      	ldr	r1, [r2, #8]
     2e8:	f3bf 8f5f 	dmb	sy
     2ec:	f041 0103 	orr.w	r1, r1, #3
     2f0:	f3bf 8f5f 	dmb	sy
     2f4:	6091      	str	r1, [r2, #8]
     2f6:	2500      	movs	r5, #0
     2f8:	4a3f      	ldr	r2, [pc, #252]	; (3f8 <SdRamMain+0x128>)
     2fa:	4840      	ldr	r0, [pc, #256]	; (3fc <SdRamMain+0x12c>)
     2fc:	4f40      	ldr	r7, [pc, #256]	; (400 <SdRamMain+0x130>)
     2fe:	4e41      	ldr	r6, [pc, #260]	; (404 <SdRamMain+0x134>)
     300:	6013      	str	r3, [r2, #0]
     302:	4a41      	ldr	r2, [pc, #260]	; (408 <SdRamMain+0x138>)
     304:	6013      	str	r3, [r2, #0]
     306:	f7ff ff86 	bl	216 <puts>
     30a:	4840      	ldr	r0, [pc, #256]	; (40c <SdRamMain+0x13c>)
     30c:	f7ff ff83 	bl	216 <puts>
     310:	483f      	ldr	r0, [pc, #252]	; (410 <SdRamMain+0x140>)
     312:	f7ff ff80 	bl	216 <puts>
     316:	483f      	ldr	r0, [pc, #252]	; (414 <SdRamMain+0x144>)
     318:	f7ff ff7d 	bl	216 <puts>
     31c:	483e      	ldr	r0, [pc, #248]	; (418 <SdRamMain+0x148>)
     31e:	f7ff ff7a 	bl	216 <puts>
     322:	483e      	ldr	r0, [pc, #248]	; (41c <SdRamMain+0x14c>)
     324:	f7ff ff77 	bl	216 <puts>
     328:	483d      	ldr	r0, [pc, #244]	; (420 <SdRamMain+0x150>)
     32a:	f7ff ff74 	bl	216 <puts>
     32e:	483d      	ldr	r0, [pc, #244]	; (424 <SdRamMain+0x154>)
     330:	f7ff ff71 	bl	216 <puts>
     334:	483c      	ldr	r0, [pc, #240]	; (428 <SdRamMain+0x158>)
     336:	f7ff ff6e 	bl	216 <puts>
     33a:	483c      	ldr	r0, [pc, #240]	; (42c <SdRamMain+0x15c>)
     33c:	f7ff ff6b 	bl	216 <puts>
     340:	483b      	ldr	r0, [pc, #236]	; (430 <SdRamMain+0x160>)
     342:	f7ff ff68 	bl	216 <puts>
     346:	483b      	ldr	r0, [pc, #236]	; (434 <SdRamMain+0x164>)
     348:	f7ff ff65 	bl	216 <puts>
     34c:	483a      	ldr	r0, [pc, #232]	; (438 <SdRamMain+0x168>)
     34e:	f7ff ff62 	bl	216 <puts>
     352:	483a      	ldr	r0, [pc, #232]	; (43c <SdRamMain+0x16c>)
     354:	f7ff ff5f 	bl	216 <puts>
     358:	4839      	ldr	r0, [pc, #228]	; (440 <SdRamMain+0x170>)
     35a:	f7ff ff5c 	bl	216 <puts>
     35e:	4839      	ldr	r0, [pc, #228]	; (444 <SdRamMain+0x174>)
     360:	f7ff ff59 	bl	216 <puts>
     364:	4838      	ldr	r0, [pc, #224]	; (448 <SdRamMain+0x178>)
     366:	f7ff ff56 	bl	216 <puts>
     36a:	4838      	ldr	r0, [pc, #224]	; (44c <SdRamMain+0x17c>)
     36c:	f7ff ff53 	bl	216 <puts>
     370:	4837      	ldr	r0, [pc, #220]	; (450 <SdRamMain+0x180>)
     372:	f7ff ff50 	bl	216 <puts>
     376:	4837      	ldr	r0, [pc, #220]	; (454 <SdRamMain+0x184>)
     378:	f7ff ff4d 	bl	216 <puts>
     37c:	4836      	ldr	r0, [pc, #216]	; (458 <SdRamMain+0x188>)
     37e:	f7ff ff4a 	bl	216 <puts>
     382:	4836      	ldr	r0, [pc, #216]	; (45c <SdRamMain+0x18c>)
     384:	f7ff ff47 	bl	216 <puts>
     388:	4835      	ldr	r0, [pc, #212]	; (460 <SdRamMain+0x190>)
     38a:	f7ff ff44 	bl	216 <puts>
     38e:	4835      	ldr	r0, [pc, #212]	; (464 <SdRamMain+0x194>)
     390:	f7ff ff41 	bl	216 <puts>
     394:	4834      	ldr	r0, [pc, #208]	; (468 <SdRamMain+0x198>)
     396:	f7ff ff3e 	bl	216 <puts>
     39a:	4834      	ldr	r0, [pc, #208]	; (46c <SdRamMain+0x19c>)
     39c:	f7ff ff3b 	bl	216 <puts>
     3a0:	4833      	ldr	r0, [pc, #204]	; (470 <SdRamMain+0x1a0>)
     3a2:	f7ff ff38 	bl	216 <puts>
     3a6:	4833      	ldr	r0, [pc, #204]	; (474 <SdRamMain+0x1a4>)
     3a8:	f7ff ff35 	bl	216 <puts>
     3ac:	4819      	ldr	r0, [pc, #100]	; (414 <SdRamMain+0x144>)
     3ae:	f7ff ff32 	bl	216 <puts>
     3b2:	f000 fb33 	bl	a1c <timers_demo_main>
     3b6:	f7ff febd 	bl	134 <get_ticks>
     3ba:	4604      	mov	r4, r0
     3bc:	4688      	mov	r8, r1
     3be:	f04f 0a00 	mov.w	sl, #0
     3c2:	f7ff feb7 	bl	134 <get_ticks>
     3c6:	1a20      	subs	r0, r4, r0
     3c8:	eb68 0301 	sbc.w	r3, r8, r1
     3cc:	4287      	cmp	r7, r0
     3ce:	eb7a 0303 	sbcs.w	r3, sl, r3
     3d2:	d2f6      	bcs.n	3c2 <SdRamMain+0xf2>
     3d4:	3501      	adds	r5, #1
     3d6:	2132      	movs	r1, #50	; 0x32
     3d8:	4628      	mov	r0, r5
     3da:	f005 e9a6 	blx	5728 <__aeabi_idivmod>
     3de:	2900      	cmp	r1, #0
     3e0:	d1e9      	bne.n	3b6 <SdRamMain+0xe6>
     3e2:	f7ff fea7 	bl	134 <get_ticks>
     3e6:	f7ff feef 	bl	1c8 <putHexa64>
     3ea:	4630      	mov	r0, r6
     3ec:	f7ff ff13 	bl	216 <puts>
     3f0:	e7e1      	b.n	3b6 <SdRamMain+0xe6>
     3f2:	bf00      	nop
     3f4:	ffd00000 	.word	0xffd00000
     3f8:	00006728 	.word	0x00006728
     3fc:	00005a04 	.word	0x00005a04
     400:	004c4b3f 	.word	0x004c4b3f
     404:	00005edf 	.word	0x00005edf
     408:	0000672c 	.word	0x0000672c
     40c:	00005a16 	.word	0x00005a16
     410:	00005a34 	.word	0x00005a34
     414:	00005abc 	.word	0x00005abc
     418:	00005a5e 	.word	0x00005a5e
     41c:	00005a8e 	.word	0x00005a8e
     420:	00005abf 	.word	0x00005abf
     424:	00005aef 	.word	0x00005aef
     428:	00005b1f 	.word	0x00005b1f
     42c:	00005b4f 	.word	0x00005b4f
     430:	00005b7f 	.word	0x00005b7f
     434:	00005baf 	.word	0x00005baf
     438:	00005bdf 	.word	0x00005bdf
     43c:	00005c0f 	.word	0x00005c0f
     440:	00005c3f 	.word	0x00005c3f
     444:	00005c6f 	.word	0x00005c6f
     448:	00005c9f 	.word	0x00005c9f
     44c:	00005ccf 	.word	0x00005ccf
     450:	00005cff 	.word	0x00005cff
     454:	00005d2f 	.word	0x00005d2f
     458:	00005d5f 	.word	0x00005d5f
     45c:	00005d8f 	.word	0x00005d8f
     460:	00005dbf 	.word	0x00005dbf
     464:	00005def 	.word	0x00005def
     468:	00005e1f 	.word	0x00005e1f
     46c:	00005e4f 	.word	0x00005e4f
     470:	00005e7f 	.word	0x00005e7f
     474:	00005eaf 	.word	0x00005eaf

00000478 <hang>:
     478:	4802      	ldr	r0, [pc, #8]	; (484 <hang+0xc>)
     47a:	b508      	push	{r3, lr}
     47c:	f7ff fecb 	bl	216 <puts>
     480:	e7fe      	b.n	480 <hang+0x8>
     482:	bf00      	nop
     484:	00005f1d 	.word	0x00005f1d

00000488 <timers_demo_gp_timer_isr_callback>:
     488:	b508      	push	{r3, lr}
     48a:	2006      	movs	r0, #6
     48c:	f004 fa9e 	bl	49cc <alt_gpt_int_clear_pending>
     490:	4a11      	ldr	r2, [pc, #68]	; (4d8 <timers_demo_gp_timer_isr_callback+0x50>)
     492:	6813      	ldr	r3, [r2, #0]
     494:	3301      	adds	r3, #1
     496:	f5b3 7ffa 	cmp.w	r3, #500	; 0x1f4
     49a:	6013      	str	r3, [r2, #0]
     49c:	4b0f      	ldr	r3, [pc, #60]	; (4dc <timers_demo_gp_timer_isr_callback+0x54>)
     49e:	d911      	bls.n	4c4 <timers_demo_gp_timer_isr_callback+0x3c>
     4a0:	6819      	ldr	r1, [r3, #0]
     4a2:	3101      	adds	r1, #1
     4a4:	6019      	str	r1, [r3, #0]
     4a6:	2100      	movs	r1, #0
     4a8:	6011      	str	r1, [r2, #0]
     4aa:	4a0d      	ldr	r2, [pc, #52]	; (4e0 <timers_demo_gp_timer_isr_callback+0x58>)
     4ac:	6810      	ldr	r0, [r2, #0]
     4ae:	2801      	cmp	r0, #1
     4b0:	480c      	ldr	r0, [pc, #48]	; (4e4 <timers_demo_gp_timer_isr_callback+0x5c>)
     4b2:	bf17      	itett	ne
     4b4:	2101      	movne	r1, #1
     4b6:	6011      	streq	r1, [r2, #0]
     4b8:	6011      	strne	r1, [r2, #0]
     4ba:	f04f 7280 	movne.w	r2, #16777216	; 0x1000000
     4be:	bf0c      	ite	eq
     4c0:	6001      	streq	r1, [r0, #0]
     4c2:	6002      	strne	r2, [r0, #0]
     4c4:	681a      	ldr	r2, [r3, #0]
     4c6:	2a0a      	cmp	r2, #10
     4c8:	d904      	bls.n	4d4 <timers_demo_gp_timer_isr_callback+0x4c>
     4ca:	4a07      	ldr	r2, [pc, #28]	; (4e8 <timers_demo_gp_timer_isr_callback+0x60>)
     4cc:	2101      	movs	r1, #1
     4ce:	7011      	strb	r1, [r2, #0]
     4d0:	2200      	movs	r2, #0
     4d2:	601a      	str	r2, [r3, #0]
     4d4:	bd08      	pop	{r3, pc}
     4d6:	bf00      	nop
     4d8:	0000678c 	.word	0x0000678c
     4dc:	00006794 	.word	0x00006794
     4e0:	00006790 	.word	0x00006790
     4e4:	ff709000 	.word	0xff709000
     4e8:	00006730 	.word	0x00006730

000004ec <timers_demo_glbl_timer_isr_callback>:
     4ec:	b538      	push	{r3, r4, r5, lr}
     4ee:	4c0a      	ldr	r4, [pc, #40]	; (518 <timers_demo_glbl_timer_isr_callback+0x2c>)
     4f0:	f003 fab2 	bl	3a58 <alt_globaltmr_int_clear_pending>
     4f4:	6825      	ldr	r5, [r4, #0]
     4f6:	f003 f99b 	bl	3830 <alt_globaltmr_get64>
     4fa:	4b08      	ldr	r3, [pc, #32]	; (51c <timers_demo_glbl_timer_isr_callback+0x30>)
     4fc:	eb03 03c5 	add.w	r3, r3, r5, lsl #3
     500:	e9c3 0100 	strd	r0, r1, [r3]
     504:	6823      	ldr	r3, [r4, #0]
     506:	3301      	adds	r3, #1
     508:	2b0a      	cmp	r3, #10
     50a:	6023      	str	r3, [r4, #0]
     50c:	bf02      	ittt	eq
     50e:	4b04      	ldreq	r3, [pc, #16]	; (520 <timers_demo_glbl_timer_isr_callback+0x34>)
     510:	2201      	moveq	r2, #1
     512:	701a      	strbeq	r2, [r3, #0]
     514:	bd38      	pop	{r3, r4, r5, pc}
     516:	bf00      	nop
     518:	00006788 	.word	0x00006788
     51c:	00006738 	.word	0x00006738
     520:	00006731 	.word	0x00006731

00000524 <timers_demo_wdog0_isr_callback>:
     524:	b508      	push	{r3, lr}
     526:	2001      	movs	r0, #1
     528:	f004 feda 	bl	52e0 <alt_wdog_int_clear>
     52c:	2201      	movs	r2, #1
     52e:	4b01      	ldr	r3, [pc, #4]	; (534 <timers_demo_wdog0_isr_callback+0x10>)
     530:	701a      	strb	r2, [r3, #0]
     532:	bd08      	pop	{r3, pc}
     534:	00006732 	.word	0x00006732

00000538 <timers_demo_system_init>:
     538:	b508      	push	{r3, lr}
     53a:	4809      	ldr	r0, [pc, #36]	; (560 <timers_demo_system_init+0x28>)
     53c:	f7ff fe6b 	bl	216 <puts>
     540:	4808      	ldr	r0, [pc, #32]	; (564 <timers_demo_system_init+0x2c>)
     542:	f7ff fe68 	bl	216 <puts>
     546:	4808      	ldr	r0, [pc, #32]	; (568 <timers_demo_system_init+0x30>)
     548:	f7ff fe65 	bl	216 <puts>
     54c:	f003 fa7c 	bl	3a48 <alt_globaltmr_int_is_enabled>
     550:	b918      	cbnz	r0, 55a <timers_demo_system_init+0x22>
     552:	e8bd 4008 	ldmia.w	sp!, {r3, lr}
     556:	f003 b935 	b.w	37c4 <alt_globaltmr_init>
     55a:	2000      	movs	r0, #0
     55c:	bd08      	pop	{r3, pc}
     55e:	bf00      	nop
     560:	00005abc 	.word	0x00005abc
     564:	00006003 	.word	0x00006003
     568:	00006022 	.word	0x00006022

0000056c <timers_demo_timer0_freerun_demo>:
     56c:	b538      	push	{r3, r4, r5, lr}
     56e:	483d      	ldr	r0, [pc, #244]	; (664 <timers_demo_timer0_freerun_demo+0xf8>)
     570:	f7ff fe51 	bl	216 <puts>
     574:	483c      	ldr	r0, [pc, #240]	; (668 <timers_demo_timer0_freerun_demo+0xfc>)
     576:	f7ff fe4e 	bl	216 <puts>
     57a:	483c      	ldr	r0, [pc, #240]	; (66c <timers_demo_timer0_freerun_demo+0x100>)
     57c:	f7ff fe4b 	bl	216 <puts>
     580:	2101      	movs	r1, #1
     582:	2003      	movs	r0, #3
     584:	f004 fb22 	bl	4bcc <alt_gpt_mode_set>
     588:	4604      	mov	r4, r0
     58a:	2800      	cmp	r0, #0
     58c:	d162      	bne.n	654 <timers_demo_timer0_freerun_demo+0xe8>
     58e:	4838      	ldr	r0, [pc, #224]	; (670 <timers_demo_timer0_freerun_demo+0x104>)
     590:	f7ff fe41 	bl	216 <puts>
     594:	f44f 3180 	mov.w	r1, #65536	; 0x10000
     598:	2003      	movs	r0, #3
     59a:	f003 ff4d 	bl	4438 <alt_gpt_counter_set>
     59e:	4604      	mov	r4, r0
     5a0:	2800      	cmp	r0, #0
     5a2:	d157      	bne.n	654 <timers_demo_timer0_freerun_demo+0xe8>
     5a4:	4833      	ldr	r0, [pc, #204]	; (674 <timers_demo_timer0_freerun_demo+0x108>)
     5a6:	f7ff fe36 	bl	216 <puts>
     5aa:	2003      	movs	r0, #3
     5ac:	f003 fed8 	bl	4360 <alt_gpt_tmr_start>
     5b0:	4604      	mov	r4, r0
     5b2:	2800      	cmp	r0, #0
     5b4:	d14e      	bne.n	654 <timers_demo_timer0_freerun_demo+0xe8>
     5b6:	4830      	ldr	r0, [pc, #192]	; (678 <timers_demo_timer0_freerun_demo+0x10c>)
     5b8:	f7ff fe2d 	bl	216 <puts>
     5bc:	2003      	movs	r0, #3
     5be:	f003 ff09 	bl	43d4 <alt_gpt_tmr_is_running>
     5c2:	2801      	cmp	r0, #1
     5c4:	d148      	bne.n	658 <timers_demo_timer0_freerun_demo+0xec>
     5c6:	482d      	ldr	r0, [pc, #180]	; (67c <timers_demo_timer0_freerun_demo+0x110>)
     5c8:	f7ff fe25 	bl	216 <puts>
     5cc:	2003      	movs	r0, #3
     5ce:	f004 f93f 	bl	4850 <alt_gpt_freq_get>
     5d2:	2003      	movs	r0, #3
     5d4:	f004 f864 	bl	46a0 <alt_gpt_curtime_get>
     5d8:	4605      	mov	r5, r0
     5da:	4829      	ldr	r0, [pc, #164]	; (680 <timers_demo_timer0_freerun_demo+0x114>)
     5dc:	f7ff fe1b 	bl	216 <puts>
     5e0:	4628      	mov	r0, r5
     5e2:	f7ff fdd9 	bl	198 <putHexa32>
     5e6:	4827      	ldr	r0, [pc, #156]	; (684 <timers_demo_timer0_freerun_demo+0x118>)
     5e8:	f7ff fe15 	bl	216 <puts>
     5ec:	2003      	movs	r0, #3
     5ee:	f004 f85a 	bl	46a6 <alt_gpt_curtime_millisecs_get>
     5f2:	4605      	mov	r5, r0
     5f4:	4824      	ldr	r0, [pc, #144]	; (688 <timers_demo_timer0_freerun_demo+0x11c>)
     5f6:	f7ff fe0e 	bl	216 <puts>
     5fa:	4628      	mov	r0, r5
     5fc:	f7ff fdcc 	bl	198 <putHexa32>
     600:	4820      	ldr	r0, [pc, #128]	; (684 <timers_demo_timer0_freerun_demo+0x118>)
     602:	f7ff fe08 	bl	216 <puts>
     606:	2003      	movs	r0, #3
     608:	f004 f852 	bl	46b0 <alt_gpt_curtime_microsecs_get>
     60c:	4605      	mov	r5, r0
     60e:	481f      	ldr	r0, [pc, #124]	; (68c <timers_demo_timer0_freerun_demo+0x120>)
     610:	f7ff fe01 	bl	216 <puts>
     614:	4628      	mov	r0, r5
     616:	f7ff fdbf 	bl	198 <putHexa32>
     61a:	481a      	ldr	r0, [pc, #104]	; (684 <timers_demo_timer0_freerun_demo+0x118>)
     61c:	f7ff fdfb 	bl	216 <puts>
     620:	2003      	movs	r0, #3
     622:	f004 f957 	bl	48d4 <alt_gpt_maxtime_get>
     626:	4605      	mov	r5, r0
     628:	4819      	ldr	r0, [pc, #100]	; (690 <timers_demo_timer0_freerun_demo+0x124>)
     62a:	f7ff fdf4 	bl	216 <puts>
     62e:	4628      	mov	r0, r5
     630:	f7ff fdb2 	bl	198 <putHexa32>
     634:	4813      	ldr	r0, [pc, #76]	; (684 <timers_demo_timer0_freerun_demo+0x118>)
     636:	f7ff fdee 	bl	216 <puts>
     63a:	2003      	movs	r0, #3
     63c:	f004 f94d 	bl	48da <alt_gpt_maxtime_millisecs_get>
     640:	4605      	mov	r5, r0
     642:	4814      	ldr	r0, [pc, #80]	; (694 <timers_demo_timer0_freerun_demo+0x128>)
     644:	f7ff fde7 	bl	216 <puts>
     648:	4628      	mov	r0, r5
     64a:	f7ff fda5 	bl	198 <putHexa32>
     64e:	480d      	ldr	r0, [pc, #52]	; (684 <timers_demo_timer0_freerun_demo+0x118>)
     650:	f7ff fde1 	bl	216 <puts>
     654:	4620      	mov	r0, r4
     656:	bd38      	pop	{r3, r4, r5, pc}
     658:	480f      	ldr	r0, [pc, #60]	; (698 <timers_demo_timer0_freerun_demo+0x12c>)
     65a:	f04f 34ff 	mov.w	r4, #4294967295
     65e:	f7ff fdda 	bl	216 <puts>
     662:	e7f7      	b.n	654 <timers_demo_timer0_freerun_demo+0xe8>
     664:	00005abc 	.word	0x00005abc
     668:	00006061 	.word	0x00006061
     66c:	00006086 	.word	0x00006086
     670:	000060a8 	.word	0x000060a8
     674:	000060d9 	.word	0x000060d9
     678:	000060f7 	.word	0x000060f7
     67c:	00006123 	.word	0x00006123
     680:	00006143 	.word	0x00006143
     684:	00006171 	.word	0x00006171
     688:	00006177 	.word	0x00006177
     68c:	000061aa 	.word	0x000061aa
     690:	000061dd 	.word	0x000061dd
     694:	00006207 	.word	0x00006207
     698:	00006236 	.word	0x00006236

0000069c <timers_demo_timer1_oneshot_demo>:
     69c:	b510      	push	{r4, lr}
     69e:	2300      	movs	r3, #0
     6a0:	4c26      	ldr	r4, [pc, #152]	; (73c <timers_demo_timer1_oneshot_demo+0xa0>)
     6a2:	4827      	ldr	r0, [pc, #156]	; (740 <timers_demo_timer1_oneshot_demo+0xa4>)
     6a4:	7023      	strb	r3, [r4, #0]
     6a6:	f7ff fdb6 	bl	216 <puts>
     6aa:	4826      	ldr	r0, [pc, #152]	; (744 <timers_demo_timer1_oneshot_demo+0xa8>)
     6ac:	f7ff fdb3 	bl	216 <puts>
     6b0:	4825      	ldr	r0, [pc, #148]	; (748 <timers_demo_timer1_oneshot_demo+0xac>)
     6b2:	f7ff fdb0 	bl	216 <puts>
     6b6:	2101      	movs	r1, #1
     6b8:	2006      	movs	r0, #6
     6ba:	f004 fa87 	bl	4bcc <alt_gpt_mode_set>
     6be:	b930      	cbnz	r0, 6ce <timers_demo_timer1_oneshot_demo+0x32>
     6c0:	4822      	ldr	r0, [pc, #136]	; (74c <timers_demo_timer1_oneshot_demo+0xb0>)
     6c2:	f7ff fda8 	bl	216 <puts>
     6c6:	4922      	ldr	r1, [pc, #136]	; (750 <timers_demo_timer1_oneshot_demo+0xb4>)
     6c8:	2006      	movs	r0, #6
     6ca:	f003 feb5 	bl	4438 <alt_gpt_counter_set>
     6ce:	4b21      	ldr	r3, [pc, #132]	; (754 <timers_demo_timer1_oneshot_demo+0xb8>)
     6d0:	2200      	movs	r2, #0
     6d2:	601a      	str	r2, [r3, #0]
     6d4:	bb58      	cbnz	r0, 72e <timers_demo_timer1_oneshot_demo+0x92>
     6d6:	4602      	mov	r2, r0
     6d8:	491f      	ldr	r1, [pc, #124]	; (758 <timers_demo_timer1_oneshot_demo+0xbc>)
     6da:	20c8      	movs	r0, #200	; 0xc8
     6dc:	f003 fd86 	bl	41ec <alt_int_isr_register>
     6e0:	bb28      	cbnz	r0, 72e <timers_demo_timer1_oneshot_demo+0x92>
     6e2:	481e      	ldr	r0, [pc, #120]	; (75c <timers_demo_timer1_oneshot_demo+0xc0>)
     6e4:	f7ff fd97 	bl	216 <puts>
     6e8:	2006      	movs	r0, #6
     6ea:	f004 f8fb 	bl	48e4 <alt_gpt_int_enable>
     6ee:	b9f0      	cbnz	r0, 72e <timers_demo_timer1_oneshot_demo+0x92>
     6f0:	481b      	ldr	r0, [pc, #108]	; (760 <timers_demo_timer1_oneshot_demo+0xc4>)
     6f2:	f7ff fd90 	bl	216 <puts>
     6f6:	2006      	movs	r0, #6
     6f8:	f003 fe32 	bl	4360 <alt_gpt_tmr_start>
     6fc:	b9b8      	cbnz	r0, 72e <timers_demo_timer1_oneshot_demo+0x92>
     6fe:	4819      	ldr	r0, [pc, #100]	; (764 <timers_demo_timer1_oneshot_demo+0xc8>)
     700:	f7ff fd89 	bl	216 <puts>
     704:	2006      	movs	r0, #6
     706:	f003 fe65 	bl	43d4 <alt_gpt_tmr_is_running>
     70a:	2006      	movs	r0, #6
     70c:	f003 fe62 	bl	43d4 <alt_gpt_tmr_is_running>
     710:	2801      	cmp	r0, #1
     712:	d10d      	bne.n	730 <timers_demo_timer1_oneshot_demo+0x94>
     714:	4814      	ldr	r0, [pc, #80]	; (768 <timers_demo_timer1_oneshot_demo+0xcc>)
     716:	f7ff fd7e 	bl	216 <puts>
     71a:	4814      	ldr	r0, [pc, #80]	; (76c <timers_demo_timer1_oneshot_demo+0xd0>)
     71c:	f7ff fd7b 	bl	216 <puts>
     720:	7823      	ldrb	r3, [r4, #0]
     722:	2b00      	cmp	r3, #0
     724:	d0fc      	beq.n	720 <timers_demo_timer1_oneshot_demo+0x84>
     726:	4812      	ldr	r0, [pc, #72]	; (770 <timers_demo_timer1_oneshot_demo+0xd4>)
     728:	f7ff fd75 	bl	216 <puts>
     72c:	2000      	movs	r0, #0
     72e:	bd10      	pop	{r4, pc}
     730:	4810      	ldr	r0, [pc, #64]	; (774 <timers_demo_timer1_oneshot_demo+0xd8>)
     732:	f7ff fd70 	bl	216 <puts>
     736:	f04f 30ff 	mov.w	r0, #4294967295
     73a:	bd10      	pop	{r4, pc}
     73c:	00006730 	.word	0x00006730
     740:	00005abc 	.word	0x00005abc
     744:	0000625a 	.word	0x0000625a
     748:	0000627c 	.word	0x0000627c
     74c:	0000629d 	.word	0x0000629d
     750:	000186a0 	.word	0x000186a0
     754:	00006794 	.word	0x00006794
     758:	00000489 	.word	0x00000489
     75c:	000062c5 	.word	0x000062c5
     760:	000062eb 	.word	0x000062eb
     764:	00006307 	.word	0x00006307
     768:	00006332 	.word	0x00006332
     76c:	00006351 	.word	0x00006351
     770:	0000639d 	.word	0x0000639d
     774:	0000637a 	.word	0x0000637a

00000778 <timers_demo_global_timer_demo>:
     778:	b5d3      	push	{r0, r1, r4, r6, r7, lr}
     77a:	482f      	ldr	r0, [pc, #188]	; (838 <timers_demo_global_timer_demo+0xc0>)
     77c:	f7ff fd4b 	bl	216 <puts>
     780:	482e      	ldr	r0, [pc, #184]	; (83c <timers_demo_global_timer_demo+0xc4>)
     782:	f7ff fd48 	bl	216 <puts>
     786:	482e      	ldr	r0, [pc, #184]	; (840 <timers_demo_global_timer_demo+0xc8>)
     788:	f7ff fd45 	bl	216 <puts>
     78c:	f003 f826 	bl	37dc <alt_globaltmr_start>
     790:	2800      	cmp	r0, #0
     792:	d14c      	bne.n	82e <timers_demo_global_timer_demo+0xb6>
     794:	4602      	mov	r2, r0
     796:	492b      	ldr	r1, [pc, #172]	; (844 <timers_demo_global_timer_demo+0xcc>)
     798:	201b      	movs	r0, #27
     79a:	f003 fd27 	bl	41ec <alt_int_isr_register>
     79e:	2800      	cmp	r0, #0
     7a0:	d145      	bne.n	82e <timers_demo_global_timer_demo+0xb6>
     7a2:	4c29      	ldr	r4, [pc, #164]	; (848 <timers_demo_global_timer_demo+0xd0>)
     7a4:	4829      	ldr	r0, [pc, #164]	; (84c <timers_demo_global_timer_demo+0xd4>)
     7a6:	f7ff fd36 	bl	216 <puts>
     7aa:	f003 f841 	bl	3830 <alt_globaltmr_get64>
     7ae:	e9c4 0102 	strd	r0, r1, [r4, #8]
     7b2:	f003 f83d 	bl	3830 <alt_globaltmr_get64>
     7b6:	e9d4 6702 	ldrd	r6, r7, [r4, #8]
     7ba:	e9c4 0104 	strd	r0, r1, [r4, #16]
     7be:	1b86      	subs	r6, r0, r6
     7c0:	eb61 0707 	sbc.w	r7, r1, r7
     7c4:	f003 f834 	bl	3830 <alt_globaltmr_get64>
     7c8:	2301      	movs	r3, #1
     7ca:	e9c4 0102 	strd	r0, r1, [r4, #8]
     7ce:	9301      	str	r3, [sp, #4]
     7d0:	9b01      	ldr	r3, [sp, #4]
     7d2:	f5b3 7f00 	cmp.w	r3, #512	; 0x200
     7d6:	db2c      	blt.n	832 <timers_demo_global_timer_demo+0xba>
     7d8:	f003 f82a 	bl	3830 <alt_globaltmr_get64>
     7dc:	e9d4 2302 	ldrd	r2, r3, [r4, #8]
     7e0:	e9c4 0104 	strd	r0, r1, [r4, #16]
     7e4:	1a80      	subs	r0, r0, r2
     7e6:	eb61 0103 	sbc.w	r1, r1, r3
     7ea:	1b86      	subs	r6, r0, r6
     7ec:	eb61 0707 	sbc.w	r7, r1, r7
     7f0:	4817      	ldr	r0, [pc, #92]	; (850 <timers_demo_global_timer_demo+0xd8>)
     7f2:	f7ff fd10 	bl	216 <puts>
     7f6:	4639      	mov	r1, r7
     7f8:	4630      	mov	r0, r6
     7fa:	f7ff fce5 	bl	1c8 <putHexa64>
     7fe:	4815      	ldr	r0, [pc, #84]	; (854 <timers_demo_global_timer_demo+0xdc>)
     800:	f7ff fd09 	bl	216 <puts>
     804:	4814      	ldr	r0, [pc, #80]	; (858 <timers_demo_global_timer_demo+0xe0>)
     806:	f7ff fd06 	bl	216 <puts>
     80a:	f003 f811 	bl	3830 <alt_globaltmr_get64>
     80e:	e9c4 0102 	strd	r0, r1, [r4, #8]
     812:	f510 40fa 	adds.w	r0, r0, #32000	; 0x7d00
     816:	f141 0100 	adc.w	r1, r1, #0
     81a:	f003 f88f 	bl	393c <alt_globaltmr_comp_set64>
     81e:	b930      	cbnz	r0, 82e <timers_demo_global_timer_demo+0xb6>
     820:	f44f 40fa 	mov.w	r0, #32000	; 0x7d00
     824:	f003 f8b8 	bl	3998 <alt_globaltmr_autoinc_set>
     828:	b908      	cbnz	r0, 82e <timers_demo_global_timer_demo+0xb6>
     82a:	f003 f8cf 	bl	39cc <alt_globaltmr_autoinc_mode_start>
     82e:	b002      	add	sp, #8
     830:	bdd0      	pop	{r4, r6, r7, pc}
     832:	9b01      	ldr	r3, [sp, #4]
     834:	3301      	adds	r3, #1
     836:	e7ca      	b.n	7ce <timers_demo_global_timer_demo+0x56>
     838:	00005abc 	.word	0x00005abc
     83c:	00005f47 	.word	0x00005f47
     840:	00005f62 	.word	0x00005f62
     844:	000004ed 	.word	0x000004ed
     848:	00006738 	.word	0x00006738
     84c:	00005f81 	.word	0x00005f81
     850:	00005fa2 	.word	0x00005fa2
     854:	00006171 	.word	0x00006171
     858:	00005fc1 	.word	0x00005fc1

0000085c <timers_demo_watch_dog_demo>:
     85c:	b537      	push	{r0, r1, r2, r4, r5, lr}
     85e:	484e      	ldr	r0, [pc, #312]	; (998 <__bss_size+0x4>)
     860:	f7ff fcd9 	bl	216 <puts>
     864:	484d      	ldr	r0, [pc, #308]	; (99c <__bss_size+0x8>)
     866:	f7ff fcd6 	bl	216 <puts>
     86a:	484d      	ldr	r0, [pc, #308]	; (9a0 <__bss_size+0xc>)
     86c:	f7ff fcd3 	bl	216 <puts>
     870:	2101      	movs	r1, #1
     872:	4608      	mov	r0, r1
     874:	f004 fd74 	bl	5360 <alt_wdog_response_mode_set>
     878:	4604      	mov	r4, r0
     87a:	2800      	cmp	r0, #0
     87c:	d16f      	bne.n	95e <timers_demo_watch_dog_demo+0x102>
     87e:	4849      	ldr	r0, [pc, #292]	; (9a4 <__bss_size+0x10>)
     880:	f7ff fcc9 	bl	216 <puts>
     884:	4621      	mov	r1, r4
     886:	2003      	movs	r0, #3
     888:	f004 fb34 	bl	4ef4 <alt_wdog_counter_set>
     88c:	4604      	mov	r4, r0
     88e:	2800      	cmp	r0, #0
     890:	d165      	bne.n	95e <timers_demo_watch_dog_demo+0x102>
     892:	4845      	ldr	r0, [pc, #276]	; (9a8 <__bss_size+0x14>)
     894:	f7ff fcbf 	bl	216 <puts>
     898:	2101      	movs	r1, #1
     89a:	4608      	mov	r0, r1
     89c:	f004 fb2a 	bl	4ef4 <alt_wdog_counter_set>
     8a0:	4604      	mov	r4, r0
     8a2:	2800      	cmp	r0, #0
     8a4:	d15b      	bne.n	95e <timers_demo_watch_dog_demo+0x102>
     8a6:	4602      	mov	r2, r0
     8a8:	4940      	ldr	r1, [pc, #256]	; (9ac <__bss_size+0x18>)
     8aa:	20cb      	movs	r0, #203	; 0xcb
     8ac:	f003 fc9e 	bl	41ec <alt_int_isr_register>
     8b0:	4604      	mov	r4, r0
     8b2:	2800      	cmp	r0, #0
     8b4:	d153      	bne.n	95e <timers_demo_watch_dog_demo+0x102>
     8b6:	483e      	ldr	r0, [pc, #248]	; (9b0 <__bss_size+0x1c>)
     8b8:	f7ff fcad 	bl	216 <puts>
     8bc:	2001      	movs	r0, #1
     8be:	f004 faaf 	bl	4e20 <alt_wdog_start>
     8c2:	4604      	mov	r4, r0
     8c4:	2800      	cmp	r0, #0
     8c6:	d14a      	bne.n	95e <timers_demo_watch_dog_demo+0x102>
     8c8:	2001      	movs	r0, #1
     8ca:	f004 facb 	bl	4e64 <alt_wdog_tmr_is_enabled>
     8ce:	2800      	cmp	r0, #0
     8d0:	d048      	beq.n	964 <timers_demo_watch_dog_demo+0x108>
     8d2:	4838      	ldr	r0, [pc, #224]	; (9b4 <__bss_size+0x20>)
     8d4:	f7ff fc9f 	bl	216 <puts>
     8d8:	2001      	movs	r0, #1
     8da:	f004 fbf9 	bl	50d0 <alt_wdog_counter_get_inittime_millisecs>
     8de:	4604      	mov	r4, r0
     8e0:	4835      	ldr	r0, [pc, #212]	; (9b8 <__bss_size+0x24>)
     8e2:	f7ff fc98 	bl	216 <puts>
     8e6:	4620      	mov	r0, r4
     8e8:	f7ff fc56 	bl	198 <putHexa32>
     8ec:	4833      	ldr	r0, [pc, #204]	; (9bc <__bss_size+0x28>)
     8ee:	f7ff fc92 	bl	216 <puts>
     8f2:	2001      	movs	r0, #1
     8f4:	f004 fb86 	bl	5004 <alt_wdog_counter_get_curtime_millisecs>
     8f8:	4604      	mov	r4, r0
     8fa:	4831      	ldr	r0, [pc, #196]	; (9c0 <__bss_size+0x2c>)
     8fc:	f7ff fc8b 	bl	216 <puts>
     900:	4620      	mov	r0, r4
     902:	f7ff fc49 	bl	198 <putHexa32>
     906:	482d      	ldr	r0, [pc, #180]	; (9bc <__bss_size+0x28>)
     908:	f7ff fc85 	bl	216 <puts>
     90c:	2301      	movs	r3, #1
     90e:	9301      	str	r3, [sp, #4]
     910:	9b01      	ldr	r3, [sp, #4]
     912:	2b7f      	cmp	r3, #127	; 0x7f
     914:	dd28      	ble.n	968 <timers_demo_watch_dog_demo+0x10c>
     916:	2001      	movs	r0, #1
     918:	f004 fb16 	bl	4f48 <alt_wdog_counter_get_current>
     91c:	4605      	mov	r5, r0
     91e:	4829      	ldr	r0, [pc, #164]	; (9c4 <__bss_size+0x30>)
     920:	f7ff fc79 	bl	216 <puts>
     924:	4628      	mov	r0, r5
     926:	f7ff fc37 	bl	198 <putHexa32>
     92a:	481b      	ldr	r0, [pc, #108]	; (998 <__bss_size+0x4>)
     92c:	f7ff fc73 	bl	216 <puts>
     930:	2001      	movs	r0, #1
     932:	f004 fab1 	bl	4e98 <alt_wdog_reset>
     936:	2001      	movs	r0, #1
     938:	f004 fb06 	bl	4f48 <alt_wdog_counter_get_current>
     93c:	4604      	mov	r4, r0
     93e:	4822      	ldr	r0, [pc, #136]	; (9c8 <__bss_size+0x34>)
     940:	f7ff fc69 	bl	216 <puts>
     944:	4620      	mov	r0, r4
     946:	f7ff fc27 	bl	198 <putHexa32>
     94a:	4813      	ldr	r0, [pc, #76]	; (998 <__bss_size+0x4>)
     94c:	f7ff fc63 	bl	216 <puts>
     950:	42a5      	cmp	r5, r4
     952:	d90c      	bls.n	96e <timers_demo_watch_dog_demo+0x112>
     954:	f04f 34ff 	mov.w	r4, #4294967295
     958:	481c      	ldr	r0, [pc, #112]	; (9cc <__bss_size+0x38>)
     95a:	f7ff fc5c 	bl	216 <puts>
     95e:	4620      	mov	r0, r4
     960:	b003      	add	sp, #12
     962:	bd30      	pop	{r4, r5, pc}
     964:	481a      	ldr	r0, [pc, #104]	; (9d0 <__bss_size+0x3c>)
     966:	e7b5      	b.n	8d4 <timers_demo_watch_dog_demo+0x78>
     968:	9b01      	ldr	r3, [sp, #4]
     96a:	3301      	adds	r3, #1
     96c:	e7cf      	b.n	90e <timers_demo_watch_dog_demo+0xb2>
     96e:	4819      	ldr	r0, [pc, #100]	; (9d4 <__bss_size+0x40>)
     970:	f7ff fc51 	bl	216 <puts>
     974:	4818      	ldr	r0, [pc, #96]	; (9d8 <__bss_size+0x44>)
     976:	f7ff fc4e 	bl	216 <puts>
     97a:	4a18      	ldr	r2, [pc, #96]	; (9dc <__bss_size+0x48>)
     97c:	7813      	ldrb	r3, [r2, #0]
     97e:	2b00      	cmp	r3, #0
     980:	d0fc      	beq.n	97c <timers_demo_watch_dog_demo+0x120>
     982:	4817      	ldr	r0, [pc, #92]	; (9e0 <__bss_size+0x4c>)
     984:	f7ff fc47 	bl	216 <puts>
     988:	4816      	ldr	r0, [pc, #88]	; (9e4 <__bss_size+0x50>)
     98a:	f7ff fc44 	bl	216 <puts>
     98e:	2001      	movs	r0, #1
     990:	f004 f9fe 	bl	4d90 <alt_wdog_stop>
     994:	4604      	mov	r4, r0
     996:	e7e2      	b.n	95e <timers_demo_watch_dog_demo+0x102>
     998:	00005abc 	.word	0x00005abc
     99c:	000063c2 	.word	0x000063c2
     9a0:	000063df 	.word	0x000063df
     9a4:	0000641b 	.word	0x0000641b
     9a8:	00006450 	.word	0x00006450
     9ac:	00000525 	.word	0x00000525
     9b0:	00006483 	.word	0x00006483
     9b4:	000064a6 	.word	0x000064a6
     9b8:	000065df 	.word	0x000065df
     9bc:	00006600 	.word	0x00006600
     9c0:	0000660d 	.word	0x0000660d
     9c4:	000064f4 	.word	0x000064f4
     9c8:	0000650e 	.word	0x0000650e
     9cc:	00006533 	.word	0x00006533
     9d0:	000064cb 	.word	0x000064cb
     9d4:	00006554 	.word	0x00006554
     9d8:	0000656e 	.word	0x0000656e
     9dc:	00006732 	.word	0x00006732
     9e0:	00006598 	.word	0x00006598
     9e4:	000065bc 	.word	0x000065bc

000009e8 <timers_demo_system_uninit>:
     9e8:	b508      	push	{r3, lr}
     9ea:	480a      	ldr	r0, [pc, #40]	; (a14 <timers_demo_system_uninit+0x2c>)
     9ec:	f7ff fc13 	bl	216 <puts>
     9f0:	4809      	ldr	r0, [pc, #36]	; (a18 <timers_demo_system_uninit+0x30>)
     9f2:	f7ff fc10 	bl	216 <puts>
     9f6:	f003 fb51 	bl	409c <alt_int_cpu_uninit>
     9fa:	b948      	cbnz	r0, a10 <timers_demo_system_uninit+0x28>
     9fc:	f003 f84c 	bl	3a98 <alt_int_global_uninit>
     a00:	b930      	cbnz	r0, a10 <timers_demo_system_uninit+0x28>
     a02:	f003 fc4b 	bl	429c <alt_gpt_all_tmr_uninit>
     a06:	b918      	cbnz	r0, a10 <timers_demo_system_uninit+0x28>
     a08:	e8bd 4008 	ldmia.w	sp!, {r3, lr}
     a0c:	f004 b982 	b.w	4d14 <alt_wdog_uninit>
     a10:	bd08      	pop	{r3, pc}
     a12:	bf00      	nop
     a14:	00005abc 	.word	0x00005abc
     a18:	00006043 	.word	0x00006043

00000a1c <timers_demo_main>:
     a1c:	b508      	push	{r3, lr}
     a1e:	f7ff fd8b 	bl	538 <timers_demo_system_init>
     a22:	bbd0      	cbnz	r0, a9a <timers_demo_main+0x7e>
     a24:	481d      	ldr	r0, [pc, #116]	; (a9c <timers_demo_main+0x80>)
     a26:	f7ff fbf6 	bl	216 <puts>
     a2a:	481d      	ldr	r0, [pc, #116]	; (aa0 <timers_demo_main+0x84>)
     a2c:	f7ff fbf3 	bl	216 <puts>
     a30:	f003 f848 	bl	3ac4 <alt_int_global_init>
     a34:	bb88      	cbnz	r0, a9a <timers_demo_main+0x7e>
     a36:	f003 fb0f 	bl	4058 <alt_int_cpu_init>
     a3a:	bb70      	cbnz	r0, a9a <timers_demo_main+0x7e>
     a3c:	2103      	movs	r1, #3
     a3e:	201b      	movs	r0, #27
     a40:	f003 fa8e 	bl	3f60 <alt_int_dist_trigger_set>
     a44:	bb48      	cbnz	r0, a9a <timers_demo_main+0x7e>
     a46:	201b      	movs	r0, #27
     a48:	f003 f916 	bl	3c78 <alt_int_dist_enable>
     a4c:	bb28      	cbnz	r0, a9a <timers_demo_main+0x7e>
     a4e:	2101      	movs	r1, #1
     a50:	20c8      	movs	r0, #200	; 0xc8
     a52:	f003 fa2f 	bl	3eb4 <alt_int_dist_target_set>
     a56:	bb00      	cbnz	r0, a9a <timers_demo_main+0x7e>
     a58:	2103      	movs	r1, #3
     a5a:	20c8      	movs	r0, #200	; 0xc8
     a5c:	f003 fa80 	bl	3f60 <alt_int_dist_trigger_set>
     a60:	b9d8      	cbnz	r0, a9a <timers_demo_main+0x7e>
     a62:	20c8      	movs	r0, #200	; 0xc8
     a64:	f003 f908 	bl	3c78 <alt_int_dist_enable>
     a68:	b9b8      	cbnz	r0, a9a <timers_demo_main+0x7e>
     a6a:	2101      	movs	r1, #1
     a6c:	20cb      	movs	r0, #203	; 0xcb
     a6e:	f003 fa21 	bl	3eb4 <alt_int_dist_target_set>
     a72:	b990      	cbnz	r0, a9a <timers_demo_main+0x7e>
     a74:	2103      	movs	r1, #3
     a76:	20cb      	movs	r0, #203	; 0xcb
     a78:	f003 fa72 	bl	3f60 <alt_int_dist_trigger_set>
     a7c:	b968      	cbnz	r0, a9a <timers_demo_main+0x7e>
     a7e:	20cb      	movs	r0, #203	; 0xcb
     a80:	f003 f8fa 	bl	3c78 <alt_int_dist_enable>
     a84:	b948      	cbnz	r0, a9a <timers_demo_main+0x7e>
     a86:	f003 fb0b 	bl	40a0 <alt_int_cpu_enable>
     a8a:	b930      	cbnz	r0, a9a <timers_demo_main+0x7e>
     a8c:	f003 f806 	bl	3a9c <alt_int_global_enable>
     a90:	b918      	cbnz	r0, a9a <timers_demo_main+0x7e>
     a92:	e8bd 4008 	ldmia.w	sp!, {r3, lr}
     a96:	f7ff be01 	b.w	69c <timers_demo_timer1_oneshot_demo>
     a9a:	bd08      	pop	{r3, pc}
     a9c:	00005abc 	.word	0x00005abc
     aa0:	00005fea 	.word	0x00005fea

00000aa4 <alt_clk_mgr_wait>:
     aa4:	b901      	cbnz	r1, aa8 <alt_clk_mgr_wait+0x4>
     aa6:	4770      	bx	lr
     aa8:	6803      	ldr	r3, [r0, #0]
     aaa:	3901      	subs	r1, #1
     aac:	e7fa      	b.n	aa4 <alt_clk_mgr_wait>

00000aae <alt_clk_pllcounter_write>:
     aae:	b573      	push	{r0, r1, r4, r5, r6, lr}
     ab0:	9e06      	ldr	r6, [sp, #24]
     ab2:	9c07      	ldr	r4, [sp, #28]
     ab4:	6805      	ldr	r5, [r0, #0]
     ab6:	fa06 f404 	lsl.w	r4, r6, r4
     aba:	4325      	orrs	r5, r4
     abc:	6005      	str	r5, [r0, #0]
     abe:	680d      	ldr	r5, [r1, #0]
     ac0:	9501      	str	r5, [sp, #4]
     ac2:	9d01      	ldr	r5, [sp, #4]
     ac4:	422e      	tst	r6, r5
     ac6:	d0fa      	beq.n	abe <alt_clk_pllcounter_write+0x10>
     ac8:	6013      	str	r3, [r2, #0]
     aca:	6803      	ldr	r3, [r0, #0]
     acc:	ea23 0404 	bic.w	r4, r3, r4
     ad0:	6004      	str	r4, [r0, #0]
     ad2:	b002      	add	sp, #8
     ad4:	bd70      	pop	{r4, r5, r6, pc}

00000ad6 <alt_clkmgr_is_val_modulo_n>:
     ad6:	2901      	cmp	r1, #1
     ad8:	b508      	push	{r3, lr}
     ada:	d013      	beq.n	b04 <alt_clkmgr_is_val_modulo_n+0x2e>
     adc:	2902      	cmp	r1, #2
     ade:	d103      	bne.n	ae8 <alt_clkmgr_is_val_modulo_n+0x12>
     ae0:	43c0      	mvns	r0, r0
     ae2:	f000 0001 	and.w	r0, r0, #1
     ae6:	bd08      	pop	{r3, pc}
     ae8:	2904      	cmp	r1, #4
     aea:	d105      	bne.n	af8 <alt_clkmgr_is_val_modulo_n+0x22>
     aec:	f010 0f03 	tst.w	r0, #3
     af0:	bf0c      	ite	eq
     af2:	2001      	moveq	r0, #1
     af4:	2000      	movne	r0, #0
     af6:	bd08      	pop	{r3, pc}
     af8:	f004 ee0a 	blx	5710 <__aeabi_uidivmod>
     afc:	fab1 f081 	clz	r0, r1
     b00:	0940      	lsrs	r0, r0, #5
     b02:	bd08      	pop	{r3, pc}
     b04:	4608      	mov	r0, r1
     b06:	bd08      	pop	{r3, pc}

00000b08 <alt_clk_pll_source_get.part.3>:
     b08:	4b05      	ldr	r3, [pc, #20]	; (b20 <alt_clk_pll_source_get.part.3+0x18>)
     b0a:	6818      	ldr	r0, [r3, #0]
     b0c:	f3c0 5081 	ubfx	r0, r0, #22, #2
     b10:	b128      	cbz	r0, b1e <alt_clk_pll_source_get.part.3+0x16>
     b12:	2801      	cmp	r0, #1
     b14:	d003      	beq.n	b1e <alt_clk_pll_source_get.part.3+0x16>
     b16:	2802      	cmp	r0, #2
     b18:	bf14      	ite	ne
     b1a:	204b      	movne	r0, #75	; 0x4b
     b1c:	2003      	moveq	r0, #3
     b1e:	4770      	bx	lr
     b20:	ffd040c0 	.word	0xffd040c0

00000b24 <alt_clk_pll_lock_wait.constprop.4>:
     b24:	4a06      	ldr	r2, [pc, #24]	; (b40 <alt_clk_pll_lock_wait.constprop.4+0x1c>)
     b26:	f240 33e9 	movw	r3, #1001	; 0x3e9
     b2a:	6811      	ldr	r1, [r2, #0]
     b2c:	0649      	lsls	r1, r1, #25
     b2e:	d404      	bmi.n	b3a <alt_clk_pll_lock_wait.constprop.4+0x16>
     b30:	3b01      	subs	r3, #1
     b32:	d1fa      	bne.n	b2a <alt_clk_pll_lock_wait.constprop.4+0x6>
     b34:	f06f 000b 	mvn.w	r0, #11
     b38:	4770      	bx	lr
     b3a:	2000      	movs	r0, #0
     b3c:	4770      	bx	lr
     b3e:	bf00      	nop
     b40:	ffd04008 	.word	0xffd04008

00000b44 <alt_clk_plls_settle_wait>:
     b44:	4b07      	ldr	r3, [pc, #28]	; (b64 <alt_clk_plls_settle_wait+0x20>)
     b46:	2032      	movs	r0, #50	; 0x32
     b48:	681a      	ldr	r2, [r3, #0]
     b4a:	07d2      	lsls	r2, r2, #31
     b4c:	d503      	bpl.n	b56 <alt_clk_plls_settle_wait+0x12>
     b4e:	f110 30ff 	adds.w	r0, r0, #4294967295
     b52:	d2f9      	bcs.n	b48 <alt_clk_plls_settle_wait+0x4>
     b54:	4770      	bx	lr
     b56:	2800      	cmp	r0, #0
     b58:	bfcc      	ite	gt
     b5a:	2000      	movgt	r0, #0
     b5c:	2001      	movle	r0, #1
     b5e:	4240      	negs	r0, r0
     b60:	4770      	bx	lr
     b62:	bf00      	nop
     b64:	ffd04014 	.word	0xffd04014

00000b68 <alt_clk_lock_status_clear>:
     b68:	f030 023f 	bics.w	r2, r0, #63	; 0x3f
     b6c:	bf01      	itttt	eq
     b6e:	4904      	ldreq	r1, [pc, #16]	; (b80 <alt_clk_lock_status_clear+0x18>)
     b70:	680b      	ldreq	r3, [r1, #0]
     b72:	4303      	orreq	r3, r0
     b74:	4610      	moveq	r0, r2
     b76:	bf0c      	ite	eq
     b78:	600b      	streq	r3, [r1, #0]
     b7a:	f06f 0008 	mvnne.w	r0, #8
     b7e:	4770      	bx	lr
     b80:	ffd04008 	.word	0xffd04008

00000b84 <alt_clk_lock_status_get>:
     b84:	4b02      	ldr	r3, [pc, #8]	; (b90 <alt_clk_lock_status_get+0xc>)
     b86:	6818      	ldr	r0, [r3, #0]
     b88:	f3c0 0008 	ubfx	r0, r0, #0, #9
     b8c:	4770      	bx	lr
     b8e:	bf00      	nop
     b90:	ffd04008 	.word	0xffd04008

00000b94 <alt_clk_pll_is_locked>:
     b94:	2809      	cmp	r0, #9
     b96:	d104      	bne.n	ba2 <alt_clk_pll_is_locked+0xe>
     b98:	4b0a      	ldr	r3, [pc, #40]	; (bc4 <alt_clk_pll_is_locked+0x30>)
     b9a:	6818      	ldr	r0, [r3, #0]
     b9c:	f3c0 1080 	ubfx	r0, r0, #6, #1
     ba0:	4770      	bx	lr
     ba2:	280a      	cmp	r0, #10
     ba4:	d104      	bne.n	bb0 <alt_clk_pll_is_locked+0x1c>
     ba6:	4b07      	ldr	r3, [pc, #28]	; (bc4 <alt_clk_pll_is_locked+0x30>)
     ba8:	6818      	ldr	r0, [r3, #0]
     baa:	f3c0 10c0 	ubfx	r0, r0, #7, #1
     bae:	4770      	bx	lr
     bb0:	280b      	cmp	r0, #11
     bb2:	bf03      	ittte	eq
     bb4:	4b03      	ldreq	r3, [pc, #12]	; (bc4 <alt_clk_pll_is_locked+0x30>)
     bb6:	6818      	ldreq	r0, [r3, #0]
     bb8:	f3c0 2000 	ubfxeq	r0, r0, #8, #1
     bbc:	f06f 0008 	mvnne.w	r0, #8
     bc0:	4770      	bx	lr
     bc2:	bf00      	nop
     bc4:	ffd04008 	.word	0xffd04008

00000bc8 <alt_clk_safe_mode_clear>:
     bc8:	490a      	ldr	r1, [pc, #40]	; (bf4 <alt_clk_safe_mode_clear+0x2c>)
     bca:	b510      	push	{r4, lr}
     bcc:	4a0a      	ldr	r2, [pc, #40]	; (bf8 <alt_clk_safe_mode_clear+0x30>)
     bce:	680c      	ldr	r4, [r1, #0]
     bd0:	f024 030c 	bic.w	r3, r4, #12
     bd4:	f004 040c 	and.w	r4, r4, #12
     bd8:	600b      	str	r3, [r1, #0]
     bda:	6813      	ldr	r3, [r2, #0]
     bdc:	f043 0301 	orr.w	r3, r3, #1
     be0:	6013      	str	r3, [r2, #0]
     be2:	f7ff ffaf 	bl	b44 <alt_clk_plls_settle_wait>
     be6:	680b      	ldr	r3, [r1, #0]
     be8:	f023 030c 	bic.w	r3, r3, #12
     bec:	4323      	orrs	r3, r4
     bee:	600b      	str	r3, [r1, #0]
     bf0:	bd10      	pop	{r4, pc}
     bf2:	bf00      	nop
     bf4:	ffd04060 	.word	0xffd04060
     bf8:	ffd04000 	.word	0xffd04000

00000bfc <alt_clk_is_in_safe_mode>:
     bfc:	b920      	cbnz	r0, c08 <alt_clk_is_in_safe_mode+0xc>
     bfe:	4b08      	ldr	r3, [pc, #32]	; (c20 <alt_clk_is_in_safe_mode+0x24>)
     c00:	6818      	ldr	r0, [r3, #0]
     c02:	f000 0001 	and.w	r0, r0, #1
     c06:	4770      	bx	lr
     c08:	2801      	cmp	r0, #1
     c0a:	d107      	bne.n	c1c <alt_clk_is_in_safe_mode+0x20>
     c0c:	4b05      	ldr	r3, [pc, #20]	; (c24 <alt_clk_is_in_safe_mode+0x28>)
     c0e:	681b      	ldr	r3, [r3, #0]
     c10:	07da      	lsls	r2, r3, #31
     c12:	d402      	bmi.n	c1a <alt_clk_is_in_safe_mode+0x1e>
     c14:	f013 0002 	ands.w	r0, r3, #2
     c18:	d1f1      	bne.n	bfe <alt_clk_is_in_safe_mode+0x2>
     c1a:	4770      	bx	lr
     c1c:	2000      	movs	r0, #0
     c1e:	e7fc      	b.n	c1a <alt_clk_is_in_safe_mode+0x1e>
     c20:	ffd04000 	.word	0xffd04000
     c24:	ffd04010 	.word	0xffd04010

00000c28 <alt_clk_pll_bypass_disable>:
     c28:	b5f8      	push	{r3, r4, r5, r6, r7, lr}
     c2a:	4602      	mov	r2, r0
     c2c:	f7ff ffb2 	bl	b94 <alt_clk_pll_is_locked>
     c30:	2801      	cmp	r0, #1
     c32:	d178      	bne.n	d26 <alt_clk_pll_bypass_disable+0xfe>
     c34:	2a09      	cmp	r2, #9
     c36:	d136      	bne.n	ca6 <alt_clk_pll_bypass_disable+0x7e>
     c38:	4b44      	ldr	r3, [pc, #272]	; (d4c <alt_clk_pll_bypass_disable+0x124>)
     c3a:	4d45      	ldr	r5, [pc, #276]	; (d50 <alt_clk_pll_bypass_disable+0x128>)
     c3c:	6819      	ldr	r1, [r3, #0]
     c3e:	682c      	ldr	r4, [r5, #0]
     c40:	f014 0304 	ands.w	r3, r4, #4
     c44:	bf18      	it	ne
     c46:	43cb      	mvnne	r3, r1
     c48:	0722      	lsls	r2, r4, #28
     c4a:	f003 0301 	and.w	r3, r3, #1
     c4e:	d578      	bpl.n	d42 <alt_clk_pll_bypass_disable+0x11a>
     c50:	f001 0102 	and.w	r1, r1, #2
     c54:	b12b      	cbz	r3, c62 <alt_clk_pll_bypass_disable+0x3a>
     c56:	f024 0204 	bic.w	r2, r4, #4
     c5a:	b129      	cbz	r1, c68 <alt_clk_pll_bypass_disable+0x40>
     c5c:	602a      	str	r2, [r5, #0]
     c5e:	2101      	movs	r1, #1
     c60:	e007      	b.n	c72 <alt_clk_pll_bypass_disable+0x4a>
     c62:	2900      	cmp	r1, #0
     c64:	d16f      	bne.n	d46 <alt_clk_pll_bypass_disable+0x11e>
     c66:	4622      	mov	r2, r4
     c68:	f022 0208 	bic.w	r2, r2, #8
     c6c:	2101      	movs	r1, #1
     c6e:	4319      	orrs	r1, r3
     c70:	d1f4      	bne.n	c5c <alt_clk_pll_bypass_disable+0x34>
     c72:	4a38      	ldr	r2, [pc, #224]	; (d54 <alt_clk_pll_bypass_disable+0x12c>)
     c74:	6813      	ldr	r3, [r2, #0]
     c76:	f043 7080 	orr.w	r0, r3, #16777216	; 0x1000000
     c7a:	f023 7380 	bic.w	r3, r3, #16777216	; 0x1000000
     c7e:	6010      	str	r0, [r2, #0]
     c80:	6013      	str	r3, [r2, #0]
     c82:	f7ff ff5f 	bl	b44 <alt_clk_plls_settle_wait>
     c86:	4a34      	ldr	r2, [pc, #208]	; (d58 <alt_clk_pll_bypass_disable+0x130>)
     c88:	6813      	ldr	r3, [r2, #0]
     c8a:	f023 0301 	bic.w	r3, r3, #1
     c8e:	6013      	str	r3, [r2, #0]
     c90:	f7ff ff58 	bl	b44 <alt_clk_plls_settle_wait>
     c94:	4602      	mov	r2, r0
     c96:	b121      	cbz	r1, ca2 <alt_clk_pll_bypass_disable+0x7a>
     c98:	211e      	movs	r1, #30
     c9a:	482d      	ldr	r0, [pc, #180]	; (d50 <alt_clk_pll_bypass_disable+0x128>)
     c9c:	f7ff ff02 	bl	aa4 <alt_clk_mgr_wait>
     ca0:	602c      	str	r4, [r5, #0]
     ca2:	4610      	mov	r0, r2
     ca4:	bdf8      	pop	{r3, r4, r5, r6, r7, pc}
     ca6:	2a0a      	cmp	r2, #10
     ca8:	d128      	bne.n	cfc <alt_clk_pll_bypass_disable+0xd4>
     caa:	4b28      	ldr	r3, [pc, #160]	; (d4c <alt_clk_pll_bypass_disable+0x124>)
     cac:	4d28      	ldr	r5, [pc, #160]	; (d50 <alt_clk_pll_bypass_disable+0x128>)
     cae:	681a      	ldr	r2, [r3, #0]
     cb0:	682c      	ldr	r4, [r5, #0]
     cb2:	f014 0304 	ands.w	r3, r4, #4
     cb6:	bf18      	it	ne
     cb8:	4613      	movne	r3, r2
     cba:	f014 0108 	ands.w	r1, r4, #8
     cbe:	f003 0301 	and.w	r3, r3, #1
     cc2:	d036      	beq.n	d32 <alt_clk_pll_bypass_disable+0x10a>
     cc4:	f3c2 0140 	ubfx	r1, r2, #1, #1
     cc8:	b1b3      	cbz	r3, cf8 <alt_clk_pll_bypass_disable+0xd0>
     cca:	f024 0204 	bic.w	r2, r4, #4
     cce:	b109      	cbz	r1, cd4 <alt_clk_pll_bypass_disable+0xac>
     cd0:	f022 0208 	bic.w	r2, r2, #8
     cd4:	4f21      	ldr	r7, [pc, #132]	; (d5c <alt_clk_pll_bypass_disable+0x134>)
     cd6:	4319      	orrs	r1, r3
     cd8:	bf18      	it	ne
     cda:	602a      	strne	r2, [r5, #0]
     cdc:	683e      	ldr	r6, [r7, #0]
     cde:	f046 7380 	orr.w	r3, r6, #16777216	; 0x1000000
     ce2:	f026 7680 	bic.w	r6, r6, #16777216	; 0x1000000
     ce6:	603b      	str	r3, [r7, #0]
     ce8:	f7ff ff2c 	bl	b44 <alt_clk_plls_settle_wait>
     cec:	4a1a      	ldr	r2, [pc, #104]	; (d58 <alt_clk_pll_bypass_disable+0x130>)
     cee:	603e      	str	r6, [r7, #0]
     cf0:	6813      	ldr	r3, [r2, #0]
     cf2:	f023 0308 	bic.w	r3, r3, #8
     cf6:	e7ca      	b.n	c8e <alt_clk_pll_bypass_disable+0x66>
     cf8:	4622      	mov	r2, r4
     cfa:	e7e8      	b.n	cce <alt_clk_pll_bypass_disable+0xa6>
     cfc:	2a0b      	cmp	r2, #11
     cfe:	d115      	bne.n	d2c <alt_clk_pll_bypass_disable+0x104>
     d00:	4a17      	ldr	r2, [pc, #92]	; (d60 <alt_clk_pll_bypass_disable+0x138>)
     d02:	6813      	ldr	r3, [r2, #0]
     d04:	f043 7180 	orr.w	r1, r3, #16777216	; 0x1000000
     d08:	f023 7380 	bic.w	r3, r3, #16777216	; 0x1000000
     d0c:	6011      	str	r1, [r2, #0]
     d0e:	6013      	str	r3, [r2, #0]
     d10:	f7ff ff18 	bl	b44 <alt_clk_plls_settle_wait>
     d14:	4a10      	ldr	r2, [pc, #64]	; (d58 <alt_clk_pll_bypass_disable+0x130>)
     d16:	6813      	ldr	r3, [r2, #0]
     d18:	f023 0304 	bic.w	r3, r3, #4
     d1c:	6013      	str	r3, [r2, #0]
     d1e:	e8bd 40f8 	ldmia.w	sp!, {r3, r4, r5, r6, r7, lr}
     d22:	f7ff bf0f 	b.w	b44 <alt_clk_plls_settle_wait>
     d26:	f04f 32ff 	mov.w	r2, #4294967295
     d2a:	e7ba      	b.n	ca2 <alt_clk_pll_bypass_disable+0x7a>
     d2c:	f06f 0208 	mvn.w	r2, #8
     d30:	e7b7      	b.n	ca2 <alt_clk_pll_bypass_disable+0x7a>
     d32:	2b00      	cmp	r3, #0
     d34:	d1c9      	bne.n	cca <alt_clk_pll_bypass_disable+0xa2>
     d36:	4619      	mov	r1, r3
     d38:	4622      	mov	r2, r4
     d3a:	e7cb      	b.n	cd4 <alt_clk_pll_bypass_disable+0xac>
     d3c:	f024 0204 	bic.w	r2, r4, #4
     d40:	e78c      	b.n	c5c <alt_clk_pll_bypass_disable+0x34>
     d42:	2b00      	cmp	r3, #0
     d44:	d1fa      	bne.n	d3c <alt_clk_pll_bypass_disable+0x114>
     d46:	4619      	mov	r1, r3
     d48:	4622      	mov	r2, r4
     d4a:	e790      	b.n	c6e <alt_clk_pll_bypass_disable+0x46>
     d4c:	ffd04070 	.word	0xffd04070
     d50:	ffd04060 	.word	0xffd04060
     d54:	ffd04040 	.word	0xffd04040
     d58:	ffd04004 	.word	0xffd04004
     d5c:	ffd04080 	.word	0xffd04080
     d60:	ffd040c0 	.word	0xffd040c0

00000d64 <alt_clk_pll_bypass_enable>:
     d64:	2809      	cmp	r0, #9
     d66:	b570      	push	{r4, r5, r6, lr}
     d68:	d127      	bne.n	dba <alt_clk_pll_bypass_enable+0x56>
     d6a:	2900      	cmp	r1, #0
     d6c:	d168      	bne.n	e40 <alt_clk_pll_bypass_enable+0xdc>
     d6e:	4b3b      	ldr	r3, [pc, #236]	; (e5c <alt_clk_pll_bypass_enable+0xf8>)
     d70:	4d3b      	ldr	r5, [pc, #236]	; (e60 <alt_clk_pll_bypass_enable+0xfc>)
     d72:	681a      	ldr	r2, [r3, #0]
     d74:	682c      	ldr	r4, [r5, #0]
     d76:	0766      	lsls	r6, r4, #29
     d78:	bf4c      	ite	mi
     d7a:	43d3      	mvnmi	r3, r2
     d7c:	460b      	movpl	r3, r1
     d7e:	0720      	lsls	r0, r4, #28
     d80:	f003 0301 	and.w	r3, r3, #1
     d84:	d55f      	bpl.n	e46 <alt_clk_pll_bypass_enable+0xe2>
     d86:	f082 0102 	eor.w	r1, r2, #2
     d8a:	f3c1 0140 	ubfx	r1, r1, #1, #1
     d8e:	b193      	cbz	r3, db6 <alt_clk_pll_bypass_enable+0x52>
     d90:	f024 0204 	bic.w	r2, r4, #4
     d94:	b109      	cbz	r1, d9a <alt_clk_pll_bypass_enable+0x36>
     d96:	f022 0208 	bic.w	r2, r2, #8
     d9a:	4319      	orrs	r1, r3
     d9c:	bf18      	it	ne
     d9e:	602a      	strne	r2, [r5, #0]
     da0:	4a30      	ldr	r2, [pc, #192]	; (e64 <alt_clk_pll_bypass_enable+0x100>)
     da2:	6813      	ldr	r3, [r2, #0]
     da4:	f043 0301 	orr.w	r3, r3, #1
     da8:	6013      	str	r3, [r2, #0]
     daa:	f7ff fecb 	bl	b44 <alt_clk_plls_settle_wait>
     dae:	2900      	cmp	r1, #0
     db0:	d134      	bne.n	e1c <alt_clk_pll_bypass_enable+0xb8>
     db2:	2000      	movs	r0, #0
     db4:	bd70      	pop	{r4, r5, r6, pc}
     db6:	4622      	mov	r2, r4
     db8:	e7ec      	b.n	d94 <alt_clk_pll_bypass_enable+0x30>
     dba:	280a      	cmp	r0, #10
     dbc:	d130      	bne.n	e20 <alt_clk_pll_bypass_enable+0xbc>
     dbe:	4b27      	ldr	r3, [pc, #156]	; (e5c <alt_clk_pll_bypass_enable+0xf8>)
     dc0:	4d27      	ldr	r5, [pc, #156]	; (e60 <alt_clk_pll_bypass_enable+0xfc>)
     dc2:	681b      	ldr	r3, [r3, #0]
     dc4:	682c      	ldr	r4, [r5, #0]
     dc6:	f014 0204 	ands.w	r2, r4, #4
     dca:	bf18      	it	ne
     dcc:	461a      	movne	r2, r3
     dce:	f014 0008 	ands.w	r0, r4, #8
     dd2:	f002 0201 	and.w	r2, r2, #1
     dd6:	d03b      	beq.n	e50 <alt_clk_pll_bypass_enable+0xec>
     dd8:	f003 0602 	and.w	r6, r3, #2
     ddc:	f3c3 0040 	ubfx	r0, r3, #1, #1
     de0:	b122      	cbz	r2, dec <alt_clk_pll_bypass_enable+0x88>
     de2:	f024 0304 	bic.w	r3, r4, #4
     de6:	b920      	cbnz	r0, df2 <alt_clk_pll_bypass_enable+0x8e>
     de8:	602b      	str	r3, [r5, #0]
     dea:	e007      	b.n	dfc <alt_clk_pll_bypass_enable+0x98>
     dec:	2e00      	cmp	r6, #0
     dee:	d031      	beq.n	e54 <alt_clk_pll_bypass_enable+0xf0>
     df0:	4623      	mov	r3, r4
     df2:	f023 0308 	bic.w	r3, r3, #8
     df6:	2001      	movs	r0, #1
     df8:	4302      	orrs	r2, r0
     dfa:	d1f5      	bne.n	de8 <alt_clk_pll_bypass_enable+0x84>
     dfc:	4e19      	ldr	r6, [pc, #100]	; (e64 <alt_clk_pll_bypass_enable+0x100>)
     dfe:	2900      	cmp	r1, #0
     e00:	bf14      	ite	ne
     e02:	2318      	movne	r3, #24
     e04:	2308      	moveq	r3, #8
     e06:	211e      	movs	r1, #30
     e08:	6830      	ldr	r0, [r6, #0]
     e0a:	f020 0018 	bic.w	r0, r0, #24
     e0e:	4303      	orrs	r3, r0
     e10:	4813      	ldr	r0, [pc, #76]	; (e60 <alt_clk_pll_bypass_enable+0xfc>)
     e12:	6033      	str	r3, [r6, #0]
     e14:	f7ff fe46 	bl	aa4 <alt_clk_mgr_wait>
     e18:	2a00      	cmp	r2, #0
     e1a:	d0ca      	beq.n	db2 <alt_clk_pll_bypass_enable+0x4e>
     e1c:	602c      	str	r4, [r5, #0]
     e1e:	e7c8      	b.n	db2 <alt_clk_pll_bypass_enable+0x4e>
     e20:	280b      	cmp	r0, #11
     e22:	d10d      	bne.n	e40 <alt_clk_pll_bypass_enable+0xdc>
     e24:	f5a0 103f 	sub.w	r0, r0, #3129344	; 0x2fc000
     e28:	2900      	cmp	r1, #0
     e2a:	f1a0 0007 	sub.w	r0, r0, #7
     e2e:	6802      	ldr	r2, [r0, #0]
     e30:	bf14      	ite	ne
     e32:	2306      	movne	r3, #6
     e34:	2302      	moveq	r3, #2
     e36:	f022 0206 	bic.w	r2, r2, #6
     e3a:	4313      	orrs	r3, r2
     e3c:	6003      	str	r3, [r0, #0]
     e3e:	e7b8      	b.n	db2 <alt_clk_pll_bypass_enable+0x4e>
     e40:	f06f 0008 	mvn.w	r0, #8
     e44:	bd70      	pop	{r4, r5, r6, pc}
     e46:	2b00      	cmp	r3, #0
     e48:	d1a2      	bne.n	d90 <alt_clk_pll_bypass_enable+0x2c>
     e4a:	4619      	mov	r1, r3
     e4c:	4622      	mov	r2, r4
     e4e:	e7a4      	b.n	d9a <alt_clk_pll_bypass_enable+0x36>
     e50:	2a00      	cmp	r2, #0
     e52:	d1c6      	bne.n	de2 <alt_clk_pll_bypass_enable+0x7e>
     e54:	4610      	mov	r0, r2
     e56:	4623      	mov	r3, r4
     e58:	e7ce      	b.n	df8 <alt_clk_pll_bypass_enable+0x94>
     e5a:	bf00      	nop
     e5c:	ffd04070 	.word	0xffd04070
     e60:	ffd04060 	.word	0xffd04060
     e64:	ffd04004 	.word	0xffd04004

00000e68 <alt_clk_pll_is_bypassed>:
     e68:	2809      	cmp	r0, #9
     e6a:	d108      	bne.n	e7e <alt_clk_pll_is_bypassed+0x16>
     e6c:	4b11      	ldr	r3, [pc, #68]	; (eb4 <alt_clk_pll_is_bypassed+0x4c>)
     e6e:	681b      	ldr	r3, [r3, #0]
     e70:	07d9      	lsls	r1, r3, #31
     e72:	d41d      	bmi.n	eb0 <alt_clk_pll_is_bypassed+0x48>
     e74:	4b10      	ldr	r3, [pc, #64]	; (eb8 <alt_clk_pll_is_bypassed+0x50>)
     e76:	6818      	ldr	r0, [r3, #0]
     e78:	f000 0001 	and.w	r0, r0, #1
     e7c:	4770      	bx	lr
     e7e:	280a      	cmp	r0, #10
     e80:	d108      	bne.n	e94 <alt_clk_pll_is_bypassed+0x2c>
     e82:	4b0c      	ldr	r3, [pc, #48]	; (eb4 <alt_clk_pll_is_bypassed+0x4c>)
     e84:	681b      	ldr	r3, [r3, #0]
     e86:	07da      	lsls	r2, r3, #31
     e88:	d412      	bmi.n	eb0 <alt_clk_pll_is_bypassed+0x48>
     e8a:	4b0b      	ldr	r3, [pc, #44]	; (eb8 <alt_clk_pll_is_bypassed+0x50>)
     e8c:	6818      	ldr	r0, [r3, #0]
     e8e:	f3c0 00c0 	ubfx	r0, r0, #3, #1
     e92:	4770      	bx	lr
     e94:	280b      	cmp	r0, #11
     e96:	d108      	bne.n	eaa <alt_clk_pll_is_bypassed+0x42>
     e98:	4b06      	ldr	r3, [pc, #24]	; (eb4 <alt_clk_pll_is_bypassed+0x4c>)
     e9a:	681b      	ldr	r3, [r3, #0]
     e9c:	07db      	lsls	r3, r3, #31
     e9e:	d407      	bmi.n	eb0 <alt_clk_pll_is_bypassed+0x48>
     ea0:	4b05      	ldr	r3, [pc, #20]	; (eb8 <alt_clk_pll_is_bypassed+0x50>)
     ea2:	6818      	ldr	r0, [r3, #0]
     ea4:	f3c0 0040 	ubfx	r0, r0, #1, #1
     ea8:	4770      	bx	lr
     eaa:	f06f 0008 	mvn.w	r0, #8
     eae:	4770      	bx	lr
     eb0:	2001      	movs	r0, #1
     eb2:	4770      	bx	lr
     eb4:	ffd04000 	.word	0xffd04000
     eb8:	ffd04004 	.word	0xffd04004

00000ebc <alt_clk_pll_source_get>:
     ebc:	2809      	cmp	r0, #9
     ebe:	d011      	beq.n	ee4 <alt_clk_pll_source_get+0x28>
     ec0:	280a      	cmp	r0, #10
     ec2:	d10b      	bne.n	edc <alt_clk_pll_source_get+0x20>
     ec4:	4b09      	ldr	r3, [pc, #36]	; (eec <alt_clk_pll_source_get+0x30>)
     ec6:	6818      	ldr	r0, [r3, #0]
     ec8:	f3c0 5081 	ubfx	r0, r0, #22, #2
     ecc:	b168      	cbz	r0, eea <alt_clk_pll_source_get+0x2e>
     ece:	2801      	cmp	r0, #1
     ed0:	d00b      	beq.n	eea <alt_clk_pll_source_get+0x2e>
     ed2:	2802      	cmp	r0, #2
     ed4:	bf14      	ite	ne
     ed6:	204b      	movne	r0, #75	; 0x4b
     ed8:	2002      	moveq	r0, #2
     eda:	4770      	bx	lr
     edc:	280b      	cmp	r0, #11
     ede:	d103      	bne.n	ee8 <alt_clk_pll_source_get+0x2c>
     ee0:	f7ff be12 	b.w	b08 <alt_clk_pll_source_get.part.3>
     ee4:	2000      	movs	r0, #0
     ee6:	4770      	bx	lr
     ee8:	204b      	movs	r0, #75	; 0x4b
     eea:	4770      	bx	lr
     eec:	ffd04080 	.word	0xffd04080

00000ef0 <alt_clk_clock_disable>:
     ef0:	b508      	push	{r3, lr}
     ef2:	f1a0 0309 	sub.w	r3, r0, #9
     ef6:	2b37      	cmp	r3, #55	; 0x37
     ef8:	d81d      	bhi.n	f36 <alt_clk_clock_disable+0x46>
     efa:	e8df f003 	tbb	[pc, r3]
     efe:	1f1f      	.short	0x1f1f
     f00:	1c1c1c1f 	.word	0x1c1c1c1f
     f04:	1c1c1c1c 	.word	0x1c1c1c1c
     f08:	1c1c1c1c 	.word	0x1c1c1c1c
     f0c:	2e241c29 	.word	0x2e241c29
     f10:	44381c33 	.word	0x44381c33
     f14:	1c1c3f49 	.word	0x1c1c3f49
     f18:	1c1c534e 	.word	0x1c1c534e
     f1c:	1c1c1c1c 	.word	0x1c1c1c1c
     f20:	68725c7f 	.word	0x68725c7f
     f24:	5a58667f 	.word	0x5a58667f
     f28:	6462605e 	.word	0x6462605e
     f2c:	1c1c1c1c 	.word	0x1c1c1c1c
     f30:	79771c1c 	.word	0x79771c1c
     f34:	7d7b      	.short	0x7d7b
     f36:	f06f 0008 	mvn.w	r0, #8
     f3a:	bd08      	pop	{r3, pc}
     f3c:	2100      	movs	r1, #0
     f3e:	e8bd 4008 	ldmia.w	sp!, {r3, lr}
     f42:	f7ff bf0f 	b.w	d64 <alt_clk_pll_bypass_enable>
     f46:	4a2f      	ldr	r2, [pc, #188]	; (1004 <alt_clk_clock_disable+0x114>)
     f48:	6813      	ldr	r3, [r2, #0]
     f4a:	f023 0301 	bic.w	r3, r3, #1
     f4e:	e012      	b.n	f76 <alt_clk_clock_disable+0x86>
     f50:	4a2c      	ldr	r2, [pc, #176]	; (1004 <alt_clk_clock_disable+0x114>)
     f52:	6813      	ldr	r3, [r2, #0]
     f54:	f023 0302 	bic.w	r3, r3, #2
     f58:	e00d      	b.n	f76 <alt_clk_clock_disable+0x86>
     f5a:	4a2a      	ldr	r2, [pc, #168]	; (1004 <alt_clk_clock_disable+0x114>)
     f5c:	6813      	ldr	r3, [r2, #0]
     f5e:	f023 0304 	bic.w	r3, r3, #4
     f62:	e008      	b.n	f76 <alt_clk_clock_disable+0x86>
     f64:	4a27      	ldr	r2, [pc, #156]	; (1004 <alt_clk_clock_disable+0x114>)
     f66:	6813      	ldr	r3, [r2, #0]
     f68:	f023 0308 	bic.w	r3, r3, #8
     f6c:	e003      	b.n	f76 <alt_clk_clock_disable+0x86>
     f6e:	4a25      	ldr	r2, [pc, #148]	; (1004 <alt_clk_clock_disable+0x114>)
     f70:	6813      	ldr	r3, [r2, #0]
     f72:	f023 0310 	bic.w	r3, r3, #16
     f76:	6013      	str	r3, [r2, #0]
     f78:	2000      	movs	r0, #0
     f7a:	bd08      	pop	{r3, pc}
     f7c:	4a21      	ldr	r2, [pc, #132]	; (1004 <alt_clk_clock_disable+0x114>)
     f7e:	6813      	ldr	r3, [r2, #0]
     f80:	f023 0320 	bic.w	r3, r3, #32
     f84:	e7f7      	b.n	f76 <alt_clk_clock_disable+0x86>
     f86:	4a1f      	ldr	r2, [pc, #124]	; (1004 <alt_clk_clock_disable+0x114>)
     f88:	6813      	ldr	r3, [r2, #0]
     f8a:	f023 0340 	bic.w	r3, r3, #64	; 0x40
     f8e:	e7f2      	b.n	f76 <alt_clk_clock_disable+0x86>
     f90:	4a1c      	ldr	r2, [pc, #112]	; (1004 <alt_clk_clock_disable+0x114>)
     f92:	6813      	ldr	r3, [r2, #0]
     f94:	f023 0380 	bic.w	r3, r3, #128	; 0x80
     f98:	e7ed      	b.n	f76 <alt_clk_clock_disable+0x86>
     f9a:	4a1a      	ldr	r2, [pc, #104]	; (1004 <alt_clk_clock_disable+0x114>)
     f9c:	6813      	ldr	r3, [r2, #0]
     f9e:	f423 7380 	bic.w	r3, r3, #256	; 0x100
     fa2:	e7e8      	b.n	f76 <alt_clk_clock_disable+0x86>
     fa4:	4a17      	ldr	r2, [pc, #92]	; (1004 <alt_clk_clock_disable+0x114>)
     fa6:	6813      	ldr	r3, [r2, #0]
     fa8:	f423 7300 	bic.w	r3, r3, #512	; 0x200
     fac:	e7e3      	b.n	f76 <alt_clk_clock_disable+0x86>
     fae:	4a16      	ldr	r2, [pc, #88]	; (1008 <alt_clk_clock_disable+0x118>)
     fb0:	e7ca      	b.n	f48 <alt_clk_clock_disable+0x58>
     fb2:	4a15      	ldr	r2, [pc, #84]	; (1008 <alt_clk_clock_disable+0x118>)
     fb4:	e7cd      	b.n	f52 <alt_clk_clock_disable+0x62>
     fb6:	4a14      	ldr	r2, [pc, #80]	; (1008 <alt_clk_clock_disable+0x118>)
     fb8:	e7d5      	b.n	f66 <alt_clk_clock_disable+0x76>
     fba:	4a13      	ldr	r2, [pc, #76]	; (1008 <alt_clk_clock_disable+0x118>)
     fbc:	e7d8      	b.n	f70 <alt_clk_clock_disable+0x80>
     fbe:	4a12      	ldr	r2, [pc, #72]	; (1008 <alt_clk_clock_disable+0x118>)
     fc0:	e7dd      	b.n	f7e <alt_clk_clock_disable+0x8e>
     fc2:	4a11      	ldr	r2, [pc, #68]	; (1008 <alt_clk_clock_disable+0x118>)
     fc4:	e7e0      	b.n	f88 <alt_clk_clock_disable+0x98>
     fc6:	4a10      	ldr	r2, [pc, #64]	; (1008 <alt_clk_clock_disable+0x118>)
     fc8:	e7e3      	b.n	f92 <alt_clk_clock_disable+0xa2>
     fca:	4a0f      	ldr	r2, [pc, #60]	; (1008 <alt_clk_clock_disable+0x118>)
     fcc:	e7e6      	b.n	f9c <alt_clk_clock_disable+0xac>
     fce:	4a0e      	ldr	r2, [pc, #56]	; (1008 <alt_clk_clock_disable+0x118>)
     fd0:	2108      	movs	r1, #8
     fd2:	6813      	ldr	r3, [r2, #0]
     fd4:	4610      	mov	r0, r2
     fd6:	f423 6380 	bic.w	r3, r3, #1024	; 0x400
     fda:	6013      	str	r3, [r2, #0]
     fdc:	f7ff fd62 	bl	aa4 <alt_clk_mgr_wait>
     fe0:	e7e1      	b.n	fa6 <alt_clk_clock_disable+0xb6>
     fe2:	4a09      	ldr	r2, [pc, #36]	; (1008 <alt_clk_clock_disable+0x118>)
     fe4:	6813      	ldr	r3, [r2, #0]
     fe6:	f423 6300 	bic.w	r3, r3, #2048	; 0x800
     fea:	e7c4      	b.n	f76 <alt_clk_clock_disable+0x86>
     fec:	4a07      	ldr	r2, [pc, #28]	; (100c <alt_clk_clock_disable+0x11c>)
     fee:	e7ab      	b.n	f48 <alt_clk_clock_disable+0x58>
     ff0:	4a06      	ldr	r2, [pc, #24]	; (100c <alt_clk_clock_disable+0x11c>)
     ff2:	e7ae      	b.n	f52 <alt_clk_clock_disable+0x62>
     ff4:	4a05      	ldr	r2, [pc, #20]	; (100c <alt_clk_clock_disable+0x11c>)
     ff6:	e7b1      	b.n	f5c <alt_clk_clock_disable+0x6c>
     ff8:	4a04      	ldr	r2, [pc, #16]	; (100c <alt_clk_clock_disable+0x11c>)
     ffa:	e7b4      	b.n	f66 <alt_clk_clock_disable+0x76>
     ffc:	f06f 000d 	mvn.w	r0, #13
    1000:	bd08      	pop	{r3, pc}
    1002:	bf00      	nop
    1004:	ffd04060 	.word	0xffd04060
    1008:	ffd040a0 	.word	0xffd040a0
    100c:	ffd040d8 	.word	0xffd040d8

00001010 <alt_clk_clock_enable>:
    1010:	b508      	push	{r3, lr}
    1012:	f1a0 0309 	sub.w	r3, r0, #9
    1016:	2b37      	cmp	r3, #55	; 0x37
    1018:	f200 808b 	bhi.w	1132 <alt_clk_clock_enable+0x122>
    101c:	e8df f003 	tbb	[pc, r3]
    1020:	891c1c1c 	.word	0x891c1c1c
    1024:	89898989 	.word	0x89898989
    1028:	89898989 	.word	0x89898989
    102c:	89258989 	.word	0x89258989
    1030:	892f2a20 	.word	0x892f2a20
    1034:	39433e34 	.word	0x39433e34
    1038:	4d488989 	.word	0x4d488989
    103c:	89898989 	.word	0x89898989
    1040:	59578989 	.word	0x59578989
    1044:	636f657c 	.word	0x636f657c
    1048:	5d5b5553 	.word	0x5d5b5553
    104c:	8989615f 	.word	0x8989615f
    1050:	89898989 	.word	0x89898989
    1054:	87858381 	.word	0x87858381
    1058:	e8bd 4008 	ldmia.w	sp!, {r3, lr}
    105c:	f7ff bde4 	b.w	c28 <alt_clk_pll_bypass_disable>
    1060:	4a35      	ldr	r2, [pc, #212]	; (1138 <alt_clk_clock_enable+0x128>)
    1062:	6813      	ldr	r3, [r2, #0]
    1064:	f043 0301 	orr.w	r3, r3, #1
    1068:	e02b      	b.n	10c2 <alt_clk_clock_enable+0xb2>
    106a:	4a33      	ldr	r2, [pc, #204]	; (1138 <alt_clk_clock_enable+0x128>)
    106c:	6813      	ldr	r3, [r2, #0]
    106e:	f043 0302 	orr.w	r3, r3, #2
    1072:	e026      	b.n	10c2 <alt_clk_clock_enable+0xb2>
    1074:	4a30      	ldr	r2, [pc, #192]	; (1138 <alt_clk_clock_enable+0x128>)
    1076:	6813      	ldr	r3, [r2, #0]
    1078:	f043 0304 	orr.w	r3, r3, #4
    107c:	e021      	b.n	10c2 <alt_clk_clock_enable+0xb2>
    107e:	4a2e      	ldr	r2, [pc, #184]	; (1138 <alt_clk_clock_enable+0x128>)
    1080:	6813      	ldr	r3, [r2, #0]
    1082:	f043 0308 	orr.w	r3, r3, #8
    1086:	e01c      	b.n	10c2 <alt_clk_clock_enable+0xb2>
    1088:	4a2b      	ldr	r2, [pc, #172]	; (1138 <alt_clk_clock_enable+0x128>)
    108a:	6813      	ldr	r3, [r2, #0]
    108c:	f043 0310 	orr.w	r3, r3, #16
    1090:	e017      	b.n	10c2 <alt_clk_clock_enable+0xb2>
    1092:	4a29      	ldr	r2, [pc, #164]	; (1138 <alt_clk_clock_enable+0x128>)
    1094:	6813      	ldr	r3, [r2, #0]
    1096:	f043 0320 	orr.w	r3, r3, #32
    109a:	e012      	b.n	10c2 <alt_clk_clock_enable+0xb2>
    109c:	4a26      	ldr	r2, [pc, #152]	; (1138 <alt_clk_clock_enable+0x128>)
    109e:	6813      	ldr	r3, [r2, #0]
    10a0:	f043 0340 	orr.w	r3, r3, #64	; 0x40
    10a4:	e00d      	b.n	10c2 <alt_clk_clock_enable+0xb2>
    10a6:	4a24      	ldr	r2, [pc, #144]	; (1138 <alt_clk_clock_enable+0x128>)
    10a8:	6813      	ldr	r3, [r2, #0]
    10aa:	f043 0380 	orr.w	r3, r3, #128	; 0x80
    10ae:	e008      	b.n	10c2 <alt_clk_clock_enable+0xb2>
    10b0:	4a21      	ldr	r2, [pc, #132]	; (1138 <alt_clk_clock_enable+0x128>)
    10b2:	6813      	ldr	r3, [r2, #0]
    10b4:	f443 7380 	orr.w	r3, r3, #256	; 0x100
    10b8:	e003      	b.n	10c2 <alt_clk_clock_enable+0xb2>
    10ba:	4a1f      	ldr	r2, [pc, #124]	; (1138 <alt_clk_clock_enable+0x128>)
    10bc:	6813      	ldr	r3, [r2, #0]
    10be:	f443 7300 	orr.w	r3, r3, #512	; 0x200
    10c2:	6013      	str	r3, [r2, #0]
    10c4:	e019      	b.n	10fa <alt_clk_clock_enable+0xea>
    10c6:	4a1d      	ldr	r2, [pc, #116]	; (113c <alt_clk_clock_enable+0x12c>)
    10c8:	e7cb      	b.n	1062 <alt_clk_clock_enable+0x52>
    10ca:	4a1c      	ldr	r2, [pc, #112]	; (113c <alt_clk_clock_enable+0x12c>)
    10cc:	e7ce      	b.n	106c <alt_clk_clock_enable+0x5c>
    10ce:	4a1b      	ldr	r2, [pc, #108]	; (113c <alt_clk_clock_enable+0x12c>)
    10d0:	e7d1      	b.n	1076 <alt_clk_clock_enable+0x66>
    10d2:	4a1a      	ldr	r2, [pc, #104]	; (113c <alt_clk_clock_enable+0x12c>)
    10d4:	e7d4      	b.n	1080 <alt_clk_clock_enable+0x70>
    10d6:	4a19      	ldr	r2, [pc, #100]	; (113c <alt_clk_clock_enable+0x12c>)
    10d8:	e7d7      	b.n	108a <alt_clk_clock_enable+0x7a>
    10da:	4a18      	ldr	r2, [pc, #96]	; (113c <alt_clk_clock_enable+0x12c>)
    10dc:	e7da      	b.n	1094 <alt_clk_clock_enable+0x84>
    10de:	4a17      	ldr	r2, [pc, #92]	; (113c <alt_clk_clock_enable+0x12c>)
    10e0:	e7dd      	b.n	109e <alt_clk_clock_enable+0x8e>
    10e2:	4a16      	ldr	r2, [pc, #88]	; (113c <alt_clk_clock_enable+0x12c>)
    10e4:	e7e0      	b.n	10a8 <alt_clk_clock_enable+0x98>
    10e6:	4a15      	ldr	r2, [pc, #84]	; (113c <alt_clk_clock_enable+0x12c>)
    10e8:	e7e3      	b.n	10b2 <alt_clk_clock_enable+0xa2>
    10ea:	4814      	ldr	r0, [pc, #80]	; (113c <alt_clk_clock_enable+0x12c>)
    10ec:	2108      	movs	r1, #8
    10ee:	6803      	ldr	r3, [r0, #0]
    10f0:	f443 7300 	orr.w	r3, r3, #512	; 0x200
    10f4:	6003      	str	r3, [r0, #0]
    10f6:	f7ff fcd5 	bl	aa4 <alt_clk_mgr_wait>
    10fa:	2000      	movs	r0, #0
    10fc:	bd08      	pop	{r3, pc}
    10fe:	4a0f      	ldr	r2, [pc, #60]	; (113c <alt_clk_clock_enable+0x12c>)
    1100:	2108      	movs	r1, #8
    1102:	6813      	ldr	r3, [r2, #0]
    1104:	4610      	mov	r0, r2
    1106:	f443 7300 	orr.w	r3, r3, #512	; 0x200
    110a:	6013      	str	r3, [r2, #0]
    110c:	f7ff fcca 	bl	aa4 <alt_clk_mgr_wait>
    1110:	6813      	ldr	r3, [r2, #0]
    1112:	f443 6380 	orr.w	r3, r3, #1024	; 0x400
    1116:	e7d4      	b.n	10c2 <alt_clk_clock_enable+0xb2>
    1118:	4a08      	ldr	r2, [pc, #32]	; (113c <alt_clk_clock_enable+0x12c>)
    111a:	6813      	ldr	r3, [r2, #0]
    111c:	f443 6300 	orr.w	r3, r3, #2048	; 0x800
    1120:	e7cf      	b.n	10c2 <alt_clk_clock_enable+0xb2>
    1122:	4a07      	ldr	r2, [pc, #28]	; (1140 <alt_clk_clock_enable+0x130>)
    1124:	e79d      	b.n	1062 <alt_clk_clock_enable+0x52>
    1126:	4a06      	ldr	r2, [pc, #24]	; (1140 <alt_clk_clock_enable+0x130>)
    1128:	e7a0      	b.n	106c <alt_clk_clock_enable+0x5c>
    112a:	4a05      	ldr	r2, [pc, #20]	; (1140 <alt_clk_clock_enable+0x130>)
    112c:	e7a3      	b.n	1076 <alt_clk_clock_enable+0x66>
    112e:	4a04      	ldr	r2, [pc, #16]	; (1140 <alt_clk_clock_enable+0x130>)
    1130:	e7a6      	b.n	1080 <alt_clk_clock_enable+0x70>
    1132:	f06f 0008 	mvn.w	r0, #8
    1136:	bd08      	pop	{r3, pc}
    1138:	ffd04060 	.word	0xffd04060
    113c:	ffd040a0 	.word	0xffd040a0
    1140:	ffd040d8 	.word	0xffd040d8

00001144 <alt_clk_is_enabled>:
    1144:	b508      	push	{r3, lr}
    1146:	f1a0 0309 	sub.w	r3, r0, #9
    114a:	2b37      	cmp	r3, #55	; 0x37
    114c:	d87c      	bhi.n	1248 <alt_clk_is_enabled+0x104>
    114e:	e8df f003 	tbb	[pc, r3]
    1152:	1c1c      	.short	0x1c1c
    1154:	7b7b7b1c 	.word	0x7b7b7b1c
    1158:	7b7b7b7b 	.word	0x7b7b7b7b
    115c:	7b7b7b7b 	.word	0x7b7b7b7b
    1160:	2d237b28 	.word	0x2d237b28
    1164:	41377b32 	.word	0x41377b32
    1168:	7b7b3c46 	.word	0x7b7b3c46
    116c:	7b7b504b 	.word	0x7b7b504b
    1170:	7b7b7b7b 	.word	0x7b7b7b7b
    1174:	676e5b59 	.word	0x676e5b59
    1178:	57556569 	.word	0x57556569
    117c:	63615f5d 	.word	0x63615f5d
    1180:	7b7b7b7b 	.word	0x7b7b7b7b
    1184:	75737b7b 	.word	0x75737b7b
    1188:	7977      	.short	0x7977
    118a:	f7ff fe6d 	bl	e68 <alt_clk_pll_is_bypassed>
    118e:	f110 30ff 	adds.w	r0, r0, #4294967295
    1192:	bf18      	it	ne
    1194:	2001      	movne	r0, #1
    1196:	bd08      	pop	{r3, pc}
    1198:	4b2d      	ldr	r3, [pc, #180]	; (1250 <alt_clk_is_enabled+0x10c>)
    119a:	6818      	ldr	r0, [r3, #0]
    119c:	f000 0001 	and.w	r0, r0, #1
    11a0:	bd08      	pop	{r3, pc}
    11a2:	4b2b      	ldr	r3, [pc, #172]	; (1250 <alt_clk_is_enabled+0x10c>)
    11a4:	6818      	ldr	r0, [r3, #0]
    11a6:	f3c0 0040 	ubfx	r0, r0, #1, #1
    11aa:	bd08      	pop	{r3, pc}
    11ac:	4b28      	ldr	r3, [pc, #160]	; (1250 <alt_clk_is_enabled+0x10c>)
    11ae:	6818      	ldr	r0, [r3, #0]
    11b0:	f3c0 0080 	ubfx	r0, r0, #2, #1
    11b4:	bd08      	pop	{r3, pc}
    11b6:	4b26      	ldr	r3, [pc, #152]	; (1250 <alt_clk_is_enabled+0x10c>)
    11b8:	6818      	ldr	r0, [r3, #0]
    11ba:	f3c0 00c0 	ubfx	r0, r0, #3, #1
    11be:	bd08      	pop	{r3, pc}
    11c0:	4b23      	ldr	r3, [pc, #140]	; (1250 <alt_clk_is_enabled+0x10c>)
    11c2:	6818      	ldr	r0, [r3, #0]
    11c4:	f3c0 1000 	ubfx	r0, r0, #4, #1
    11c8:	bd08      	pop	{r3, pc}
    11ca:	4b21      	ldr	r3, [pc, #132]	; (1250 <alt_clk_is_enabled+0x10c>)
    11cc:	6818      	ldr	r0, [r3, #0]
    11ce:	f3c0 1040 	ubfx	r0, r0, #5, #1
    11d2:	bd08      	pop	{r3, pc}
    11d4:	4b1e      	ldr	r3, [pc, #120]	; (1250 <alt_clk_is_enabled+0x10c>)
    11d6:	6818      	ldr	r0, [r3, #0]
    11d8:	f3c0 1080 	ubfx	r0, r0, #6, #1
    11dc:	bd08      	pop	{r3, pc}
    11de:	4b1c      	ldr	r3, [pc, #112]	; (1250 <alt_clk_is_enabled+0x10c>)
    11e0:	6818      	ldr	r0, [r3, #0]
    11e2:	f3c0 10c0 	ubfx	r0, r0, #7, #1
    11e6:	bd08      	pop	{r3, pc}
    11e8:	4b19      	ldr	r3, [pc, #100]	; (1250 <alt_clk_is_enabled+0x10c>)
    11ea:	6818      	ldr	r0, [r3, #0]
    11ec:	f3c0 2000 	ubfx	r0, r0, #8, #1
    11f0:	bd08      	pop	{r3, pc}
    11f2:	4b17      	ldr	r3, [pc, #92]	; (1250 <alt_clk_is_enabled+0x10c>)
    11f4:	6818      	ldr	r0, [r3, #0]
    11f6:	f3c0 2040 	ubfx	r0, r0, #9, #1
    11fa:	bd08      	pop	{r3, pc}
    11fc:	4b15      	ldr	r3, [pc, #84]	; (1254 <alt_clk_is_enabled+0x110>)
    11fe:	e7cc      	b.n	119a <alt_clk_is_enabled+0x56>
    1200:	4b14      	ldr	r3, [pc, #80]	; (1254 <alt_clk_is_enabled+0x110>)
    1202:	e7cf      	b.n	11a4 <alt_clk_is_enabled+0x60>
    1204:	4b13      	ldr	r3, [pc, #76]	; (1254 <alt_clk_is_enabled+0x110>)
    1206:	e7d2      	b.n	11ae <alt_clk_is_enabled+0x6a>
    1208:	4b12      	ldr	r3, [pc, #72]	; (1254 <alt_clk_is_enabled+0x110>)
    120a:	e7d5      	b.n	11b8 <alt_clk_is_enabled+0x74>
    120c:	4b11      	ldr	r3, [pc, #68]	; (1254 <alt_clk_is_enabled+0x110>)
    120e:	e7d8      	b.n	11c2 <alt_clk_is_enabled+0x7e>
    1210:	4b10      	ldr	r3, [pc, #64]	; (1254 <alt_clk_is_enabled+0x110>)
    1212:	e7db      	b.n	11cc <alt_clk_is_enabled+0x88>
    1214:	4b0f      	ldr	r3, [pc, #60]	; (1254 <alt_clk_is_enabled+0x110>)
    1216:	e7de      	b.n	11d6 <alt_clk_is_enabled+0x92>
    1218:	4b0e      	ldr	r3, [pc, #56]	; (1254 <alt_clk_is_enabled+0x110>)
    121a:	e7e1      	b.n	11e0 <alt_clk_is_enabled+0x9c>
    121c:	4b0d      	ldr	r3, [pc, #52]	; (1254 <alt_clk_is_enabled+0x110>)
    121e:	e7e4      	b.n	11ea <alt_clk_is_enabled+0xa6>
    1220:	4b0c      	ldr	r3, [pc, #48]	; (1254 <alt_clk_is_enabled+0x110>)
    1222:	e7e7      	b.n	11f4 <alt_clk_is_enabled+0xb0>
    1224:	4b0b      	ldr	r3, [pc, #44]	; (1254 <alt_clk_is_enabled+0x110>)
    1226:	6818      	ldr	r0, [r3, #0]
    1228:	f3c0 2080 	ubfx	r0, r0, #10, #1
    122c:	bd08      	pop	{r3, pc}
    122e:	4b09      	ldr	r3, [pc, #36]	; (1254 <alt_clk_is_enabled+0x110>)
    1230:	6818      	ldr	r0, [r3, #0]
    1232:	f3c0 20c0 	ubfx	r0, r0, #11, #1
    1236:	bd08      	pop	{r3, pc}
    1238:	4b07      	ldr	r3, [pc, #28]	; (1258 <alt_clk_is_enabled+0x114>)
    123a:	e7ae      	b.n	119a <alt_clk_is_enabled+0x56>
    123c:	4b06      	ldr	r3, [pc, #24]	; (1258 <alt_clk_is_enabled+0x114>)
    123e:	e7b1      	b.n	11a4 <alt_clk_is_enabled+0x60>
    1240:	4b05      	ldr	r3, [pc, #20]	; (1258 <alt_clk_is_enabled+0x114>)
    1242:	e7b4      	b.n	11ae <alt_clk_is_enabled+0x6a>
    1244:	4b04      	ldr	r3, [pc, #16]	; (1258 <alt_clk_is_enabled+0x114>)
    1246:	e7b7      	b.n	11b8 <alt_clk_is_enabled+0x74>
    1248:	f06f 0008 	mvn.w	r0, #8
    124c:	bd08      	pop	{r3, pc}
    124e:	bf00      	nop
    1250:	ffd04060 	.word	0xffd04060
    1254:	ffd040a0 	.word	0xffd040a0
    1258:	ffd040d8 	.word	0xffd040d8

0000125c <alt_clk_source_get>:
    125c:	b508      	push	{r3, lr}
    125e:	284a      	cmp	r0, #74	; 0x4a
    1260:	f200 80ed 	bhi.w	143e <alt_clk_source_get+0x1e2>
    1264:	e8df f000 	tbb	[pc, r0]
    1268:	e3e3e3e3 	.word	0xe3e3e3e3
    126c:	e3e3e3e3 	.word	0xe3e3e3e3
    1270:	c47a2ce3 	.word	0xc47a2ce3
    1274:	2626262c 	.word	0x2626262c
    1278:	2e262626 	.word	0x2e262626
    127c:	3a3a2e2e 	.word	0x3a3a2e2e
    1280:	48353a3a 	.word	0x48353a3a
    1284:	4d4d4d4d 	.word	0x4d4d4d4d
    1288:	635c554d 	.word	0x635c554d
    128c:	6a6a6a63 	.word	0x6a6a6a63
    1290:	416a6a6a 	.word	0x416a6a6a
    1294:	a0a0a841 	.word	0xa0a0a841
    1298:	417c758a 	.word	0x417c758a
    129c:	bf834141 	.word	0xbf834141
    12a0:	bfbfbfbf 	.word	0xbfbfbfbf
    12a4:	d6cfc8bf 	.word	0xd6cfc8bf
    12a8:	ebebebdd 	.word	0xebebebdd
    12ac:	ebebebeb 	.word	0xebebebeb
    12b0:	ebeb      	.short	0xebeb
    12b2:	eb          	.byte	0xeb
    12b3:	00          	.byte	0x00
    12b4:	2009      	movs	r0, #9
    12b6:	f7ff fdd7 	bl	e68 <alt_clk_pll_is_bypassed>
    12ba:	2801      	cmp	r0, #1
    12bc:	f040 80b8 	bne.w	1430 <alt_clk_source_get+0x1d4>
    12c0:	2000      	movs	r0, #0
    12c2:	bd08      	pop	{r3, pc}
    12c4:	2009      	movs	r0, #9
    12c6:	f7ff fdcf 	bl	e68 <alt_clk_pll_is_bypassed>
    12ca:	2801      	cmp	r0, #1
    12cc:	d0f8      	beq.n	12c0 <alt_clk_source_get+0x64>
    12ce:	200d      	movs	r0, #13
    12d0:	bd08      	pop	{r3, pc}
    12d2:	4b5d      	ldr	r3, [pc, #372]	; (1448 <alt_clk_source_get+0x1ec>)
    12d4:	681b      	ldr	r3, [r3, #0]
    12d6:	f013 0f01 	tst.w	r3, #1
    12da:	d106      	bne.n	12ea <alt_clk_source_get+0x8e>
    12dc:	2009      	movs	r0, #9
    12de:	f7ff fdc3 	bl	e68 <alt_clk_pll_is_bypassed>
    12e2:	2801      	cmp	r0, #1
    12e4:	d0ec      	beq.n	12c0 <alt_clk_source_get+0x64>
    12e6:	200e      	movs	r0, #14
    12e8:	bd08      	pop	{r3, pc}
    12ea:	200a      	movs	r0, #10
    12ec:	f7ff fdbc 	bl	e68 <alt_clk_pll_is_bypassed>
    12f0:	2801      	cmp	r0, #1
    12f2:	d033      	beq.n	135c <alt_clk_source_get+0x100>
    12f4:	2029      	movs	r0, #41	; 0x29
    12f6:	bd08      	pop	{r3, pc}
    12f8:	4b53      	ldr	r3, [pc, #332]	; (1448 <alt_clk_source_get+0x1ec>)
    12fa:	681b      	ldr	r3, [r3, #0]
    12fc:	f013 0f02 	tst.w	r3, #2
    1300:	e7eb      	b.n	12da <alt_clk_source_get+0x7e>
    1302:	2009      	movs	r0, #9
    1304:	f7ff fdb0 	bl	e68 <alt_clk_pll_is_bypassed>
    1308:	2801      	cmp	r0, #1
    130a:	f040 8093 	bne.w	1434 <alt_clk_source_get+0x1d8>
    130e:	200c      	movs	r0, #12
    1310:	bd08      	pop	{r3, pc}
    1312:	2009      	movs	r0, #9
    1314:	f7ff fda8 	bl	e68 <alt_clk_pll_is_bypassed>
    1318:	2801      	cmp	r0, #1
    131a:	d0f8      	beq.n	130e <alt_clk_source_get+0xb2>
    131c:	2010      	movs	r0, #16
    131e:	bd08      	pop	{r3, pc}
    1320:	2009      	movs	r0, #9
    1322:	f7ff fda1 	bl	e68 <alt_clk_pll_is_bypassed>
    1326:	2801      	cmp	r0, #1
    1328:	d0f1      	beq.n	130e <alt_clk_source_get+0xb2>
    132a:	2011      	movs	r0, #17
    132c:	bd08      	pop	{r3, pc}
    132e:	2009      	movs	r0, #9
    1330:	f7ff fd9a 	bl	e68 <alt_clk_pll_is_bypassed>
    1334:	2801      	cmp	r0, #1
    1336:	d0ea      	beq.n	130e <alt_clk_source_get+0xb2>
    1338:	2012      	movs	r0, #18
    133a:	bd08      	pop	{r3, pc}
    133c:	200a      	movs	r0, #10
    133e:	f7ff fd93 	bl	e68 <alt_clk_pll_is_bypassed>
    1342:	2801      	cmp	r0, #1
    1344:	f04f 000a 	mov.w	r0, #10
    1348:	d176      	bne.n	1438 <alt_clk_source_get+0x1dc>
    134a:	e8bd 4008 	ldmia.w	sp!, {r3, lr}
    134e:	f7ff bdb5 	b.w	ebc <alt_clk_pll_source_get>
    1352:	200a      	movs	r0, #10
    1354:	f7ff fd88 	bl	e68 <alt_clk_pll_is_bypassed>
    1358:	2801      	cmp	r0, #1
    135a:	d16e      	bne.n	143a <alt_clk_source_get+0x1de>
    135c:	200a      	movs	r0, #10
    135e:	e7f4      	b.n	134a <alt_clk_source_get+0xee>
    1360:	200a      	movs	r0, #10
    1362:	f7ff fd81 	bl	e68 <alt_clk_pll_is_bypassed>
    1366:	2801      	cmp	r0, #1
    1368:	d0f8      	beq.n	135c <alt_clk_source_get+0x100>
    136a:	2026      	movs	r0, #38	; 0x26
    136c:	bd08      	pop	{r3, pc}
    136e:	200a      	movs	r0, #10
    1370:	f7ff fd7a 	bl	e68 <alt_clk_pll_is_bypassed>
    1374:	2801      	cmp	r0, #1
    1376:	d0f1      	beq.n	135c <alt_clk_source_get+0x100>
    1378:	202a      	movs	r0, #42	; 0x2a
    137a:	bd08      	pop	{r3, pc}
    137c:	4b33      	ldr	r3, [pc, #204]	; (144c <alt_clk_source_get+0x1f0>)
    137e:	681b      	ldr	r3, [r3, #0]
    1380:	f013 0303 	ands.w	r3, r3, #3
    1384:	d016      	beq.n	13b4 <alt_clk_source_get+0x158>
    1386:	2b01      	cmp	r3, #1
    1388:	d105      	bne.n	1396 <alt_clk_source_get+0x13a>
    138a:	2009      	movs	r0, #9
    138c:	f7ff fd6c 	bl	e68 <alt_clk_pll_is_bypassed>
    1390:	2801      	cmp	r0, #1
    1392:	d1ca      	bne.n	132a <alt_clk_source_get+0xce>
    1394:	e794      	b.n	12c0 <alt_clk_source_get+0x64>
    1396:	2b02      	cmp	r3, #2
    1398:	d151      	bne.n	143e <alt_clk_source_get+0x1e2>
    139a:	200a      	movs	r0, #10
    139c:	f7ff fd64 	bl	e68 <alt_clk_pll_is_bypassed>
    13a0:	2801      	cmp	r0, #1
    13a2:	d0db      	beq.n	135c <alt_clk_source_get+0x100>
    13a4:	2028      	movs	r0, #40	; 0x28
    13a6:	bd08      	pop	{r3, pc}
    13a8:	4b28      	ldr	r3, [pc, #160]	; (144c <alt_clk_source_get+0x1f0>)
    13aa:	681b      	ldr	r3, [r3, #0]
    13ac:	f3c3 0381 	ubfx	r3, r3, #2, #2
    13b0:	2b00      	cmp	r3, #0
    13b2:	d1e8      	bne.n	1386 <alt_clk_source_get+0x12a>
    13b4:	2002      	movs	r0, #2
    13b6:	bd08      	pop	{r3, pc}
    13b8:	4b24      	ldr	r3, [pc, #144]	; (144c <alt_clk_source_get+0x1f0>)
    13ba:	681b      	ldr	r3, [r3, #0]
    13bc:	f3c3 1301 	ubfx	r3, r3, #4, #2
    13c0:	2b00      	cmp	r3, #0
    13c2:	d0f7      	beq.n	13b4 <alt_clk_source_get+0x158>
    13c4:	2b01      	cmp	r3, #1
    13c6:	d105      	bne.n	13d4 <alt_clk_source_get+0x178>
    13c8:	2009      	movs	r0, #9
    13ca:	f7ff fd4d 	bl	e68 <alt_clk_pll_is_bypassed>
    13ce:	2801      	cmp	r0, #1
    13d0:	d1a4      	bne.n	131c <alt_clk_source_get+0xc0>
    13d2:	e775      	b.n	12c0 <alt_clk_source_get+0x64>
    13d4:	2b02      	cmp	r3, #2
    13d6:	d132      	bne.n	143e <alt_clk_source_get+0x1e2>
    13d8:	200a      	movs	r0, #10
    13da:	f7ff fd45 	bl	e68 <alt_clk_pll_is_bypassed>
    13de:	2801      	cmp	r0, #1
    13e0:	d0bc      	beq.n	135c <alt_clk_source_get+0x100>
    13e2:	2027      	movs	r0, #39	; 0x27
    13e4:	bd08      	pop	{r3, pc}
    13e6:	200b      	movs	r0, #11
    13e8:	f7ff fd3e 	bl	e68 <alt_clk_pll_is_bypassed>
    13ec:	2801      	cmp	r0, #1
    13ee:	d128      	bne.n	1442 <alt_clk_source_get+0x1e6>
    13f0:	e8bd 4008 	ldmia.w	sp!, {r3, lr}
    13f4:	f7ff bb88 	b.w	b08 <alt_clk_pll_source_get.part.3>
    13f8:	200b      	movs	r0, #11
    13fa:	f7ff fd35 	bl	e68 <alt_clk_pll_is_bypassed>
    13fe:	2801      	cmp	r0, #1
    1400:	d0f6      	beq.n	13f0 <alt_clk_source_get+0x194>
    1402:	2037      	movs	r0, #55	; 0x37
    1404:	bd08      	pop	{r3, pc}
    1406:	200b      	movs	r0, #11
    1408:	f7ff fd2e 	bl	e68 <alt_clk_pll_is_bypassed>
    140c:	2801      	cmp	r0, #1
    140e:	d0ef      	beq.n	13f0 <alt_clk_source_get+0x194>
    1410:	2038      	movs	r0, #56	; 0x38
    1412:	bd08      	pop	{r3, pc}
    1414:	200b      	movs	r0, #11
    1416:	f7ff fd27 	bl	e68 <alt_clk_pll_is_bypassed>
    141a:	2801      	cmp	r0, #1
    141c:	d0e8      	beq.n	13f0 <alt_clk_source_get+0x194>
    141e:	2039      	movs	r0, #57	; 0x39
    1420:	bd08      	pop	{r3, pc}
    1422:	200b      	movs	r0, #11
    1424:	f7ff fd20 	bl	e68 <alt_clk_pll_is_bypassed>
    1428:	2801      	cmp	r0, #1
    142a:	d0e1      	beq.n	13f0 <alt_clk_source_get+0x194>
    142c:	203c      	movs	r0, #60	; 0x3c
    142e:	bd08      	pop	{r3, pc}
    1430:	2009      	movs	r0, #9
    1432:	bd08      	pop	{r3, pc}
    1434:	200f      	movs	r0, #15
    1436:	bd08      	pop	{r3, pc}
    1438:	bd08      	pop	{r3, pc}
    143a:	2025      	movs	r0, #37	; 0x25
    143c:	bd08      	pop	{r3, pc}
    143e:	204b      	movs	r0, #75	; 0x4b
    1440:	bd08      	pop	{r3, pc}
    1442:	200b      	movs	r0, #11
    1444:	bd08      	pop	{r3, pc}
    1446:	bf00      	nop
    1448:	ffd04070 	.word	0xffd04070
    144c:	ffd040ac 	.word	0xffd040ac

00001450 <alt_clk_source_set>:
    1450:	2809      	cmp	r0, #9
    1452:	d106      	bne.n	1462 <alt_clk_source_set+0x12>
    1454:	b1b1      	cbz	r1, 1484 <alt_clk_source_set+0x34>
    1456:	290c      	cmp	r1, #12
    1458:	bf0c      	ite	eq
    145a:	2000      	moveq	r0, #0
    145c:	f06f 0008 	mvnne.w	r0, #8
    1460:	4770      	bx	lr
    1462:	280a      	cmp	r0, #10
    1464:	d115      	bne.n	1492 <alt_clk_source_set+0x42>
    1466:	4a44      	ldr	r2, [pc, #272]	; (1578 <alt_clk_source_set+0x128>)
    1468:	6813      	ldr	r3, [r2, #0]
    146a:	4610      	mov	r0, r2
    146c:	f423 0340 	bic.w	r3, r3, #12582912	; 0xc00000
    1470:	b109      	cbz	r1, 1476 <alt_clk_source_set+0x26>
    1472:	290c      	cmp	r1, #12
    1474:	d101      	bne.n	147a <alt_clk_source_set+0x2a>
    1476:	6003      	str	r3, [r0, #0]
    1478:	e004      	b.n	1484 <alt_clk_source_set+0x34>
    147a:	2901      	cmp	r1, #1
    147c:	d104      	bne.n	1488 <alt_clk_source_set+0x38>
    147e:	f443 0380 	orr.w	r3, r3, #4194304	; 0x400000
    1482:	6013      	str	r3, [r2, #0]
    1484:	2000      	movs	r0, #0
    1486:	4770      	bx	lr
    1488:	2902      	cmp	r1, #2
    148a:	d172      	bne.n	1572 <alt_clk_source_set+0x122>
    148c:	f443 0300 	orr.w	r3, r3, #8388608	; 0x800000
    1490:	e7f7      	b.n	1482 <alt_clk_source_set+0x32>
    1492:	280b      	cmp	r0, #11
    1494:	d10c      	bne.n	14b0 <alt_clk_source_set+0x60>
    1496:	4a39      	ldr	r2, [pc, #228]	; (157c <alt_clk_source_set+0x12c>)
    1498:	6813      	ldr	r3, [r2, #0]
    149a:	4610      	mov	r0, r2
    149c:	f423 0340 	bic.w	r3, r3, #12582912	; 0xc00000
    14a0:	2900      	cmp	r1, #0
    14a2:	d0e8      	beq.n	1476 <alt_clk_source_set+0x26>
    14a4:	290c      	cmp	r1, #12
    14a6:	d0e6      	beq.n	1476 <alt_clk_source_set+0x26>
    14a8:	2901      	cmp	r1, #1
    14aa:	d0e8      	beq.n	147e <alt_clk_source_set+0x2e>
    14ac:	2903      	cmp	r1, #3
    14ae:	e7ec      	b.n	148a <alt_clk_source_set+0x3a>
    14b0:	281a      	cmp	r0, #26
    14b2:	d10d      	bne.n	14d0 <alt_clk_source_set+0x80>
    14b4:	290e      	cmp	r1, #14
    14b6:	d104      	bne.n	14c2 <alt_clk_source_set+0x72>
    14b8:	4a31      	ldr	r2, [pc, #196]	; (1580 <alt_clk_source_set+0x130>)
    14ba:	6813      	ldr	r3, [r2, #0]
    14bc:	f023 0301 	bic.w	r3, r3, #1
    14c0:	e7df      	b.n	1482 <alt_clk_source_set+0x32>
    14c2:	2929      	cmp	r1, #41	; 0x29
    14c4:	d155      	bne.n	1572 <alt_clk_source_set+0x122>
    14c6:	4a2e      	ldr	r2, [pc, #184]	; (1580 <alt_clk_source_set+0x130>)
    14c8:	6813      	ldr	r3, [r2, #0]
    14ca:	f043 0301 	orr.w	r3, r3, #1
    14ce:	e7d8      	b.n	1482 <alt_clk_source_set+0x32>
    14d0:	281b      	cmp	r0, #27
    14d2:	d10d      	bne.n	14f0 <alt_clk_source_set+0xa0>
    14d4:	290e      	cmp	r1, #14
    14d6:	d104      	bne.n	14e2 <alt_clk_source_set+0x92>
    14d8:	4a29      	ldr	r2, [pc, #164]	; (1580 <alt_clk_source_set+0x130>)
    14da:	6813      	ldr	r3, [r2, #0]
    14dc:	f023 0302 	bic.w	r3, r3, #2
    14e0:	e7cf      	b.n	1482 <alt_clk_source_set+0x32>
    14e2:	2929      	cmp	r1, #41	; 0x29
    14e4:	d145      	bne.n	1572 <alt_clk_source_set+0x122>
    14e6:	4a26      	ldr	r2, [pc, #152]	; (1580 <alt_clk_source_set+0x130>)
    14e8:	6813      	ldr	r3, [r2, #0]
    14ea:	f043 0302 	orr.w	r3, r3, #2
    14ee:	e7c8      	b.n	1482 <alt_clk_source_set+0x32>
    14f0:	2830      	cmp	r0, #48	; 0x30
    14f2:	d112      	bne.n	151a <alt_clk_source_set+0xca>
    14f4:	4a23      	ldr	r2, [pc, #140]	; (1584 <alt_clk_source_set+0x134>)
    14f6:	2902      	cmp	r1, #2
    14f8:	6813      	ldr	r3, [r2, #0]
    14fa:	4610      	mov	r0, r2
    14fc:	f023 0303 	bic.w	r3, r3, #3
    1500:	d0bf      	beq.n	1482 <alt_clk_source_set+0x32>
    1502:	2911      	cmp	r1, #17
    1504:	d001      	beq.n	150a <alt_clk_source_set+0xba>
    1506:	2922      	cmp	r1, #34	; 0x22
    1508:	d102      	bne.n	1510 <alt_clk_source_set+0xc0>
    150a:	f043 0301 	orr.w	r3, r3, #1
    150e:	e7b2      	b.n	1476 <alt_clk_source_set+0x26>
    1510:	2928      	cmp	r1, #40	; 0x28
    1512:	d12e      	bne.n	1572 <alt_clk_source_set+0x122>
    1514:	f043 0302 	orr.w	r3, r3, #2
    1518:	e7ad      	b.n	1476 <alt_clk_source_set+0x26>
    151a:	f1a0 032e 	sub.w	r3, r0, #46	; 0x2e
    151e:	2b01      	cmp	r3, #1
    1520:	d812      	bhi.n	1548 <alt_clk_source_set+0xf8>
    1522:	4a18      	ldr	r2, [pc, #96]	; (1584 <alt_clk_source_set+0x134>)
    1524:	2902      	cmp	r1, #2
    1526:	6813      	ldr	r3, [r2, #0]
    1528:	4610      	mov	r0, r2
    152a:	f023 030c 	bic.w	r3, r3, #12
    152e:	d0a8      	beq.n	1482 <alt_clk_source_set+0x32>
    1530:	2911      	cmp	r1, #17
    1532:	d001      	beq.n	1538 <alt_clk_source_set+0xe8>
    1534:	2922      	cmp	r1, #34	; 0x22
    1536:	d102      	bne.n	153e <alt_clk_source_set+0xee>
    1538:	f043 0304 	orr.w	r3, r3, #4
    153c:	e79b      	b.n	1476 <alt_clk_source_set+0x26>
    153e:	2928      	cmp	r1, #40	; 0x28
    1540:	d117      	bne.n	1572 <alt_clk_source_set+0x122>
    1542:	f043 0308 	orr.w	r3, r3, #8
    1546:	e796      	b.n	1476 <alt_clk_source_set+0x26>
    1548:	282d      	cmp	r0, #45	; 0x2d
    154a:	d19b      	bne.n	1484 <alt_clk_source_set+0x34>
    154c:	4a0d      	ldr	r2, [pc, #52]	; (1584 <alt_clk_source_set+0x134>)
    154e:	2902      	cmp	r1, #2
    1550:	6813      	ldr	r3, [r2, #0]
    1552:	4610      	mov	r0, r2
    1554:	f023 0330 	bic.w	r3, r3, #48	; 0x30
    1558:	d093      	beq.n	1482 <alt_clk_source_set+0x32>
    155a:	2910      	cmp	r1, #16
    155c:	d001      	beq.n	1562 <alt_clk_source_set+0x112>
    155e:	2921      	cmp	r1, #33	; 0x21
    1560:	d102      	bne.n	1568 <alt_clk_source_set+0x118>
    1562:	f043 0310 	orr.w	r3, r3, #16
    1566:	e786      	b.n	1476 <alt_clk_source_set+0x26>
    1568:	2927      	cmp	r1, #39	; 0x27
    156a:	d102      	bne.n	1572 <alt_clk_source_set+0x122>
    156c:	f043 0320 	orr.w	r3, r3, #32
    1570:	e781      	b.n	1476 <alt_clk_source_set+0x26>
    1572:	f06f 000a 	mvn.w	r0, #10
    1576:	4770      	bx	lr
    1578:	ffd04080 	.word	0xffd04080
    157c:	ffd040c0 	.word	0xffd040c0
    1580:	ffd04070 	.word	0xffd04070
    1584:	ffd040ac 	.word	0xffd040ac

00001588 <alt_clk_ext_clk_freq_set>:
    1588:	b108      	cbz	r0, 158e <alt_clk_ext_clk_freq_set+0x6>
    158a:	280c      	cmp	r0, #12
    158c:	d109      	bne.n	15a2 <alt_clk_ext_clk_freq_set+0x1a>
    158e:	4b18      	ldr	r3, [pc, #96]	; (15f0 <alt_clk_ext_clk_freq_set+0x68>)
    1590:	685a      	ldr	r2, [r3, #4]
    1592:	4291      	cmp	r1, r2
    1594:	d329      	bcc.n	15ea <alt_clk_ext_clk_freq_set+0x62>
    1596:	689a      	ldr	r2, [r3, #8]
    1598:	4291      	cmp	r1, r2
    159a:	d826      	bhi.n	15ea <alt_clk_ext_clk_freq_set+0x62>
    159c:	6019      	str	r1, [r3, #0]
    159e:	2000      	movs	r0, #0
    15a0:	4770      	bx	lr
    15a2:	2801      	cmp	r0, #1
    15a4:	d108      	bne.n	15b8 <alt_clk_ext_clk_freq_set+0x30>
    15a6:	4b12      	ldr	r3, [pc, #72]	; (15f0 <alt_clk_ext_clk_freq_set+0x68>)
    15a8:	695a      	ldr	r2, [r3, #20]
    15aa:	428a      	cmp	r2, r1
    15ac:	d81d      	bhi.n	15ea <alt_clk_ext_clk_freq_set+0x62>
    15ae:	699a      	ldr	r2, [r3, #24]
    15b0:	4291      	cmp	r1, r2
    15b2:	d81a      	bhi.n	15ea <alt_clk_ext_clk_freq_set+0x62>
    15b4:	6119      	str	r1, [r3, #16]
    15b6:	e7f2      	b.n	159e <alt_clk_ext_clk_freq_set+0x16>
    15b8:	2802      	cmp	r0, #2
    15ba:	d108      	bne.n	15ce <alt_clk_ext_clk_freq_set+0x46>
    15bc:	4b0c      	ldr	r3, [pc, #48]	; (15f0 <alt_clk_ext_clk_freq_set+0x68>)
    15be:	6a5a      	ldr	r2, [r3, #36]	; 0x24
    15c0:	4291      	cmp	r1, r2
    15c2:	d312      	bcc.n	15ea <alt_clk_ext_clk_freq_set+0x62>
    15c4:	6a9a      	ldr	r2, [r3, #40]	; 0x28
    15c6:	4291      	cmp	r1, r2
    15c8:	d80f      	bhi.n	15ea <alt_clk_ext_clk_freq_set+0x62>
    15ca:	6219      	str	r1, [r3, #32]
    15cc:	e7e7      	b.n	159e <alt_clk_ext_clk_freq_set+0x16>
    15ce:	2803      	cmp	r0, #3
    15d0:	d108      	bne.n	15e4 <alt_clk_ext_clk_freq_set+0x5c>
    15d2:	4b07      	ldr	r3, [pc, #28]	; (15f0 <alt_clk_ext_clk_freq_set+0x68>)
    15d4:	6b5a      	ldr	r2, [r3, #52]	; 0x34
    15d6:	4291      	cmp	r1, r2
    15d8:	d307      	bcc.n	15ea <alt_clk_ext_clk_freq_set+0x62>
    15da:	6b9a      	ldr	r2, [r3, #56]	; 0x38
    15dc:	4291      	cmp	r1, r2
    15de:	d804      	bhi.n	15ea <alt_clk_ext_clk_freq_set+0x62>
    15e0:	6319      	str	r1, [r3, #48]	; 0x30
    15e2:	e7dc      	b.n	159e <alt_clk_ext_clk_freq_set+0x16>
    15e4:	f06f 0008 	mvn.w	r0, #8
    15e8:	4770      	bx	lr
    15ea:	f06f 0007 	mvn.w	r0, #7
    15ee:	4770      	bx	lr
    15f0:	00006634 	.word	0x00006634

000015f4 <alt_clk_ext_clk_freq_get>:
    15f4:	b108      	cbz	r0, 15fa <alt_clk_ext_clk_freq_get+0x6>
    15f6:	280c      	cmp	r0, #12
    15f8:	d102      	bne.n	1600 <alt_clk_ext_clk_freq_get+0xc>
    15fa:	4b09      	ldr	r3, [pc, #36]	; (1620 <alt_clk_ext_clk_freq_get+0x2c>)
    15fc:	6818      	ldr	r0, [r3, #0]
    15fe:	4770      	bx	lr
    1600:	2801      	cmp	r0, #1
    1602:	d102      	bne.n	160a <alt_clk_ext_clk_freq_get+0x16>
    1604:	4b06      	ldr	r3, [pc, #24]	; (1620 <alt_clk_ext_clk_freq_get+0x2c>)
    1606:	6918      	ldr	r0, [r3, #16]
    1608:	4770      	bx	lr
    160a:	2802      	cmp	r0, #2
    160c:	d102      	bne.n	1614 <alt_clk_ext_clk_freq_get+0x20>
    160e:	4b04      	ldr	r3, [pc, #16]	; (1620 <alt_clk_ext_clk_freq_get+0x2c>)
    1610:	6a18      	ldr	r0, [r3, #32]
    1612:	4770      	bx	lr
    1614:	2803      	cmp	r0, #3
    1616:	bf06      	itte	eq
    1618:	4b01      	ldreq	r3, [pc, #4]	; (1620 <alt_clk_ext_clk_freq_get+0x2c>)
    161a:	6b18      	ldreq	r0, [r3, #48]	; 0x30
    161c:	2000      	movne	r0, #0
    161e:	4770      	bx	lr
    1620:	00006634 	.word	0x00006634

00001624 <alt_clk_pll_cfg_get>:
    1624:	2900      	cmp	r1, #0
    1626:	f000 80a4 	beq.w	1772 <alt_clk_pll_cfg_get+0x14e>
    162a:	2809      	cmp	r0, #9
    162c:	d12e      	bne.n	168c <alt_clk_pll_cfg_get+0x68>
    162e:	4b54      	ldr	r3, [pc, #336]	; (1780 <alt_clk_pll_cfg_get+0x15c>)
    1630:	2000      	movs	r0, #0
    1632:	681b      	ldr	r3, [r3, #0]
    1634:	6008      	str	r0, [r1, #0]
    1636:	f3c3 02cc 	ubfx	r2, r3, #3, #13
    163a:	f3c3 4305 	ubfx	r3, r3, #16, #6
    163e:	608b      	str	r3, [r1, #8]
    1640:	4b50      	ldr	r3, [pc, #320]	; (1784 <alt_clk_pll_cfg_get+0x160>)
    1642:	604a      	str	r2, [r1, #4]
    1644:	681b      	ldr	r3, [r3, #0]
    1646:	f3c3 0308 	ubfx	r3, r3, #0, #9
    164a:	60cb      	str	r3, [r1, #12]
    164c:	4b4e      	ldr	r3, [pc, #312]	; (1788 <alt_clk_pll_cfg_get+0x164>)
    164e:	681b      	ldr	r3, [r3, #0]
    1650:	f3c3 0308 	ubfx	r3, r3, #0, #9
    1654:	610b      	str	r3, [r1, #16]
    1656:	4b4d      	ldr	r3, [pc, #308]	; (178c <alt_clk_pll_cfg_get+0x168>)
    1658:	681b      	ldr	r3, [r3, #0]
    165a:	f3c3 0308 	ubfx	r3, r3, #0, #9
    165e:	614b      	str	r3, [r1, #20]
    1660:	4b4b      	ldr	r3, [pc, #300]	; (1790 <alt_clk_pll_cfg_get+0x16c>)
    1662:	681b      	ldr	r3, [r3, #0]
    1664:	f3c3 0308 	ubfx	r3, r3, #0, #9
    1668:	618b      	str	r3, [r1, #24]
    166a:	4b4a      	ldr	r3, [pc, #296]	; (1794 <alt_clk_pll_cfg_get+0x170>)
    166c:	681b      	ldr	r3, [r3, #0]
    166e:	f3c3 0308 	ubfx	r3, r3, #0, #9
    1672:	61cb      	str	r3, [r1, #28]
    1674:	4b48      	ldr	r3, [pc, #288]	; (1798 <alt_clk_pll_cfg_get+0x174>)
    1676:	681b      	ldr	r3, [r3, #0]
    1678:	f3c3 0308 	ubfx	r3, r3, #0, #9
    167c:	620b      	str	r3, [r1, #32]
    167e:	6388      	str	r0, [r1, #56]	; 0x38
    1680:	6348      	str	r0, [r1, #52]	; 0x34
    1682:	6308      	str	r0, [r1, #48]	; 0x30
    1684:	62c8      	str	r0, [r1, #44]	; 0x2c
    1686:	6288      	str	r0, [r1, #40]	; 0x28
    1688:	6248      	str	r0, [r1, #36]	; 0x24
    168a:	4770      	bx	lr
    168c:	280a      	cmp	r0, #10
    168e:	d132      	bne.n	16f6 <alt_clk_pll_cfg_get+0xd2>
    1690:	4a42      	ldr	r2, [pc, #264]	; (179c <alt_clk_pll_cfg_get+0x178>)
    1692:	6813      	ldr	r3, [r2, #0]
    1694:	f3c3 5381 	ubfx	r3, r3, #22, #2
    1698:	2b03      	cmp	r3, #3
    169a:	d06d      	beq.n	1778 <alt_clk_pll_cfg_get+0x154>
    169c:	bb3b      	cbnz	r3, 16ee <alt_clk_pll_cfg_get+0xca>
    169e:	600b      	str	r3, [r1, #0]
    16a0:	2000      	movs	r0, #0
    16a2:	6813      	ldr	r3, [r2, #0]
    16a4:	f3c3 02cc 	ubfx	r2, r3, #3, #13
    16a8:	f3c3 4305 	ubfx	r3, r3, #16, #6
    16ac:	608b      	str	r3, [r1, #8]
    16ae:	4b3c      	ldr	r3, [pc, #240]	; (17a0 <alt_clk_pll_cfg_get+0x17c>)
    16b0:	604a      	str	r2, [r1, #4]
    16b2:	681b      	ldr	r3, [r3, #0]
    16b4:	f3c3 0308 	ubfx	r3, r3, #0, #9
    16b8:	60cb      	str	r3, [r1, #12]
    16ba:	4b3a      	ldr	r3, [pc, #232]	; (17a4 <alt_clk_pll_cfg_get+0x180>)
    16bc:	681b      	ldr	r3, [r3, #0]
    16be:	f3c3 0308 	ubfx	r3, r3, #0, #9
    16c2:	610b      	str	r3, [r1, #16]
    16c4:	4b38      	ldr	r3, [pc, #224]	; (17a8 <alt_clk_pll_cfg_get+0x184>)
    16c6:	681b      	ldr	r3, [r3, #0]
    16c8:	f3c3 0308 	ubfx	r3, r3, #0, #9
    16cc:	614b      	str	r3, [r1, #20]
    16ce:	4b37      	ldr	r3, [pc, #220]	; (17ac <alt_clk_pll_cfg_get+0x188>)
    16d0:	681b      	ldr	r3, [r3, #0]
    16d2:	f3c3 0308 	ubfx	r3, r3, #0, #9
    16d6:	618b      	str	r3, [r1, #24]
    16d8:	4b35      	ldr	r3, [pc, #212]	; (17b0 <alt_clk_pll_cfg_get+0x18c>)
    16da:	681b      	ldr	r3, [r3, #0]
    16dc:	f3c3 0308 	ubfx	r3, r3, #0, #9
    16e0:	61cb      	str	r3, [r1, #28]
    16e2:	4b34      	ldr	r3, [pc, #208]	; (17b4 <alt_clk_pll_cfg_get+0x190>)
    16e4:	681b      	ldr	r3, [r3, #0]
    16e6:	f3c3 0308 	ubfx	r3, r3, #0, #9
    16ea:	620b      	str	r3, [r1, #32]
    16ec:	e7c7      	b.n	167e <alt_clk_pll_cfg_get+0x5a>
    16ee:	2b01      	cmp	r3, #1
    16f0:	bf18      	it	ne
    16f2:	2302      	movne	r3, #2
    16f4:	e7d3      	b.n	169e <alt_clk_pll_cfg_get+0x7a>
    16f6:	280b      	cmp	r0, #11
    16f8:	d13e      	bne.n	1778 <alt_clk_pll_cfg_get+0x154>
    16fa:	4a2f      	ldr	r2, [pc, #188]	; (17b8 <alt_clk_pll_cfg_get+0x194>)
    16fc:	6813      	ldr	r3, [r2, #0]
    16fe:	f3c3 5381 	ubfx	r3, r3, #22, #2
    1702:	2b03      	cmp	r3, #3
    1704:	d038      	beq.n	1778 <alt_clk_pll_cfg_get+0x154>
    1706:	2b00      	cmp	r3, #0
    1708:	d12f      	bne.n	176a <alt_clk_pll_cfg_get+0x146>
    170a:	600b      	str	r3, [r1, #0]
    170c:	2000      	movs	r0, #0
    170e:	6813      	ldr	r3, [r2, #0]
    1710:	f3c3 03cc 	ubfx	r3, r3, #3, #13
    1714:	604b      	str	r3, [r1, #4]
    1716:	6813      	ldr	r3, [r2, #0]
    1718:	4a28      	ldr	r2, [pc, #160]	; (17bc <alt_clk_pll_cfg_get+0x198>)
    171a:	f3c3 4305 	ubfx	r3, r3, #16, #6
    171e:	608b      	str	r3, [r1, #8]
    1720:	6813      	ldr	r3, [r2, #0]
    1722:	f3c3 0308 	ubfx	r3, r3, #0, #9
    1726:	60cb      	str	r3, [r1, #12]
    1728:	6813      	ldr	r3, [r2, #0]
    172a:	f3c3 234b 	ubfx	r3, r3, #9, #12
    172e:	624b      	str	r3, [r1, #36]	; 0x24
    1730:	6853      	ldr	r3, [r2, #4]
    1732:	f3c3 0308 	ubfx	r3, r3, #0, #9
    1736:	610b      	str	r3, [r1, #16]
    1738:	6853      	ldr	r3, [r2, #4]
    173a:	f3c3 234b 	ubfx	r3, r3, #9, #12
    173e:	628b      	str	r3, [r1, #40]	; 0x28
    1740:	6893      	ldr	r3, [r2, #8]
    1742:	f3c3 0308 	ubfx	r3, r3, #0, #9
    1746:	614b      	str	r3, [r1, #20]
    1748:	6893      	ldr	r3, [r2, #8]
    174a:	6348      	str	r0, [r1, #52]	; 0x34
    174c:	6308      	str	r0, [r1, #48]	; 0x30
    174e:	f3c3 234b 	ubfx	r3, r3, #9, #12
    1752:	61c8      	str	r0, [r1, #28]
    1754:	62cb      	str	r3, [r1, #44]	; 0x2c
    1756:	6188      	str	r0, [r1, #24]
    1758:	68d3      	ldr	r3, [r2, #12]
    175a:	f3c3 0308 	ubfx	r3, r3, #0, #9
    175e:	620b      	str	r3, [r1, #32]
    1760:	68d3      	ldr	r3, [r2, #12]
    1762:	f3c3 234b 	ubfx	r3, r3, #9, #12
    1766:	638b      	str	r3, [r1, #56]	; 0x38
    1768:	4770      	bx	lr
    176a:	2b01      	cmp	r3, #1
    176c:	bf18      	it	ne
    176e:	2303      	movne	r3, #3
    1770:	e7cb      	b.n	170a <alt_clk_pll_cfg_get+0xe6>
    1772:	f06f 0008 	mvn.w	r0, #8
    1776:	4770      	bx	lr
    1778:	f04f 30ff 	mov.w	r0, #4294967295
    177c:	4770      	bx	lr
    177e:	bf00      	nop
    1780:	ffd04040 	.word	0xffd04040
    1784:	ffd04048 	.word	0xffd04048
    1788:	ffd0404c 	.word	0xffd0404c
    178c:	ffd04050 	.word	0xffd04050
    1790:	ffd04054 	.word	0xffd04054
    1794:	ffd04058 	.word	0xffd04058
    1798:	ffd0405c 	.word	0xffd0405c
    179c:	ffd04080 	.word	0xffd04080
    17a0:	ffd04088 	.word	0xffd04088
    17a4:	ffd0408c 	.word	0xffd0408c
    17a8:	ffd04090 	.word	0xffd04090
    17ac:	ffd04094 	.word	0xffd04094
    17b0:	ffd04098 	.word	0xffd04098
    17b4:	ffd0409c 	.word	0xffd0409c
    17b8:	ffd040c0 	.word	0xffd040c0
    17bc:	ffd040c8 	.word	0xffd040c8

000017c0 <alt_clk_pll_cfg_set>:
    17c0:	b537      	push	{r0, r1, r2, r4, r5, lr}
    17c2:	4605      	mov	r5, r0
    17c4:	460c      	mov	r4, r1
    17c6:	2900      	cmp	r1, #0
    17c8:	d076      	beq.n	18b8 <alt_clk_pll_cfg_set+0xf8>
    17ca:	f7ff fb4d 	bl	e68 <alt_clk_pll_is_bypassed>
    17ce:	2801      	cmp	r0, #1
    17d0:	d16a      	bne.n	18a8 <alt_clk_pll_cfg_set+0xe8>
    17d2:	2d09      	cmp	r5, #9
    17d4:	d11d      	bne.n	1812 <alt_clk_pll_cfg_set+0x52>
    17d6:	483a      	ldr	r0, [pc, #232]	; (18c0 <alt_clk_pll_cfg_set+0x100>)
    17d8:	493a      	ldr	r1, [pc, #232]	; (18c4 <alt_clk_pll_cfg_set+0x104>)
    17da:	68a2      	ldr	r2, [r4, #8]
    17dc:	6803      	ldr	r3, [r0, #0]
    17de:	4019      	ands	r1, r3
    17e0:	6863      	ldr	r3, [r4, #4]
    17e2:	0412      	lsls	r2, r2, #16
    17e4:	f402 127c 	and.w	r2, r2, #4128768	; 0x3f0000
    17e8:	00db      	lsls	r3, r3, #3
    17ea:	b29b      	uxth	r3, r3
    17ec:	4313      	orrs	r3, r2
    17ee:	430b      	orrs	r3, r1
    17f0:	6003      	str	r3, [r0, #0]
    17f2:	4b35      	ldr	r3, [pc, #212]	; (18c8 <alt_clk_pll_cfg_set+0x108>)
    17f4:	68e2      	ldr	r2, [r4, #12]
    17f6:	601a      	str	r2, [r3, #0]
    17f8:	2000      	movs	r0, #0
    17fa:	6922      	ldr	r2, [r4, #16]
    17fc:	605a      	str	r2, [r3, #4]
    17fe:	6962      	ldr	r2, [r4, #20]
    1800:	609a      	str	r2, [r3, #8]
    1802:	69a2      	ldr	r2, [r4, #24]
    1804:	60da      	str	r2, [r3, #12]
    1806:	69e2      	ldr	r2, [r4, #28]
    1808:	611a      	str	r2, [r3, #16]
    180a:	6a22      	ldr	r2, [r4, #32]
    180c:	615a      	str	r2, [r3, #20]
    180e:	b003      	add	sp, #12
    1810:	bd30      	pop	{r4, r5, pc}
    1812:	2d0a      	cmp	r5, #10
    1814:	d11d      	bne.n	1852 <alt_clk_pll_cfg_set+0x92>
    1816:	492d      	ldr	r1, [pc, #180]	; (18cc <alt_clk_pll_cfg_set+0x10c>)
    1818:	6862      	ldr	r2, [r4, #4]
    181a:	482d      	ldr	r0, [pc, #180]	; (18d0 <alt_clk_pll_cfg_set+0x110>)
    181c:	680b      	ldr	r3, [r1, #0]
    181e:	4018      	ands	r0, r3
    1820:	00d3      	lsls	r3, r2, #3
    1822:	68a2      	ldr	r2, [r4, #8]
    1824:	b29b      	uxth	r3, r3
    1826:	0412      	lsls	r2, r2, #16
    1828:	f402 127c 	and.w	r2, r2, #4128768	; 0x3f0000
    182c:	4313      	orrs	r3, r2
    182e:	6822      	ldr	r2, [r4, #0]
    1830:	4303      	orrs	r3, r0
    1832:	b12a      	cbz	r2, 1840 <alt_clk_pll_cfg_set+0x80>
    1834:	2a0c      	cmp	r2, #12
    1836:	d003      	beq.n	1840 <alt_clk_pll_cfg_set+0x80>
    1838:	2a01      	cmp	r2, #1
    183a:	d105      	bne.n	1848 <alt_clk_pll_cfg_set+0x88>
    183c:	f443 0380 	orr.w	r3, r3, #4194304	; 0x400000
    1840:	600b      	str	r3, [r1, #0]
    1842:	4b24      	ldr	r3, [pc, #144]	; (18d4 <alt_clk_pll_cfg_set+0x114>)
    1844:	68e2      	ldr	r2, [r4, #12]
    1846:	e7d6      	b.n	17f6 <alt_clk_pll_cfg_set+0x36>
    1848:	2a02      	cmp	r2, #2
    184a:	d12d      	bne.n	18a8 <alt_clk_pll_cfg_set+0xe8>
    184c:	f443 0300 	orr.w	r3, r3, #8388608	; 0x800000
    1850:	e7f6      	b.n	1840 <alt_clk_pll_cfg_set+0x80>
    1852:	2d0b      	cmp	r5, #11
    1854:	d128      	bne.n	18a8 <alt_clk_pll_cfg_set+0xe8>
    1856:	6863      	ldr	r3, [r4, #4]
    1858:	68a2      	ldr	r2, [r4, #8]
    185a:	491f      	ldr	r1, [pc, #124]	; (18d8 <alt_clk_pll_cfg_set+0x118>)
    185c:	00db      	lsls	r3, r3, #3
    185e:	0412      	lsls	r2, r2, #16
    1860:	6808      	ldr	r0, [r1, #0]
    1862:	b29b      	uxth	r3, r3
    1864:	f402 127c 	and.w	r2, r2, #4128768	; 0x3f0000
    1868:	4313      	orrs	r3, r2
    186a:	4a19      	ldr	r2, [pc, #100]	; (18d0 <alt_clk_pll_cfg_set+0x110>)
    186c:	4002      	ands	r2, r0
    186e:	4313      	orrs	r3, r2
    1870:	6822      	ldr	r2, [r4, #0]
    1872:	f043 7080 	orr.w	r0, r3, #16777216	; 0x1000000
    1876:	b12a      	cbz	r2, 1884 <alt_clk_pll_cfg_set+0xc4>
    1878:	2a0c      	cmp	r2, #12
    187a:	d003      	beq.n	1884 <alt_clk_pll_cfg_set+0xc4>
    187c:	2a01      	cmp	r2, #1
    187e:	d116      	bne.n	18ae <alt_clk_pll_cfg_set+0xee>
    1880:	f043 70a0 	orr.w	r0, r3, #20971520	; 0x1400000
    1884:	6008      	str	r0, [r1, #0]
    1886:	2100      	movs	r1, #0
    1888:	6a63      	ldr	r3, [r4, #36]	; 0x24
    188a:	4a14      	ldr	r2, [pc, #80]	; (18dc <alt_clk_pll_cfg_set+0x11c>)
    188c:	4814      	ldr	r0, [pc, #80]	; (18e0 <alt_clk_pll_cfg_set+0x120>)
    188e:	ea02 2243 	and.w	r2, r2, r3, lsl #9
    1892:	68e3      	ldr	r3, [r4, #12]
    1894:	e88d 0003 	stmia.w	sp, {r0, r1}
    1898:	4912      	ldr	r1, [pc, #72]	; (18e4 <alt_clk_pll_cfg_set+0x124>)
    189a:	f3c3 0308 	ubfx	r3, r3, #0, #9
    189e:	480e      	ldr	r0, [pc, #56]	; (18d8 <alt_clk_pll_cfg_set+0x118>)
    18a0:	4313      	orrs	r3, r2
    18a2:	4a11      	ldr	r2, [pc, #68]	; (18e8 <alt_clk_pll_cfg_set+0x128>)
    18a4:	f7ff f903 	bl	aae <alt_clk_pllcounter_write>
    18a8:	f04f 30ff 	mov.w	r0, #4294967295
    18ac:	e7af      	b.n	180e <alt_clk_pll_cfg_set+0x4e>
    18ae:	2a02      	cmp	r2, #2
    18b0:	d1fa      	bne.n	18a8 <alt_clk_pll_cfg_set+0xe8>
    18b2:	f043 70c0 	orr.w	r0, r3, #25165824	; 0x1800000
    18b6:	e7e5      	b.n	1884 <alt_clk_pll_cfg_set+0xc4>
    18b8:	f06f 0008 	mvn.w	r0, #8
    18bc:	e7a7      	b.n	180e <alt_clk_pll_cfg_set+0x4e>
    18be:	bf00      	nop
    18c0:	ffd04040 	.word	0xffd04040
    18c4:	ffc00007 	.word	0xffc00007
    18c8:	ffd04048 	.word	0xffd04048
    18cc:	ffd04080 	.word	0xffd04080
    18d0:	ff000007 	.word	0xff000007
    18d4:	ffd04088 	.word	0xffd04088
    18d8:	ffd040c0 	.word	0xffd040c0
    18dc:	001ffe00 	.word	0x001ffe00
    18e0:	001fffff 	.word	0x001fffff
    18e4:	ffd04014 	.word	0xffd04014
    18e8:	ffd040c8 	.word	0xffd040c8

000018ec <alt_clk_pll_vco_cfg_get>:
    18ec:	b1b1      	cbz	r1, 191c <alt_clk_pll_vco_cfg_get+0x30>
    18ee:	b1aa      	cbz	r2, 191c <alt_clk_pll_vco_cfg_get+0x30>
    18f0:	2809      	cmp	r0, #9
    18f2:	d10b      	bne.n	190c <alt_clk_pll_vco_cfg_get+0x20>
    18f4:	4b0c      	ldr	r3, [pc, #48]	; (1928 <alt_clk_pll_vco_cfg_get+0x3c>)
    18f6:	681b      	ldr	r3, [r3, #0]
    18f8:	f3c3 00cc 	ubfx	r0, r3, #3, #13
    18fc:	f3c3 4305 	ubfx	r3, r3, #16, #6
    1900:	3001      	adds	r0, #1
    1902:	3301      	adds	r3, #1
    1904:	6008      	str	r0, [r1, #0]
    1906:	2000      	movs	r0, #0
    1908:	6013      	str	r3, [r2, #0]
    190a:	4770      	bx	lr
    190c:	280a      	cmp	r0, #10
    190e:	d101      	bne.n	1914 <alt_clk_pll_vco_cfg_get+0x28>
    1910:	4b06      	ldr	r3, [pc, #24]	; (192c <alt_clk_pll_vco_cfg_get+0x40>)
    1912:	e7f0      	b.n	18f6 <alt_clk_pll_vco_cfg_get+0xa>
    1914:	280b      	cmp	r0, #11
    1916:	d104      	bne.n	1922 <alt_clk_pll_vco_cfg_get+0x36>
    1918:	4b05      	ldr	r3, [pc, #20]	; (1930 <alt_clk_pll_vco_cfg_get+0x44>)
    191a:	e7ec      	b.n	18f6 <alt_clk_pll_vco_cfg_get+0xa>
    191c:	f06f 0008 	mvn.w	r0, #8
    1920:	4770      	bx	lr
    1922:	f04f 30ff 	mov.w	r0, #4294967295
    1926:	4770      	bx	lr
    1928:	ffd04040 	.word	0xffd04040
    192c:	ffd04080 	.word	0xffd04080
    1930:	ffd040c0 	.word	0xffd040c0

00001934 <alt_clk_pll_vco_cfg_set>:
    1934:	1e4b      	subs	r3, r1, #1
    1936:	e92d 4df0 	stmdb	sp!, {r4, r5, r6, r7, r8, sl, fp, lr}
    193a:	f5b3 5f80 	cmp.w	r3, #4096	; 0x1000
    193e:	b088      	sub	sp, #32
    1940:	4606      	mov	r6, r0
    1942:	460f      	mov	r7, r1
    1944:	4692      	mov	sl, r2
    1946:	9302      	str	r3, [sp, #8]
    1948:	f080 810e 	bcs.w	1b68 <alt_clk_pll_vco_cfg_set+0x234>
    194c:	1e53      	subs	r3, r2, #1
    194e:	2b3f      	cmp	r3, #63	; 0x3f
    1950:	9304      	str	r3, [sp, #16]
    1952:	f200 8109 	bhi.w	1b68 <alt_clk_pll_vco_cfg_set+0x234>
    1956:	2809      	cmp	r0, #9
    1958:	d112      	bne.n	1980 <alt_clk_pll_vco_cfg_set+0x4c>
    195a:	49a5      	ldr	r1, [pc, #660]	; (1bf0 <alt_clk_pll_vco_cfg_set+0x2bc>)
    195c:	4ba5      	ldr	r3, [pc, #660]	; (1bf4 <alt_clk_pll_vco_cfg_set+0x2c0>)
    195e:	f891 403c 	ldrb.w	r4, [r1, #60]	; 0x3c
    1962:	681d      	ldr	r5, [r3, #0]
    1964:	f8d1 b038 	ldr.w	fp, [r1, #56]	; 0x38
    1968:	6b4a      	ldr	r2, [r1, #52]	; 0x34
    196a:	f004 047f 	and.w	r4, r4, #127	; 0x7f
    196e:	f3c5 03cc 	ubfx	r3, r5, #3, #13
    1972:	f3c5 4505 	ubfx	r5, r5, #16, #6
    1976:	9201      	str	r2, [sp, #4]
    1978:	499f      	ldr	r1, [pc, #636]	; (1bf8 <alt_clk_pll_vco_cfg_set+0x2c4>)
    197a:	f8d1 8000 	ldr.w	r8, [r1]
    197e:	e020      	b.n	19c2 <alt_clk_pll_vco_cfg_set+0x8e>
    1980:	280a      	cmp	r0, #10
    1982:	d138      	bne.n	19f6 <alt_clk_pll_vco_cfg_set+0xc2>
    1984:	4b9d      	ldr	r3, [pc, #628]	; (1bfc <alt_clk_pll_vco_cfg_set+0x2c8>)
    1986:	489a      	ldr	r0, [pc, #616]	; (1bf0 <alt_clk_pll_vco_cfg_set+0x2bc>)
    1988:	6819      	ldr	r1, [r3, #0]
    198a:	6c42      	ldr	r2, [r0, #68]	; 0x44
    198c:	f890 404c 	ldrb.w	r4, [r0, #76]	; 0x4c
    1990:	f3c1 03cc 	ubfx	r3, r1, #3, #13
    1994:	f3c1 4505 	ubfx	r5, r1, #16, #6
    1998:	f3c1 5181 	ubfx	r1, r1, #22, #2
    199c:	f8d0 b048 	ldr.w	fp, [r0, #72]	; 0x48
    19a0:	9201      	str	r2, [sp, #4]
    19a2:	f004 047f 	and.w	r4, r4, #127	; 0x7f
    19a6:	2900      	cmp	r1, #0
    19a8:	d0e6      	beq.n	1978 <alt_clk_pll_vco_cfg_set+0x44>
    19aa:	2901      	cmp	r1, #1
    19ac:	d103      	bne.n	19b6 <alt_clk_pll_vco_cfg_set+0x82>
    19ae:	4992      	ldr	r1, [pc, #584]	; (1bf8 <alt_clk_pll_vco_cfg_set+0x2c4>)
    19b0:	f8d1 8010 	ldr.w	r8, [r1, #16]
    19b4:	e005      	b.n	19c2 <alt_clk_pll_vco_cfg_set+0x8e>
    19b6:	2902      	cmp	r1, #2
    19b8:	f040 80d6 	bne.w	1b68 <alt_clk_pll_vco_cfg_set+0x234>
    19bc:	498e      	ldr	r1, [pc, #568]	; (1bf8 <alt_clk_pll_vco_cfg_set+0x2c4>)
    19be:	f8d1 8020 	ldr.w	r8, [r1, #32]
    19c2:	4651      	mov	r1, sl
    19c4:	4640      	mov	r0, r8
    19c6:	9303      	str	r3, [sp, #12]
    19c8:	f003 ed42 	blx	5450 <__aeabi_uidiv>
    19cc:	fb00 f107 	mul.w	r1, r0, r7
    19d0:	9005      	str	r0, [sp, #20]
    19d2:	4559      	cmp	r1, fp
    19d4:	f200 80c8 	bhi.w	1b68 <alt_clk_pll_vco_cfg_set+0x234>
    19d8:	9b01      	ldr	r3, [sp, #4]
    19da:	4299      	cmp	r1, r3
    19dc:	f0c0 80c4 	bcc.w	1b68 <alt_clk_pll_vco_cfg_set+0x234>
    19e0:	9b03      	ldr	r3, [sp, #12]
    19e2:	3501      	adds	r5, #1
    19e4:	3301      	adds	r3, #1
    19e6:	429f      	cmp	r7, r3
    19e8:	9303      	str	r3, [sp, #12]
    19ea:	d123      	bne.n	1a34 <alt_clk_pll_vco_cfg_set+0x100>
    19ec:	45aa      	cmp	sl, r5
    19ee:	d166      	bne.n	1abe <alt_clk_pll_vco_cfg_set+0x18a>
    19f0:	f06f 040a 	mvn.w	r4, #10
    19f4:	e05f      	b.n	1ab6 <alt_clk_pll_vco_cfg_set+0x182>
    19f6:	280b      	cmp	r0, #11
    19f8:	f040 80b6 	bne.w	1b68 <alt_clk_pll_vco_cfg_set+0x234>
    19fc:	4b80      	ldr	r3, [pc, #512]	; (1c00 <alt_clk_pll_vco_cfg_set+0x2cc>)
    19fe:	487c      	ldr	r0, [pc, #496]	; (1bf0 <alt_clk_pll_vco_cfg_set+0x2bc>)
    1a00:	6819      	ldr	r1, [r3, #0]
    1a02:	6d42      	ldr	r2, [r0, #84]	; 0x54
    1a04:	f890 405c 	ldrb.w	r4, [r0, #92]	; 0x5c
    1a08:	f3c1 03cc 	ubfx	r3, r1, #3, #13
    1a0c:	f3c1 4505 	ubfx	r5, r1, #16, #6
    1a10:	f3c1 5181 	ubfx	r1, r1, #22, #2
    1a14:	f8d0 b058 	ldr.w	fp, [r0, #88]	; 0x58
    1a18:	9201      	str	r2, [sp, #4]
    1a1a:	f004 047f 	and.w	r4, r4, #127	; 0x7f
    1a1e:	2900      	cmp	r1, #0
    1a20:	d0aa      	beq.n	1978 <alt_clk_pll_vco_cfg_set+0x44>
    1a22:	2901      	cmp	r1, #1
    1a24:	d0c3      	beq.n	19ae <alt_clk_pll_vco_cfg_set+0x7a>
    1a26:	2902      	cmp	r1, #2
    1a28:	f040 809e 	bne.w	1b68 <alt_clk_pll_vco_cfg_set+0x234>
    1a2c:	4972      	ldr	r1, [pc, #456]	; (1bf8 <alt_clk_pll_vco_cfg_set+0x2c4>)
    1a2e:	f8d1 8030 	ldr.w	r8, [r1, #48]	; 0x30
    1a32:	e7c6      	b.n	19c2 <alt_clk_pll_vco_cfg_set+0x8e>
    1a34:	45aa      	cmp	sl, r5
    1a36:	f04f 0064 	mov.w	r0, #100	; 0x64
    1a3a:	9903      	ldr	r1, [sp, #12]
    1a3c:	fb00 f007 	mul.w	r0, r0, r7
    1a40:	d14f      	bne.n	1ae2 <alt_clk_pll_vco_cfg_set+0x1ae>
    1a42:	f003 ed06 	blx	5450 <__aeabi_uidiv>
    1a46:	f104 0364 	add.w	r3, r4, #100	; 0x64
    1a4a:	4298      	cmp	r0, r3
    1a4c:	f080 80cb 	bcs.w	1be6 <alt_clk_pll_vco_cfg_set+0x2b2>
    1a50:	f1c4 0464 	rsb	r4, r4, #100	; 0x64
    1a54:	42a0      	cmp	r0, r4
    1a56:	bf8c      	ite	hi
    1a58:	2702      	movhi	r7, #2
    1a5a:	2706      	movls	r7, #6
    1a5c:	2e09      	cmp	r6, #9
    1a5e:	f000 8086 	beq.w	1b6e <alt_clk_pll_vco_cfg_set+0x23a>
    1a62:	2e0a      	cmp	r6, #10
    1a64:	f000 8085 	beq.w	1b72 <alt_clk_pll_vco_cfg_set+0x23e>
    1a68:	2e0b      	cmp	r6, #11
    1a6a:	f040 80b9 	bne.w	1be0 <alt_clk_pll_vco_cfg_set+0x2ac>
    1a6e:	4d64      	ldr	r5, [pc, #400]	; (1c00 <alt_clk_pll_vco_cfg_set+0x2cc>)
    1a70:	f017 0102 	ands.w	r1, r7, #2
    1a74:	d07f      	beq.n	1b76 <alt_clk_pll_vco_cfg_set+0x242>
    1a76:	f017 0704 	ands.w	r7, r7, #4
    1a7a:	d008      	beq.n	1a8e <alt_clk_pll_vco_cfg_set+0x15a>
    1a7c:	2100      	movs	r1, #0
    1a7e:	4630      	mov	r0, r6
    1a80:	2701      	movs	r7, #1
    1a82:	f7ff f96f 	bl	d64 <alt_clk_pll_bypass_enable>
    1a86:	211e      	movs	r1, #30
    1a88:	4628      	mov	r0, r5
    1a8a:	f7ff f80b 	bl	aa4 <alt_clk_mgr_wait>
    1a8e:	682b      	ldr	r3, [r5, #0]
    1a90:	9a02      	ldr	r2, [sp, #8]
    1a92:	f423 437f 	bic.w	r3, r3, #65280	; 0xff00
    1a96:	f023 03f8 	bic.w	r3, r3, #248	; 0xf8
    1a9a:	ea43 03c2 	orr.w	r3, r3, r2, lsl #3
    1a9e:	602b      	str	r3, [r5, #0]
    1aa0:	f7ff f840 	bl	b24 <alt_clk_pll_lock_wait.constprop.4>
    1aa4:	4604      	mov	r4, r0
    1aa6:	b137      	cbz	r7, 1ab6 <alt_clk_pll_vco_cfg_set+0x182>
    1aa8:	4630      	mov	r0, r6
    1aaa:	f7ff f8bd 	bl	c28 <alt_clk_pll_bypass_disable>
    1aae:	211e      	movs	r1, #30
    1ab0:	4628      	mov	r0, r5
    1ab2:	f7fe fff7 	bl	aa4 <alt_clk_mgr_wait>
    1ab6:	4620      	mov	r0, r4
    1ab8:	b008      	add	sp, #32
    1aba:	e8bd 8df0 	ldmia.w	sp!, {r4, r5, r6, r7, r8, sl, fp, pc}
    1abe:	2064      	movs	r0, #100	; 0x64
    1ac0:	4629      	mov	r1, r5
    1ac2:	fb00 f00a 	mul.w	r0, r0, sl
    1ac6:	f003 ecc4 	blx	5450 <__aeabi_uidiv>
    1aca:	f104 0364 	add.w	r3, r4, #100	; 0x64
    1ace:	4298      	cmp	r0, r3
    1ad0:	f080 808b 	bcs.w	1bea <alt_clk_pll_vco_cfg_set+0x2b6>
    1ad4:	f1c4 0464 	rsb	r4, r4, #100	; 0x64
    1ad8:	42a0      	cmp	r0, r4
    1ada:	bf8c      	ite	hi
    1adc:	2708      	movhi	r7, #8
    1ade:	2718      	movls	r7, #24
    1ae0:	e7bc      	b.n	1a5c <alt_clk_pll_vco_cfg_set+0x128>
    1ae2:	f003 ecb6 	blx	5450 <__aeabi_uidiv>
    1ae6:	f104 0364 	add.w	r3, r4, #100	; 0x64
    1aea:	4298      	cmp	r0, r3
    1aec:	9306      	str	r3, [sp, #24]
    1aee:	d232      	bcs.n	1b56 <alt_clk_pll_vco_cfg_set+0x222>
    1af0:	f1c4 0364 	rsb	r3, r4, #100	; 0x64
    1af4:	4298      	cmp	r0, r3
    1af6:	bf94      	ite	ls
    1af8:	2300      	movls	r3, #0
    1afa:	2301      	movhi	r3, #1
    1afc:	4629      	mov	r1, r5
    1afe:	4640      	mov	r0, r8
    1b00:	9307      	str	r3, [sp, #28]
    1b02:	f003 eca6 	blx	5450 <__aeabi_uidiv>
    1b06:	4378      	muls	r0, r7
    1b08:	4583      	cmp	fp, r0
    1b0a:	d326      	bcc.n	1b5a <alt_clk_pll_vco_cfg_set+0x226>
    1b0c:	9b01      	ldr	r3, [sp, #4]
    1b0e:	4283      	cmp	r3, r0
    1b10:	d823      	bhi.n	1b5a <alt_clk_pll_vco_cfg_set+0x226>
    1b12:	9b07      	ldr	r3, [sp, #28]
    1b14:	2b00      	cmp	r3, #0
    1b16:	bf0c      	ite	eq
    1b18:	2760      	moveq	r7, #96	; 0x60
    1b1a:	2720      	movne	r7, #32
    1b1c:	2064      	movs	r0, #100	; 0x64
    1b1e:	4629      	mov	r1, r5
    1b20:	fb00 f00a 	mul.w	r0, r0, sl
    1b24:	f003 ec94 	blx	5450 <__aeabi_uidiv>
    1b28:	9b06      	ldr	r3, [sp, #24]
    1b2a:	4283      	cmp	r3, r0
    1b2c:	d917      	bls.n	1b5e <alt_clk_pll_vco_cfg_set+0x22a>
    1b2e:	f1c4 0464 	rsb	r4, r4, #100	; 0x64
    1b32:	42a0      	cmp	r0, r4
    1b34:	bf94      	ite	ls
    1b36:	2400      	movls	r4, #0
    1b38:	2401      	movhi	r4, #1
    1b3a:	9b03      	ldr	r3, [sp, #12]
    1b3c:	9a05      	ldr	r2, [sp, #20]
    1b3e:	4353      	muls	r3, r2
    1b40:	459b      	cmp	fp, r3
    1b42:	d30e      	bcc.n	1b62 <alt_clk_pll_vco_cfg_set+0x22e>
    1b44:	9a01      	ldr	r2, [sp, #4]
    1b46:	429a      	cmp	r2, r3
    1b48:	d80b      	bhi.n	1b62 <alt_clk_pll_vco_cfg_set+0x22e>
    1b4a:	2c00      	cmp	r4, #0
    1b4c:	bf0c      	ite	eq
    1b4e:	f44f 77c0 	moveq.w	r7, #384	; 0x180
    1b52:	2780      	movne	r7, #128	; 0x80
    1b54:	e782      	b.n	1a5c <alt_clk_pll_vco_cfg_set+0x128>
    1b56:	2300      	movs	r3, #0
    1b58:	e7d0      	b.n	1afc <alt_clk_pll_vco_cfg_set+0x1c8>
    1b5a:	2700      	movs	r7, #0
    1b5c:	e7de      	b.n	1b1c <alt_clk_pll_vco_cfg_set+0x1e8>
    1b5e:	2400      	movs	r4, #0
    1b60:	e7eb      	b.n	1b3a <alt_clk_pll_vco_cfg_set+0x206>
    1b62:	2f00      	cmp	r7, #0
    1b64:	f47f af7a 	bne.w	1a5c <alt_clk_pll_vco_cfg_set+0x128>
    1b68:	f06f 040d 	mvn.w	r4, #13
    1b6c:	e7a3      	b.n	1ab6 <alt_clk_pll_vco_cfg_set+0x182>
    1b6e:	4d21      	ldr	r5, [pc, #132]	; (1bf4 <alt_clk_pll_vco_cfg_set+0x2c0>)
    1b70:	e77e      	b.n	1a70 <alt_clk_pll_vco_cfg_set+0x13c>
    1b72:	4d22      	ldr	r5, [pc, #136]	; (1bfc <alt_clk_pll_vco_cfg_set+0x2c8>)
    1b74:	e77c      	b.n	1a70 <alt_clk_pll_vco_cfg_set+0x13c>
    1b76:	f017 0208 	ands.w	r2, r7, #8
    1b7a:	d00f      	beq.n	1b9c <alt_clk_pll_vco_cfg_set+0x268>
    1b7c:	f017 0710 	ands.w	r7, r7, #16
    1b80:	d003      	beq.n	1b8a <alt_clk_pll_vco_cfg_set+0x256>
    1b82:	2701      	movs	r7, #1
    1b84:	4630      	mov	r0, r6
    1b86:	f7ff f8ed 	bl	d64 <alt_clk_pll_bypass_enable>
    1b8a:	9b04      	ldr	r3, [sp, #16]
    1b8c:	682a      	ldr	r2, [r5, #0]
    1b8e:	041b      	lsls	r3, r3, #16
    1b90:	f422 127c 	bic.w	r2, r2, #4128768	; 0x3f0000
    1b94:	f403 137c 	and.w	r3, r3, #4128768	; 0x3f0000
    1b98:	4313      	orrs	r3, r2
    1b9a:	e780      	b.n	1a9e <alt_clk_pll_vco_cfg_set+0x16a>
    1b9c:	f017 0120 	ands.w	r1, r7, #32
    1ba0:	d008      	beq.n	1bb4 <alt_clk_pll_vco_cfg_set+0x280>
    1ba2:	f017 0740 	ands.w	r7, r7, #64	; 0x40
    1ba6:	d00b      	beq.n	1bc0 <alt_clk_pll_vco_cfg_set+0x28c>
    1ba8:	4611      	mov	r1, r2
    1baa:	4630      	mov	r0, r6
    1bac:	2701      	movs	r7, #1
    1bae:	f7ff f8d9 	bl	d64 <alt_clk_pll_bypass_enable>
    1bb2:	e005      	b.n	1bc0 <alt_clk_pll_vco_cfg_set+0x28c>
    1bb4:	f017 0080 	ands.w	r0, r7, #128	; 0x80
    1bb8:	d010      	beq.n	1bdc <alt_clk_pll_vco_cfg_set+0x2a8>
    1bba:	f417 7780 	ands.w	r7, r7, #256	; 0x100
    1bbe:	d1f4      	bne.n	1baa <alt_clk_pll_vco_cfg_set+0x276>
    1bc0:	682b      	ldr	r3, [r5, #0]
    1bc2:	9a02      	ldr	r2, [sp, #8]
    1bc4:	f423 437f 	bic.w	r3, r3, #65280	; 0xff00
    1bc8:	f023 03f8 	bic.w	r3, r3, #248	; 0xf8
    1bcc:	ea43 03c2 	orr.w	r3, r3, r2, lsl #3
    1bd0:	602b      	str	r3, [r5, #0]
    1bd2:	2f00      	cmp	r7, #0
    1bd4:	d1d9      	bne.n	1b8a <alt_clk_pll_vco_cfg_set+0x256>
    1bd6:	f7fe ffa5 	bl	b24 <alt_clk_pll_lock_wait.constprop.4>
    1bda:	e7d6      	b.n	1b8a <alt_clk_pll_vco_cfg_set+0x256>
    1bdc:	4607      	mov	r7, r0
    1bde:	e75f      	b.n	1aa0 <alt_clk_pll_vco_cfg_set+0x16c>
    1be0:	f06f 0408 	mvn.w	r4, #8
    1be4:	e767      	b.n	1ab6 <alt_clk_pll_vco_cfg_set+0x182>
    1be6:	2706      	movs	r7, #6
    1be8:	e738      	b.n	1a5c <alt_clk_pll_vco_cfg_set+0x128>
    1bea:	2718      	movs	r7, #24
    1bec:	e736      	b.n	1a5c <alt_clk_pll_vco_cfg_set+0x128>
    1bee:	bf00      	nop
    1bf0:	00006674 	.word	0x00006674
    1bf4:	ffd04040 	.word	0xffd04040
    1bf8:	00006634 	.word	0x00006634
    1bfc:	ffd04080 	.word	0xffd04080
    1c00:	ffd040c0 	.word	0xffd040c0

00001c04 <alt_clk_pll_vco_freq_get>:
    1c04:	b570      	push	{r4, r5, r6, lr}
    1c06:	460e      	mov	r6, r1
    1c08:	2900      	cmp	r1, #0
    1c0a:	f000 808b 	beq.w	1d24 <alt_clk_pll_vco_freq_get+0x120>
    1c0e:	2809      	cmp	r0, #9
    1c10:	d120      	bne.n	1c54 <alt_clk_pll_vco_freq_get+0x50>
    1c12:	4b47      	ldr	r3, [pc, #284]	; (1d30 <alt_clk_pll_vco_freq_get+0x12c>)
    1c14:	681c      	ldr	r4, [r3, #0]
    1c16:	f014 0401 	ands.w	r4, r4, #1
    1c1a:	d004      	beq.n	1c26 <alt_clk_pll_vco_freq_get+0x22>
    1c1c:	4b45      	ldr	r3, [pc, #276]	; (1d34 <alt_clk_pll_vco_freq_get+0x130>)
    1c1e:	681b      	ldr	r3, [r3, #0]
    1c20:	6033      	str	r3, [r6, #0]
    1c22:	2000      	movs	r0, #0
    1c24:	bd70      	pop	{r4, r5, r6, pc}
    1c26:	4b44      	ldr	r3, [pc, #272]	; (1d38 <alt_clk_pll_vco_freq_get+0x134>)
    1c28:	681a      	ldr	r2, [r3, #0]
    1c2a:	4b42      	ldr	r3, [pc, #264]	; (1d34 <alt_clk_pll_vco_freq_get+0x130>)
    1c2c:	f3c2 01cc 	ubfx	r1, r2, #3, #13
    1c30:	f3c2 4205 	ubfx	r2, r2, #16, #6
    1c34:	6818      	ldr	r0, [r3, #0]
    1c36:	3101      	adds	r1, #1
    1c38:	3201      	adds	r2, #1
    1c3a:	4623      	mov	r3, r4
    1c3c:	fba1 0100 	umull	r0, r1, r1, r0
    1c40:	f003 ed86 	blx	5750 <__aeabi_uldivmod>
    1c44:	2901      	cmp	r1, #1
    1c46:	bf08      	it	eq
    1c48:	2800      	cmpeq	r0, #0
    1c4a:	d26e      	bcs.n	1d2a <alt_clk_pll_vco_freq_get+0x126>
    1c4c:	4b3b      	ldr	r3, [pc, #236]	; (1d3c <alt_clk_pll_vco_freq_get+0x138>)
    1c4e:	6318      	str	r0, [r3, #48]	; 0x30
    1c50:	6030      	str	r0, [r6, #0]
    1c52:	e7e6      	b.n	1c22 <alt_clk_pll_vco_freq_get+0x1e>
    1c54:	280a      	cmp	r0, #10
    1c56:	d131      	bne.n	1cbc <alt_clk_pll_vco_freq_get+0xb8>
    1c58:	4b35      	ldr	r3, [pc, #212]	; (1d30 <alt_clk_pll_vco_freq_get+0x12c>)
    1c5a:	681b      	ldr	r3, [r3, #0]
    1c5c:	0718      	lsls	r0, r3, #28
    1c5e:	d504      	bpl.n	1c6a <alt_clk_pll_vco_freq_get+0x66>
    1c60:	06d9      	lsls	r1, r3, #27
    1c62:	d5db      	bpl.n	1c1c <alt_clk_pll_vco_freq_get+0x18>
    1c64:	4b33      	ldr	r3, [pc, #204]	; (1d34 <alt_clk_pll_vco_freq_get+0x130>)
    1c66:	6a1b      	ldr	r3, [r3, #32]
    1c68:	e7da      	b.n	1c20 <alt_clk_pll_vco_freq_get+0x1c>
    1c6a:	4b35      	ldr	r3, [pc, #212]	; (1d40 <alt_clk_pll_vco_freq_get+0x13c>)
    1c6c:	681b      	ldr	r3, [r3, #0]
    1c6e:	f3c3 01cc 	ubfx	r1, r3, #3, #13
    1c72:	f3c3 4205 	ubfx	r2, r3, #16, #6
    1c76:	f3c3 5381 	ubfx	r3, r3, #22, #2
    1c7a:	b9ab      	cbnz	r3, 1ca8 <alt_clk_pll_vco_freq_get+0xa4>
    1c7c:	4b2d      	ldr	r3, [pc, #180]	; (1d34 <alt_clk_pll_vco_freq_get+0x130>)
    1c7e:	681c      	ldr	r4, [r3, #0]
    1c80:	2500      	movs	r5, #0
    1c82:	ea54 0305 	orrs.w	r3, r4, r5
    1c86:	d04d      	beq.n	1d24 <alt_clk_pll_vco_freq_get+0x120>
    1c88:	1c4b      	adds	r3, r1, #1
    1c8a:	3201      	adds	r2, #1
    1c8c:	fba3 0104 	umull	r0, r1, r3, r4
    1c90:	fb03 1105 	mla	r1, r3, r5, r1
    1c94:	2300      	movs	r3, #0
    1c96:	f003 ed5c 	blx	5750 <__aeabi_uldivmod>
    1c9a:	2901      	cmp	r1, #1
    1c9c:	bf08      	it	eq
    1c9e:	2800      	cmpeq	r0, #0
    1ca0:	d243      	bcs.n	1d2a <alt_clk_pll_vco_freq_get+0x126>
    1ca2:	4b26      	ldr	r3, [pc, #152]	; (1d3c <alt_clk_pll_vco_freq_get+0x138>)
    1ca4:	6418      	str	r0, [r3, #64]	; 0x40
    1ca6:	e7d3      	b.n	1c50 <alt_clk_pll_vco_freq_get+0x4c>
    1ca8:	2b01      	cmp	r3, #1
    1caa:	d102      	bne.n	1cb2 <alt_clk_pll_vco_freq_get+0xae>
    1cac:	4b21      	ldr	r3, [pc, #132]	; (1d34 <alt_clk_pll_vco_freq_get+0x130>)
    1cae:	691c      	ldr	r4, [r3, #16]
    1cb0:	e7e6      	b.n	1c80 <alt_clk_pll_vco_freq_get+0x7c>
    1cb2:	2b02      	cmp	r3, #2
    1cb4:	d136      	bne.n	1d24 <alt_clk_pll_vco_freq_get+0x120>
    1cb6:	4b1f      	ldr	r3, [pc, #124]	; (1d34 <alt_clk_pll_vco_freq_get+0x130>)
    1cb8:	6a1c      	ldr	r4, [r3, #32]
    1cba:	e7e1      	b.n	1c80 <alt_clk_pll_vco_freq_get+0x7c>
    1cbc:	280b      	cmp	r0, #11
    1cbe:	d131      	bne.n	1d24 <alt_clk_pll_vco_freq_get+0x120>
    1cc0:	4b1b      	ldr	r3, [pc, #108]	; (1d30 <alt_clk_pll_vco_freq_get+0x12c>)
    1cc2:	681b      	ldr	r3, [r3, #0]
    1cc4:	07da      	lsls	r2, r3, #31
    1cc6:	d504      	bpl.n	1cd2 <alt_clk_pll_vco_freq_get+0xce>
    1cc8:	075b      	lsls	r3, r3, #29
    1cca:	d5a7      	bpl.n	1c1c <alt_clk_pll_vco_freq_get+0x18>
    1ccc:	4b19      	ldr	r3, [pc, #100]	; (1d34 <alt_clk_pll_vco_freq_get+0x130>)
    1cce:	6b1b      	ldr	r3, [r3, #48]	; 0x30
    1cd0:	e7a6      	b.n	1c20 <alt_clk_pll_vco_freq_get+0x1c>
    1cd2:	4b1c      	ldr	r3, [pc, #112]	; (1d44 <alt_clk_pll_vco_freq_get+0x140>)
    1cd4:	681b      	ldr	r3, [r3, #0]
    1cd6:	f3c3 01cc 	ubfx	r1, r3, #3, #13
    1cda:	f3c3 4205 	ubfx	r2, r3, #16, #6
    1cde:	f3c3 5381 	ubfx	r3, r3, #22, #2
    1ce2:	b9ab      	cbnz	r3, 1d10 <alt_clk_pll_vco_freq_get+0x10c>
    1ce4:	4b13      	ldr	r3, [pc, #76]	; (1d34 <alt_clk_pll_vco_freq_get+0x130>)
    1ce6:	681c      	ldr	r4, [r3, #0]
    1ce8:	2500      	movs	r5, #0
    1cea:	ea54 0305 	orrs.w	r3, r4, r5
    1cee:	d019      	beq.n	1d24 <alt_clk_pll_vco_freq_get+0x120>
    1cf0:	1c4b      	adds	r3, r1, #1
    1cf2:	3201      	adds	r2, #1
    1cf4:	fba3 0104 	umull	r0, r1, r3, r4
    1cf8:	fb03 1105 	mla	r1, r3, r5, r1
    1cfc:	2300      	movs	r3, #0
    1cfe:	f003 ed28 	blx	5750 <__aeabi_uldivmod>
    1d02:	2901      	cmp	r1, #1
    1d04:	bf08      	it	eq
    1d06:	2800      	cmpeq	r0, #0
    1d08:	d20f      	bcs.n	1d2a <alt_clk_pll_vco_freq_get+0x126>
    1d0a:	4b0c      	ldr	r3, [pc, #48]	; (1d3c <alt_clk_pll_vco_freq_get+0x138>)
    1d0c:	6518      	str	r0, [r3, #80]	; 0x50
    1d0e:	e79f      	b.n	1c50 <alt_clk_pll_vco_freq_get+0x4c>
    1d10:	2b01      	cmp	r3, #1
    1d12:	d102      	bne.n	1d1a <alt_clk_pll_vco_freq_get+0x116>
    1d14:	4b07      	ldr	r3, [pc, #28]	; (1d34 <alt_clk_pll_vco_freq_get+0x130>)
    1d16:	691c      	ldr	r4, [r3, #16]
    1d18:	e7e6      	b.n	1ce8 <alt_clk_pll_vco_freq_get+0xe4>
    1d1a:	2b02      	cmp	r3, #2
    1d1c:	d102      	bne.n	1d24 <alt_clk_pll_vco_freq_get+0x120>
    1d1e:	4b05      	ldr	r3, [pc, #20]	; (1d34 <alt_clk_pll_vco_freq_get+0x130>)
    1d20:	6b1c      	ldr	r4, [r3, #48]	; 0x30
    1d22:	e7e1      	b.n	1ce8 <alt_clk_pll_vco_freq_get+0xe4>
    1d24:	f06f 0008 	mvn.w	r0, #8
    1d28:	bd70      	pop	{r4, r5, r6, pc}
    1d2a:	f04f 30ff 	mov.w	r0, #4294967295
    1d2e:	bd70      	pop	{r4, r5, r6, pc}
    1d30:	ffd04004 	.word	0xffd04004
    1d34:	00006634 	.word	0x00006634
    1d38:	ffd04040 	.word	0xffd04040
    1d3c:	00006674 	.word	0x00006674
    1d40:	ffd04080 	.word	0xffd04080
    1d44:	ffd040c0 	.word	0xffd040c0

00001d48 <alt_clk_within_freq_limits>:
    1d48:	2300      	movs	r3, #0
    1d4a:	b5f7      	push	{r0, r1, r2, r4, r5, r6, r7, lr}
    1d4c:	460f      	mov	r7, r1
    1d4e:	9301      	str	r3, [sp, #4]
    1d50:	2900      	cmp	r1, #0
    1d52:	d072      	beq.n	1e3a <alt_clk_within_freq_limits+0xf2>
    1d54:	380d      	subs	r0, #13
    1d56:	282f      	cmp	r0, #47	; 0x2f
    1d58:	d86f      	bhi.n	1e3a <alt_clk_within_freq_limits+0xf2>
    1d5a:	e8df f000 	tbb	[pc, r0]
    1d5e:	2218      	.short	0x2218
    1d60:	413e2825 	.word	0x413e2825
    1d64:	6e6e6e6e 	.word	0x6e6e6e6e
    1d68:	6e6e6e6e 	.word	0x6e6e6e6e
    1d6c:	6e6e6e6e 	.word	0x6e6e6e6e
    1d70:	6e6e6e6e 	.word	0x6e6e6e6e
    1d74:	49446e6e 	.word	0x49446e6e
    1d78:	55524f4c 	.word	0x55524f4c
    1d7c:	6e6e6e6e 	.word	0x6e6e6e6e
    1d80:	6e6e6e6e 	.word	0x6e6e6e6e
    1d84:	6e6e6e6e 	.word	0x6e6e6e6e
    1d88:	6e64615c 	.word	0x6e64615c
    1d8c:	676e      	.short	0x676e
    1d8e:	4b2c      	ldr	r3, [pc, #176]	; (1e40 <alt_clk_within_freq_limits+0xf8>)
    1d90:	681e      	ldr	r6, [r3, #0]
    1d92:	4b2c      	ldr	r3, [pc, #176]	; (1e44 <alt_clk_within_freq_limits+0xfc>)
    1d94:	a901      	add	r1, sp, #4
    1d96:	2009      	movs	r0, #9
    1d98:	681d      	ldr	r5, [r3, #0]
    1d9a:	f7ff ff33 	bl	1c04 <alt_clk_pll_vco_freq_get>
    1d9e:	4604      	mov	r4, r0
    1da0:	e00d      	b.n	1dbe <alt_clk_within_freq_limits+0x76>
    1da2:	4b27      	ldr	r3, [pc, #156]	; (1e40 <alt_clk_within_freq_limits+0xf8>)
    1da4:	685e      	ldr	r6, [r3, #4]
    1da6:	e7f4      	b.n	1d92 <alt_clk_within_freq_limits+0x4a>
    1da8:	4b25      	ldr	r3, [pc, #148]	; (1e40 <alt_clk_within_freq_limits+0xf8>)
    1daa:	689e      	ldr	r6, [r3, #8]
    1dac:	e7f1      	b.n	1d92 <alt_clk_within_freq_limits+0x4a>
    1dae:	4b24      	ldr	r3, [pc, #144]	; (1e40 <alt_clk_within_freq_limits+0xf8>)
    1db0:	a901      	add	r1, sp, #4
    1db2:	2009      	movs	r0, #9
    1db4:	68de      	ldr	r6, [r3, #12]
    1db6:	f7ff ff25 	bl	1c04 <alt_clk_pll_vco_freq_get>
    1dba:	2500      	movs	r5, #0
    1dbc:	4604      	mov	r4, r0
    1dbe:	b94c      	cbnz	r4, 1dd4 <alt_clk_within_freq_limits+0x8c>
    1dc0:	4639      	mov	r1, r7
    1dc2:	9801      	ldr	r0, [sp, #4]
    1dc4:	f003 eb44 	blx	5450 <__aeabi_uidiv>
    1dc8:	4286      	cmp	r6, r0
    1dca:	d303      	bcc.n	1dd4 <alt_clk_within_freq_limits+0x8c>
    1dcc:	4285      	cmp	r5, r0
    1dce:	bf8c      	ite	hi
    1dd0:	2400      	movhi	r4, #0
    1dd2:	2401      	movls	r4, #1
    1dd4:	4620      	mov	r0, r4
    1dd6:	b003      	add	sp, #12
    1dd8:	bdf0      	pop	{r4, r5, r6, r7, pc}
    1dda:	4b19      	ldr	r3, [pc, #100]	; (1e40 <alt_clk_within_freq_limits+0xf8>)
    1ddc:	691e      	ldr	r6, [r3, #16]
    1dde:	e7d8      	b.n	1d92 <alt_clk_within_freq_limits+0x4a>
    1de0:	4b17      	ldr	r3, [pc, #92]	; (1e40 <alt_clk_within_freq_limits+0xf8>)
    1de2:	695e      	ldr	r6, [r3, #20]
    1de4:	e7d5      	b.n	1d92 <alt_clk_within_freq_limits+0x4a>
    1de6:	4b16      	ldr	r3, [pc, #88]	; (1e40 <alt_clk_within_freq_limits+0xf8>)
    1de8:	699e      	ldr	r6, [r3, #24]
    1dea:	a901      	add	r1, sp, #4
    1dec:	200a      	movs	r0, #10
    1dee:	e7e2      	b.n	1db6 <alt_clk_within_freq_limits+0x6e>
    1df0:	4b13      	ldr	r3, [pc, #76]	; (1e40 <alt_clk_within_freq_limits+0xf8>)
    1df2:	69de      	ldr	r6, [r3, #28]
    1df4:	e7f9      	b.n	1dea <alt_clk_within_freq_limits+0xa2>
    1df6:	4b12      	ldr	r3, [pc, #72]	; (1e40 <alt_clk_within_freq_limits+0xf8>)
    1df8:	6a1e      	ldr	r6, [r3, #32]
    1dfa:	e7f6      	b.n	1dea <alt_clk_within_freq_limits+0xa2>
    1dfc:	4b10      	ldr	r3, [pc, #64]	; (1e40 <alt_clk_within_freq_limits+0xf8>)
    1dfe:	6a5e      	ldr	r6, [r3, #36]	; 0x24
    1e00:	e7f3      	b.n	1dea <alt_clk_within_freq_limits+0xa2>
    1e02:	4b0f      	ldr	r3, [pc, #60]	; (1e40 <alt_clk_within_freq_limits+0xf8>)
    1e04:	6a9e      	ldr	r6, [r3, #40]	; 0x28
    1e06:	e7f0      	b.n	1dea <alt_clk_within_freq_limits+0xa2>
    1e08:	4b0d      	ldr	r3, [pc, #52]	; (1e40 <alt_clk_within_freq_limits+0xf8>)
    1e0a:	a901      	add	r1, sp, #4
    1e0c:	200a      	movs	r0, #10
    1e0e:	6ade      	ldr	r6, [r3, #44]	; 0x2c
    1e10:	4b0c      	ldr	r3, [pc, #48]	; (1e44 <alt_clk_within_freq_limits+0xfc>)
    1e12:	681d      	ldr	r5, [r3, #0]
    1e14:	e7c1      	b.n	1d9a <alt_clk_within_freq_limits+0x52>
    1e16:	4b0a      	ldr	r3, [pc, #40]	; (1e40 <alt_clk_within_freq_limits+0xf8>)
    1e18:	6b1e      	ldr	r6, [r3, #48]	; 0x30
    1e1a:	a901      	add	r1, sp, #4
    1e1c:	200b      	movs	r0, #11
    1e1e:	e7ca      	b.n	1db6 <alt_clk_within_freq_limits+0x6e>
    1e20:	4b07      	ldr	r3, [pc, #28]	; (1e40 <alt_clk_within_freq_limits+0xf8>)
    1e22:	6b5e      	ldr	r6, [r3, #52]	; 0x34
    1e24:	e7f9      	b.n	1e1a <alt_clk_within_freq_limits+0xd2>
    1e26:	4b06      	ldr	r3, [pc, #24]	; (1e40 <alt_clk_within_freq_limits+0xf8>)
    1e28:	6b9e      	ldr	r6, [r3, #56]	; 0x38
    1e2a:	e7f6      	b.n	1e1a <alt_clk_within_freq_limits+0xd2>
    1e2c:	4b04      	ldr	r3, [pc, #16]	; (1e40 <alt_clk_within_freq_limits+0xf8>)
    1e2e:	a901      	add	r1, sp, #4
    1e30:	200b      	movs	r0, #11
    1e32:	6bde      	ldr	r6, [r3, #60]	; 0x3c
    1e34:	4b03      	ldr	r3, [pc, #12]	; (1e44 <alt_clk_within_freq_limits+0xfc>)
    1e36:	681d      	ldr	r5, [r3, #0]
    1e38:	e7af      	b.n	1d9a <alt_clk_within_freq_limits+0x52>
    1e3a:	f06f 0408 	mvn.w	r4, #8
    1e3e:	e7c9      	b.n	1dd4 <alt_clk_within_freq_limits+0x8c>
    1e40:	000066d4 	.word	0x000066d4
    1e44:	00006634 	.word	0x00006634

00001e48 <alt_clk_pll_guard_band_get>:
    1e48:	2809      	cmp	r0, #9
    1e4a:	d105      	bne.n	1e58 <alt_clk_pll_guard_band_get+0x10>
    1e4c:	4b09      	ldr	r3, [pc, #36]	; (1e74 <alt_clk_pll_guard_band_get+0x2c>)
    1e4e:	f893 003c 	ldrb.w	r0, [r3, #60]	; 0x3c
    1e52:	f000 007f 	and.w	r0, r0, #127	; 0x7f
    1e56:	4770      	bx	lr
    1e58:	280a      	cmp	r0, #10
    1e5a:	d103      	bne.n	1e64 <alt_clk_pll_guard_band_get+0x1c>
    1e5c:	4b05      	ldr	r3, [pc, #20]	; (1e74 <alt_clk_pll_guard_band_get+0x2c>)
    1e5e:	f893 004c 	ldrb.w	r0, [r3, #76]	; 0x4c
    1e62:	e7f6      	b.n	1e52 <alt_clk_pll_guard_band_get+0xa>
    1e64:	280b      	cmp	r0, #11
    1e66:	d103      	bne.n	1e70 <alt_clk_pll_guard_band_get+0x28>
    1e68:	4b02      	ldr	r3, [pc, #8]	; (1e74 <alt_clk_pll_guard_band_get+0x2c>)
    1e6a:	f893 005c 	ldrb.w	r0, [r3, #92]	; 0x5c
    1e6e:	e7f0      	b.n	1e52 <alt_clk_pll_guard_band_get+0xa>
    1e70:	2000      	movs	r0, #0
    1e72:	4770      	bx	lr
    1e74:	00006674 	.word	0x00006674

00001e78 <alt_clk_pll_guard_band_set>:
    1e78:	1e4b      	subs	r3, r1, #1
    1e7a:	2b13      	cmp	r3, #19
    1e7c:	d81e      	bhi.n	1ebc <alt_clk_pll_guard_band_set+0x44>
    1e7e:	2809      	cmp	r0, #9
    1e80:	d108      	bne.n	1e94 <alt_clk_pll_guard_band_set+0x1c>
    1e82:	4b11      	ldr	r3, [pc, #68]	; (1ec8 <alt_clk_pll_guard_band_set+0x50>)
    1e84:	f893 203c 	ldrb.w	r2, [r3, #60]	; 0x3c
    1e88:	f361 0206 	bfi	r2, r1, #0, #7
    1e8c:	f883 203c 	strb.w	r2, [r3, #60]	; 0x3c
    1e90:	2000      	movs	r0, #0
    1e92:	4770      	bx	lr
    1e94:	280a      	cmp	r0, #10
    1e96:	d107      	bne.n	1ea8 <alt_clk_pll_guard_band_set+0x30>
    1e98:	4b0b      	ldr	r3, [pc, #44]	; (1ec8 <alt_clk_pll_guard_band_set+0x50>)
    1e9a:	f893 204c 	ldrb.w	r2, [r3, #76]	; 0x4c
    1e9e:	f361 0206 	bfi	r2, r1, #0, #7
    1ea2:	f883 204c 	strb.w	r2, [r3, #76]	; 0x4c
    1ea6:	e7f3      	b.n	1e90 <alt_clk_pll_guard_band_set+0x18>
    1ea8:	280b      	cmp	r0, #11
    1eaa:	d10a      	bne.n	1ec2 <alt_clk_pll_guard_band_set+0x4a>
    1eac:	4b06      	ldr	r3, [pc, #24]	; (1ec8 <alt_clk_pll_guard_band_set+0x50>)
    1eae:	f893 205c 	ldrb.w	r2, [r3, #92]	; 0x5c
    1eb2:	f361 0206 	bfi	r2, r1, #0, #7
    1eb6:	f883 205c 	strb.w	r2, [r3, #92]	; 0x5c
    1eba:	e7e9      	b.n	1e90 <alt_clk_pll_guard_band_set+0x18>
    1ebc:	f06f 0007 	mvn.w	r0, #7
    1ec0:	4770      	bx	lr
    1ec2:	f04f 30ff 	mov.w	r0, #4294967295
    1ec6:	4770      	bx	lr
    1ec8:	00006674 	.word	0x00006674

00001ecc <alt_clk_divider_get>:
    1ecc:	2900      	cmp	r1, #0
    1ece:	f000 8098 	beq.w	2002 <alt_clk_divider_get+0x136>
    1ed2:	380d      	subs	r0, #13
    1ed4:	2833      	cmp	r0, #51	; 0x33
    1ed6:	f200 8094 	bhi.w	2002 <alt_clk_divider_get+0x136>
    1eda:	e8df f000 	tbb	[pc, r0]
    1ede:	281a      	.short	0x281a
    1ee0:	34322c2a 	.word	0x34322c2a
    1ee4:	28908e1a 	.word	0x28908e1a
    1ee8:	5828534a 	.word	0x5828534a
    1eec:	73642a5f 	.word	0x73642a5f
    1ef0:	322c6e2a 	.word	0x322c6e2a
    1ef4:	38363434 	.word	0x38363434
    1ef8:	403e3c3a 	.word	0x403e3c3a
    1efc:	92927a78 	.word	0x92927a78
    1f00:	38369290 	.word	0x38369290
    1f04:	4089847f 	.word	0x4089847f
    1f08:	92464442 	.word	0x92464442
    1f0c:	44424892 	.word	0x44424892
    1f10:	4846      	.short	0x4846
    1f12:	4b3d      	ldr	r3, [pc, #244]	; (2008 <alt_clk_divider_get+0x13c>)
    1f14:	681a      	ldr	r2, [r3, #0]
    1f16:	3398      	adds	r3, #152	; 0x98
    1f18:	681b      	ldr	r3, [r3, #0]
    1f1a:	f3c2 0208 	ubfx	r2, r2, #0, #9
    1f1e:	f3c3 0308 	ubfx	r3, r3, #0, #9
    1f22:	3301      	adds	r3, #1
    1f24:	fb02 3303 	mla	r3, r2, r3, r3
    1f28:	600b      	str	r3, [r1, #0]
    1f2a:	2000      	movs	r0, #0
    1f2c:	4770      	bx	lr
    1f2e:	4b37      	ldr	r3, [pc, #220]	; (200c <alt_clk_divider_get+0x140>)
    1f30:	e7f0      	b.n	1f14 <alt_clk_divider_get+0x48>
    1f32:	4b37      	ldr	r3, [pc, #220]	; (2010 <alt_clk_divider_get+0x144>)
    1f34:	e7ee      	b.n	1f14 <alt_clk_divider_get+0x48>
    1f36:	4b37      	ldr	r3, [pc, #220]	; (2014 <alt_clk_divider_get+0x148>)
    1f38:	681b      	ldr	r3, [r3, #0]
    1f3a:	f3c3 0308 	ubfx	r3, r3, #0, #9
    1f3e:	3301      	adds	r3, #1
    1f40:	e7f2      	b.n	1f28 <alt_clk_divider_get+0x5c>
    1f42:	4b35      	ldr	r3, [pc, #212]	; (2018 <alt_clk_divider_get+0x14c>)
    1f44:	e7f8      	b.n	1f38 <alt_clk_divider_get+0x6c>
    1f46:	4b35      	ldr	r3, [pc, #212]	; (201c <alt_clk_divider_get+0x150>)
    1f48:	e7f6      	b.n	1f38 <alt_clk_divider_get+0x6c>
    1f4a:	4b35      	ldr	r3, [pc, #212]	; (2020 <alt_clk_divider_get+0x154>)
    1f4c:	e7f4      	b.n	1f38 <alt_clk_divider_get+0x6c>
    1f4e:	4b35      	ldr	r3, [pc, #212]	; (2024 <alt_clk_divider_get+0x158>)
    1f50:	e7f2      	b.n	1f38 <alt_clk_divider_get+0x6c>
    1f52:	4b35      	ldr	r3, [pc, #212]	; (2028 <alt_clk_divider_get+0x15c>)
    1f54:	e7f0      	b.n	1f38 <alt_clk_divider_get+0x6c>
    1f56:	4b35      	ldr	r3, [pc, #212]	; (202c <alt_clk_divider_get+0x160>)
    1f58:	e7ee      	b.n	1f38 <alt_clk_divider_get+0x6c>
    1f5a:	4b35      	ldr	r3, [pc, #212]	; (2030 <alt_clk_divider_get+0x164>)
    1f5c:	e7ec      	b.n	1f38 <alt_clk_divider_get+0x6c>
    1f5e:	4b35      	ldr	r3, [pc, #212]	; (2034 <alt_clk_divider_get+0x168>)
    1f60:	e7ea      	b.n	1f38 <alt_clk_divider_get+0x6c>
    1f62:	4b35      	ldr	r3, [pc, #212]	; (2038 <alt_clk_divider_get+0x16c>)
    1f64:	e7e8      	b.n	1f38 <alt_clk_divider_get+0x6c>
    1f66:	4b35      	ldr	r3, [pc, #212]	; (203c <alt_clk_divider_get+0x170>)
    1f68:	e7e6      	b.n	1f38 <alt_clk_divider_get+0x6c>
    1f6a:	4b35      	ldr	r3, [pc, #212]	; (2040 <alt_clk_divider_get+0x174>)
    1f6c:	e7e4      	b.n	1f38 <alt_clk_divider_get+0x6c>
    1f6e:	4b35      	ldr	r3, [pc, #212]	; (2044 <alt_clk_divider_get+0x178>)
    1f70:	e7e2      	b.n	1f38 <alt_clk_divider_get+0x6c>
    1f72:	4b35      	ldr	r3, [pc, #212]	; (2048 <alt_clk_divider_get+0x17c>)
    1f74:	681b      	ldr	r3, [r3, #0]
    1f76:	f003 0303 	and.w	r3, r3, #3
    1f7a:	2b01      	cmp	r3, #1
    1f7c:	d9df      	bls.n	1f3e <alt_clk_divider_get+0x72>
    1f7e:	f04f 30ff 	mov.w	r0, #4294967295
    1f82:	4770      	bx	lr
    1f84:	4b30      	ldr	r3, [pc, #192]	; (2048 <alt_clk_divider_get+0x17c>)
    1f86:	681b      	ldr	r3, [r3, #0]
    1f88:	f3c3 0381 	ubfx	r3, r3, #2, #2
    1f8c:	e7f5      	b.n	1f7a <alt_clk_divider_get+0xae>
    1f8e:	4b2e      	ldr	r3, [pc, #184]	; (2048 <alt_clk_divider_get+0x17c>)
    1f90:	681b      	ldr	r3, [r3, #0]
    1f92:	f3c3 1302 	ubfx	r3, r3, #4, #3
    1f96:	2b04      	cmp	r3, #4
    1f98:	d90b      	bls.n	1fb2 <alt_clk_divider_get+0xe6>
    1f9a:	e7f0      	b.n	1f7e <alt_clk_divider_get+0xb2>
    1f9c:	4b2a      	ldr	r3, [pc, #168]	; (2048 <alt_clk_divider_get+0x17c>)
    1f9e:	681b      	ldr	r3, [r3, #0]
    1fa0:	f3c3 13c2 	ubfx	r3, r3, #7, #3
    1fa4:	e7f7      	b.n	1f96 <alt_clk_divider_get+0xca>
    1fa6:	4b29      	ldr	r3, [pc, #164]	; (204c <alt_clk_divider_get+0x180>)
    1fa8:	681b      	ldr	r3, [r3, #0]
    1faa:	f003 0303 	and.w	r3, r3, #3
    1fae:	2b03      	cmp	r3, #3
    1fb0:	d0e5      	beq.n	1f7e <alt_clk_divider_get+0xb2>
    1fb2:	2201      	movs	r2, #1
    1fb4:	fa02 f303 	lsl.w	r3, r2, r3
    1fb8:	e7b6      	b.n	1f28 <alt_clk_divider_get+0x5c>
    1fba:	4b24      	ldr	r3, [pc, #144]	; (204c <alt_clk_divider_get+0x180>)
    1fbc:	681b      	ldr	r3, [r3, #0]
    1fbe:	f3c3 0381 	ubfx	r3, r3, #2, #2
    1fc2:	e7f4      	b.n	1fae <alt_clk_divider_get+0xe2>
    1fc4:	4b22      	ldr	r3, [pc, #136]	; (2050 <alt_clk_divider_get+0x184>)
    1fc6:	681b      	ldr	r3, [r3, #0]
    1fc8:	f003 0307 	and.w	r3, r3, #7
    1fcc:	e7e3      	b.n	1f96 <alt_clk_divider_get+0xca>
    1fce:	4b21      	ldr	r3, [pc, #132]	; (2054 <alt_clk_divider_get+0x188>)
    1fd0:	e7f9      	b.n	1fc6 <alt_clk_divider_get+0xfa>
    1fd2:	4b20      	ldr	r3, [pc, #128]	; (2054 <alt_clk_divider_get+0x188>)
    1fd4:	681b      	ldr	r3, [r3, #0]
    1fd6:	f3c3 03c2 	ubfx	r3, r3, #3, #3
    1fda:	e7dc      	b.n	1f96 <alt_clk_divider_get+0xca>
    1fdc:	4b1d      	ldr	r3, [pc, #116]	; (2054 <alt_clk_divider_get+0x188>)
    1fde:	681b      	ldr	r3, [r3, #0]
    1fe0:	f3c3 1382 	ubfx	r3, r3, #6, #3
    1fe4:	e7d7      	b.n	1f96 <alt_clk_divider_get+0xca>
    1fe6:	4b1b      	ldr	r3, [pc, #108]	; (2054 <alt_clk_divider_get+0x188>)
    1fe8:	681b      	ldr	r3, [r3, #0]
    1fea:	f3c3 2342 	ubfx	r3, r3, #9, #3
    1fee:	e7d2      	b.n	1f96 <alt_clk_divider_get+0xca>
    1ff0:	4b19      	ldr	r3, [pc, #100]	; (2058 <alt_clk_divider_get+0x18c>)
    1ff2:	681b      	ldr	r3, [r3, #0]
    1ff4:	f023 437f 	bic.w	r3, r3, #4278190080	; 0xff000000
    1ff8:	e7a1      	b.n	1f3e <alt_clk_divider_get+0x72>
    1ffa:	2302      	movs	r3, #2
    1ffc:	e794      	b.n	1f28 <alt_clk_divider_get+0x5c>
    1ffe:	2304      	movs	r3, #4
    2000:	e792      	b.n	1f28 <alt_clk_divider_get+0x5c>
    2002:	f06f 0008 	mvn.w	r0, #8
    2006:	4770      	bx	lr
    2008:	ffd04048 	.word	0xffd04048
    200c:	ffd0404c 	.word	0xffd0404c
    2010:	ffd04050 	.word	0xffd04050
    2014:	ffd04054 	.word	0xffd04054
    2018:	ffd04058 	.word	0xffd04058
    201c:	ffd0405c 	.word	0xffd0405c
    2020:	ffd04088 	.word	0xffd04088
    2024:	ffd0408c 	.word	0xffd0408c
    2028:	ffd04090 	.word	0xffd04090
    202c:	ffd04094 	.word	0xffd04094
    2030:	ffd04098 	.word	0xffd04098
    2034:	ffd0409c 	.word	0xffd0409c
    2038:	ffd040c8 	.word	0xffd040c8
    203c:	ffd040cc 	.word	0xffd040cc
    2040:	ffd040d0 	.word	0xffd040d0
    2044:	ffd040d4 	.word	0xffd040d4
    2048:	ffd04064 	.word	0xffd04064
    204c:	ffd04068 	.word	0xffd04068
    2050:	ffd0406c 	.word	0xffd0406c
    2054:	ffd040a4 	.word	0xffd040a4
    2058:	ffd040a8 	.word	0xffd040a8

0000205c <alt_clk_divider_set>:
    205c:	e92d 41ff 	stmdb	sp!, {r0, r1, r2, r3, r4, r5, r6, r7, r8, lr}
    2060:	380d      	subs	r0, #13
    2062:	460c      	mov	r4, r1
    2064:	2833      	cmp	r0, #51	; 0x33
    2066:	f200 8467 	bhi.w	2938 <alt_clk_divider_set+0x8dc>
    206a:	e8df f010 	tbh	[pc, r0, lsl #1]
    206e:	0034      	.short	0x0034
    2070:	00a40055 	.word	0x00a40055
    2074:	00ed00bf 	.word	0x00ed00bf
    2078:	00340157 	.word	0x00340157
    207c:	04650465 	.word	0x04650465
    2080:	03690055 	.word	0x03690055
    2084:	04650371 	.word	0x04650371
    2088:	038a0379 	.word	0x038a0379
    208c:	039b00a4 	.word	0x039b00a4
    2090:	046503ae 	.word	0x046503ae
    2094:	042303a6 	.word	0x042303a6
    2098:	015700ed 	.word	0x015700ed
    209c:	01a30157 	.word	0x01a30157
    20a0:	01e801c6 	.word	0x01e801c6
    20a4:	0246021c 	.word	0x0246021c
    20a8:	03bf02a2 	.word	0x03bf02a2
    20ac:	046503d0 	.word	0x046503d0
    20b0:	04650465 	.word	0x04650465
    20b4:	01a30465 	.word	0x01a30465
    20b8:	03e101c6 	.word	0x03e101c6
    20bc:	040303f2 	.word	0x040303f2
    20c0:	02c502a2 	.word	0x02c502a2
    20c4:	032f02ec 	.word	0x032f02ec
    20c8:	04650465 	.word	0x04650465
    20cc:	02c5034c 	.word	0x02c5034c
    20d0:	032f02ec 	.word	0x032f02ec
    20d4:	034c      	.short	0x034c
    20d6:	4ba8      	ldr	r3, [pc, #672]	; (2378 <alt_clk_divider_set+0x31c>)
    20d8:	681d      	ldr	r5, [r3, #0]
    20da:	f3c5 0508 	ubfx	r5, r5, #0, #9
    20de:	3501      	adds	r5, #1
    20e0:	ebb1 2f45 	cmp.w	r1, r5, lsl #9
    20e4:	d904      	bls.n	20f0 <alt_clk_divider_set+0x94>
    20e6:	f06f 0007 	mvn.w	r0, #7
    20ea:	b004      	add	sp, #16
    20ec:	e8bd 81f0 	ldmia.w	sp!, {r4, r5, r6, r7, r8, pc}
    20f0:	4629      	mov	r1, r5
    20f2:	4620      	mov	r0, r4
    20f4:	f7fe fcef 	bl	ad6 <alt_clkmgr_is_val_modulo_n>
    20f8:	2800      	cmp	r0, #0
    20fa:	d0f4      	beq.n	20e6 <alt_clk_divider_set+0x8a>
    20fc:	4621      	mov	r1, r4
    20fe:	200d      	movs	r0, #13
    2100:	f7ff fe22 	bl	1d48 <alt_clk_within_freq_limits>
    2104:	2801      	cmp	r0, #1
    2106:	d1ee      	bne.n	20e6 <alt_clk_divider_set+0x8a>
    2108:	4629      	mov	r1, r5
    210a:	4620      	mov	r0, r4
    210c:	f003 e9a0 	blx	5450 <__aeabi_uidiv>
    2110:	4b9a      	ldr	r3, [pc, #616]	; (237c <alt_clk_divider_set+0x320>)
    2112:	3801      	subs	r0, #1
    2114:	6018      	str	r0, [r3, #0]
    2116:	e049      	b.n	21ac <alt_clk_divider_set+0x150>
    2118:	4b99      	ldr	r3, [pc, #612]	; (2380 <alt_clk_divider_set+0x324>)
    211a:	681d      	ldr	r5, [r3, #0]
    211c:	f3c5 0508 	ubfx	r5, r5, #0, #9
    2120:	3501      	adds	r5, #1
    2122:	ebb1 2f45 	cmp.w	r1, r5, lsl #9
    2126:	d8de      	bhi.n	20e6 <alt_clk_divider_set+0x8a>
    2128:	4629      	mov	r1, r5
    212a:	4620      	mov	r0, r4
    212c:	f7fe fcd3 	bl	ad6 <alt_clkmgr_is_val_modulo_n>
    2130:	2800      	cmp	r0, #0
    2132:	d0d8      	beq.n	20e6 <alt_clk_divider_set+0x8a>
    2134:	4621      	mov	r1, r4
    2136:	200e      	movs	r0, #14
    2138:	f7ff fe06 	bl	1d48 <alt_clk_within_freq_limits>
    213c:	2801      	cmp	r0, #1
    213e:	d1d2      	bne.n	20e6 <alt_clk_divider_set+0x8a>
    2140:	4629      	mov	r1, r5
    2142:	4620      	mov	r0, r4
    2144:	f003 e984 	blx	5450 <__aeabi_uidiv>
    2148:	4b8e      	ldr	r3, [pc, #568]	; (2384 <alt_clk_divider_set+0x328>)
    214a:	3801      	subs	r0, #1
    214c:	4c8e      	ldr	r4, [pc, #568]	; (2388 <alt_clk_divider_set+0x32c>)
    214e:	681b      	ldr	r3, [r3, #0]
    2150:	9302      	str	r3, [sp, #8]
    2152:	6823      	ldr	r3, [r4, #0]
    2154:	9303      	str	r3, [sp, #12]
    2156:	9b03      	ldr	r3, [sp, #12]
    2158:	f013 0304 	ands.w	r3, r3, #4
    215c:	bf18      	it	ne
    215e:	9b02      	ldrne	r3, [sp, #8]
    2160:	9a03      	ldr	r2, [sp, #12]
    2162:	bf18      	it	ne
    2164:	43db      	mvnne	r3, r3
    2166:	f012 0208 	ands.w	r2, r2, #8
    216a:	f003 0301 	and.w	r3, r3, #1
    216e:	bf18      	it	ne
    2170:	9a02      	ldrne	r2, [sp, #8]
    2172:	9903      	ldr	r1, [sp, #12]
    2174:	bf1c      	itt	ne
    2176:	f082 0202 	eorne.w	r2, r2, #2
    217a:	f3c2 0240 	ubfxne	r2, r2, #1, #1
    217e:	9102      	str	r1, [sp, #8]
    2180:	b11b      	cbz	r3, 218a <alt_clk_divider_set+0x12e>
    2182:	9902      	ldr	r1, [sp, #8]
    2184:	f021 0104 	bic.w	r1, r1, #4
    2188:	9102      	str	r1, [sp, #8]
    218a:	b11a      	cbz	r2, 2194 <alt_clk_divider_set+0x138>
    218c:	9902      	ldr	r1, [sp, #8]
    218e:	f021 0108 	bic.w	r1, r1, #8
    2192:	9102      	str	r1, [sp, #8]
    2194:	431a      	orrs	r2, r3
    2196:	f04f 011e 	mov.w	r1, #30
    219a:	bf1c      	itt	ne
    219c:	9b02      	ldrne	r3, [sp, #8]
    219e:	6023      	strne	r3, [r4, #0]
    21a0:	4b7a      	ldr	r3, [pc, #488]	; (238c <alt_clk_divider_set+0x330>)
    21a2:	6018      	str	r0, [r3, #0]
    21a4:	4878      	ldr	r0, [pc, #480]	; (2388 <alt_clk_divider_set+0x32c>)
    21a6:	f7fe fc7d 	bl	aa4 <alt_clk_mgr_wait>
    21aa:	b90a      	cbnz	r2, 21b0 <alt_clk_divider_set+0x154>
    21ac:	2000      	movs	r0, #0
    21ae:	e79c      	b.n	20ea <alt_clk_divider_set+0x8e>
    21b0:	9b03      	ldr	r3, [sp, #12]
    21b2:	6023      	str	r3, [r4, #0]
    21b4:	e7fa      	b.n	21ac <alt_clk_divider_set+0x150>
    21b6:	4b76      	ldr	r3, [pc, #472]	; (2390 <alt_clk_divider_set+0x334>)
    21b8:	681d      	ldr	r5, [r3, #0]
    21ba:	f3c5 0508 	ubfx	r5, r5, #0, #9
    21be:	3501      	adds	r5, #1
    21c0:	ebb1 2f45 	cmp.w	r1, r5, lsl #9
    21c4:	d88f      	bhi.n	20e6 <alt_clk_divider_set+0x8a>
    21c6:	4629      	mov	r1, r5
    21c8:	4620      	mov	r0, r4
    21ca:	f7fe fc84 	bl	ad6 <alt_clkmgr_is_val_modulo_n>
    21ce:	2800      	cmp	r0, #0
    21d0:	d089      	beq.n	20e6 <alt_clk_divider_set+0x8a>
    21d2:	4621      	mov	r1, r4
    21d4:	200f      	movs	r0, #15
    21d6:	f7ff fdb7 	bl	1d48 <alt_clk_within_freq_limits>
    21da:	2801      	cmp	r0, #1
    21dc:	d183      	bne.n	20e6 <alt_clk_divider_set+0x8a>
    21de:	4629      	mov	r1, r5
    21e0:	4620      	mov	r0, r4
    21e2:	f003 e936 	blx	5450 <__aeabi_uidiv>
    21e6:	4b6b      	ldr	r3, [pc, #428]	; (2394 <alt_clk_divider_set+0x338>)
    21e8:	3801      	subs	r0, #1
    21ea:	e793      	b.n	2114 <alt_clk_divider_set+0xb8>
    21ec:	f5b1 7f00 	cmp.w	r1, #512	; 0x200
    21f0:	f63f af79 	bhi.w	20e6 <alt_clk_divider_set+0x8a>
    21f4:	2010      	movs	r0, #16
    21f6:	f7ff fda7 	bl	1d48 <alt_clk_within_freq_limits>
    21fa:	2801      	cmp	r0, #1
    21fc:	f47f af73 	bne.w	20e6 <alt_clk_divider_set+0x8a>
    2200:	4b65      	ldr	r3, [pc, #404]	; (2398 <alt_clk_divider_set+0x33c>)
    2202:	681b      	ldr	r3, [r3, #0]
    2204:	f3c3 1301 	ubfx	r3, r3, #4, #2
    2208:	2b01      	cmp	r3, #1
    220a:	f040 8395 	bne.w	2938 <alt_clk_divider_set+0x8dc>
    220e:	4d63      	ldr	r5, [pc, #396]	; (239c <alt_clk_divider_set+0x340>)
    2210:	2108      	movs	r1, #8
    2212:	4863      	ldr	r0, [pc, #396]	; (23a0 <alt_clk_divider_set+0x344>)
    2214:	4a63      	ldr	r2, [pc, #396]	; (23a4 <alt_clk_divider_set+0x348>)
    2216:	682e      	ldr	r6, [r5, #0]
    2218:	9602      	str	r6, [sp, #8]
    221a:	f416 6600 	ands.w	r6, r6, #2048	; 0x800
    221e:	bf1e      	ittt	ne
    2220:	9b02      	ldrne	r3, [sp, #8]
    2222:	f423 6300 	bicne.w	r3, r3, #2048	; 0x800
    2226:	602b      	strne	r3, [r5, #0]
    2228:	2319      	movs	r3, #25
    222a:	e88d 000a 	stmia.w	sp, {r1, r3}
    222e:	1e63      	subs	r3, r4, #1
    2230:	495d      	ldr	r1, [pc, #372]	; (23a8 <alt_clk_divider_set+0x34c>)
    2232:	f7fe fc3c 	bl	aae <alt_clk_pllcounter_write>
    2236:	485b      	ldr	r0, [pc, #364]	; (23a4 <alt_clk_divider_set+0x348>)
    2238:	211e      	movs	r1, #30
    223a:	f7fe fc33 	bl	aa4 <alt_clk_mgr_wait>
    223e:	2e00      	cmp	r6, #0
    2240:	d0b4      	beq.n	21ac <alt_clk_divider_set+0x150>
    2242:	9b02      	ldr	r3, [sp, #8]
    2244:	f000 bccc 	b.w	2be0 <alt_clk_divider_set+0xb84>
    2248:	f5b1 7f00 	cmp.w	r1, #512	; 0x200
    224c:	f63f af4b 	bhi.w	20e6 <alt_clk_divider_set+0x8a>
    2250:	2011      	movs	r0, #17
    2252:	f7ff fd79 	bl	1d48 <alt_clk_within_freq_limits>
    2256:	2801      	cmp	r0, #1
    2258:	f47f af45 	bne.w	20e6 <alt_clk_divider_set+0x8a>
    225c:	4b4e      	ldr	r3, [pc, #312]	; (2398 <alt_clk_divider_set+0x33c>)
    225e:	4e4f      	ldr	r6, [pc, #316]	; (239c <alt_clk_divider_set+0x340>)
    2260:	681b      	ldr	r3, [r3, #0]
    2262:	9302      	str	r3, [sp, #8]
    2264:	6833      	ldr	r3, [r6, #0]
    2266:	9303      	str	r3, [sp, #12]
    2268:	9b02      	ldr	r3, [sp, #8]
    226a:	f003 0303 	and.w	r3, r3, #3
    226e:	2b01      	cmp	r3, #1
    2270:	bf0c      	ite	eq
    2272:	9a03      	ldreq	r2, [sp, #12]
    2274:	2200      	movne	r2, #0
    2276:	9b02      	ldr	r3, [sp, #8]
    2278:	bf08      	it	eq
    227a:	f3c2 2200 	ubfxeq	r2, r2, #8, #1
    227e:	f3c3 0381 	ubfx	r3, r3, #2, #2
    2282:	2b01      	cmp	r3, #1
    2284:	bf0b      	itete	eq
    2286:	9d03      	ldreq	r5, [sp, #12]
    2288:	2700      	movne	r7, #0
    228a:	9f03      	ldreq	r7, [sp, #12]
    228c:	463d      	movne	r5, r7
    228e:	9b03      	ldr	r3, [sp, #12]
    2290:	bf04      	itt	eq
    2292:	f3c5 2540 	ubfxeq	r5, r5, #9, #1
    2296:	f3c7 2780 	ubfxeq	r7, r7, #10, #1
    229a:	9302      	str	r3, [sp, #8]
    229c:	b155      	cbz	r5, 22b4 <alt_clk_divider_set+0x258>
    229e:	b14f      	cbz	r7, 22b4 <alt_clk_divider_set+0x258>
    22a0:	9b02      	ldr	r3, [sp, #8]
    22a2:	2108      	movs	r1, #8
    22a4:	483d      	ldr	r0, [pc, #244]	; (239c <alt_clk_divider_set+0x340>)
    22a6:	f423 6380 	bic.w	r3, r3, #1024	; 0x400
    22aa:	9302      	str	r3, [sp, #8]
    22ac:	9b02      	ldr	r3, [sp, #8]
    22ae:	6033      	str	r3, [r6, #0]
    22b0:	f7fe fbf8 	bl	aa4 <alt_clk_mgr_wait>
    22b4:	ea52 0805 	orrs.w	r8, r2, r5
    22b8:	d006      	beq.n	22c8 <alt_clk_divider_set+0x26c>
    22ba:	bb42      	cbnz	r2, 230e <alt_clk_divider_set+0x2b2>
    22bc:	9b02      	ldr	r3, [sp, #8]
    22be:	f423 7300 	bic.w	r3, r3, #512	; 0x200
    22c2:	9302      	str	r3, [sp, #8]
    22c4:	9b02      	ldr	r3, [sp, #8]
    22c6:	6033      	str	r3, [r6, #0]
    22c8:	2210      	movs	r2, #16
    22ca:	2319      	movs	r3, #25
    22cc:	e88d 000c 	stmia.w	sp, {r2, r3}
    22d0:	1e63      	subs	r3, r4, #1
    22d2:	4935      	ldr	r1, [pc, #212]	; (23a8 <alt_clk_divider_set+0x34c>)
    22d4:	4832      	ldr	r0, [pc, #200]	; (23a0 <alt_clk_divider_set+0x344>)
    22d6:	4a35      	ldr	r2, [pc, #212]	; (23ac <alt_clk_divider_set+0x350>)
    22d8:	f7fe fbe9 	bl	aae <alt_clk_pllcounter_write>
    22dc:	211e      	movs	r1, #30
    22de:	4833      	ldr	r0, [pc, #204]	; (23ac <alt_clk_divider_set+0x350>)
    22e0:	f7fe fbe0 	bl	aa4 <alt_clk_mgr_wait>
    22e4:	f1b8 0f00 	cmp.w	r8, #0
    22e8:	f43f af60 	beq.w	21ac <alt_clk_divider_set+0x150>
    22ec:	9b03      	ldr	r3, [sp, #12]
    22ee:	f423 6380 	bic.w	r3, r3, #1024	; 0x400
    22f2:	6033      	str	r3, [r6, #0]
    22f4:	2d00      	cmp	r5, #0
    22f6:	f43f af59 	beq.w	21ac <alt_clk_divider_set+0x150>
    22fa:	2f00      	cmp	r7, #0
    22fc:	f43f af56 	beq.w	21ac <alt_clk_divider_set+0x150>
    2300:	2108      	movs	r1, #8
    2302:	4826      	ldr	r0, [pc, #152]	; (239c <alt_clk_divider_set+0x340>)
    2304:	f7fe fbce 	bl	aa4 <alt_clk_mgr_wait>
    2308:	9b03      	ldr	r3, [sp, #12]
    230a:	6033      	str	r3, [r6, #0]
    230c:	e74e      	b.n	21ac <alt_clk_divider_set+0x150>
    230e:	9b02      	ldr	r3, [sp, #8]
    2310:	f423 7380 	bic.w	r3, r3, #256	; 0x100
    2314:	9302      	str	r3, [sp, #8]
    2316:	2d00      	cmp	r5, #0
    2318:	d0d4      	beq.n	22c4 <alt_clk_divider_set+0x268>
    231a:	e7cf      	b.n	22bc <alt_clk_divider_set+0x260>
    231c:	f5b1 7f00 	cmp.w	r1, #512	; 0x200
    2320:	f63f aee1 	bhi.w	20e6 <alt_clk_divider_set+0x8a>
    2324:	2012      	movs	r0, #18
    2326:	f7ff fd0f 	bl	1d48 <alt_clk_within_freq_limits>
    232a:	2801      	cmp	r0, #1
    232c:	f47f aedb 	bne.w	20e6 <alt_clk_divider_set+0x8a>
    2330:	4e15      	ldr	r6, [pc, #84]	; (2388 <alt_clk_divider_set+0x32c>)
    2332:	6833      	ldr	r3, [r6, #0]
    2334:	9302      	str	r3, [sp, #8]
    2336:	9b02      	ldr	r3, [sp, #8]
    2338:	05db      	lsls	r3, r3, #23
    233a:	d41b      	bmi.n	2374 <alt_clk_divider_set+0x318>
    233c:	9d02      	ldr	r5, [sp, #8]
    233e:	f3c5 2540 	ubfx	r5, r5, #9, #1
    2342:	b11d      	cbz	r5, 234c <alt_clk_divider_set+0x2f0>
    2344:	9b02      	ldr	r3, [sp, #8]
    2346:	f423 7340 	bic.w	r3, r3, #768	; 0x300
    234a:	6033      	str	r3, [r6, #0]
    234c:	2320      	movs	r3, #32
    234e:	f04f 0e19 	mov.w	lr, #25
    2352:	e88d 4008 	stmia.w	sp, {r3, lr}
    2356:	1e63      	subs	r3, r4, #1
    2358:	4913      	ldr	r1, [pc, #76]	; (23a8 <alt_clk_divider_set+0x34c>)
    235a:	4811      	ldr	r0, [pc, #68]	; (23a0 <alt_clk_divider_set+0x344>)
    235c:	4a14      	ldr	r2, [pc, #80]	; (23b0 <alt_clk_divider_set+0x354>)
    235e:	f7fe fba6 	bl	aae <alt_clk_pllcounter_write>
    2362:	211e      	movs	r1, #30
    2364:	4812      	ldr	r0, [pc, #72]	; (23b0 <alt_clk_divider_set+0x354>)
    2366:	f7fe fb9d 	bl	aa4 <alt_clk_mgr_wait>
    236a:	2d00      	cmp	r5, #0
    236c:	f43f af1e 	beq.w	21ac <alt_clk_divider_set+0x150>
    2370:	9b02      	ldr	r3, [sp, #8]
    2372:	e7ca      	b.n	230a <alt_clk_divider_set+0x2ae>
    2374:	4605      	mov	r5, r0
    2376:	e7e5      	b.n	2344 <alt_clk_divider_set+0x2e8>
    2378:	ffd040e0 	.word	0xffd040e0
    237c:	ffd04048 	.word	0xffd04048
    2380:	ffd040e4 	.word	0xffd040e4
    2384:	ffd04070 	.word	0xffd04070
    2388:	ffd04060 	.word	0xffd04060
    238c:	ffd0404c 	.word	0xffd0404c
    2390:	ffd040e8 	.word	0xffd040e8
    2394:	ffd04050 	.word	0xffd04050
    2398:	ffd040ac 	.word	0xffd040ac
    239c:	ffd040a0 	.word	0xffd040a0
    23a0:	ffd04040 	.word	0xffd04040
    23a4:	ffd04054 	.word	0xffd04054
    23a8:	ffd04074 	.word	0xffd04074
    23ac:	ffd04058 	.word	0xffd04058
    23b0:	ffd0405c 	.word	0xffd0405c
    23b4:	f5b1 7f00 	cmp.w	r1, #512	; 0x200
    23b8:	f63f ae95 	bhi.w	20e6 <alt_clk_divider_set+0x8a>
    23bc:	2025      	movs	r0, #37	; 0x25
    23be:	f7ff fcc3 	bl	1d48 <alt_clk_within_freq_limits>
    23c2:	2801      	cmp	r0, #1
    23c4:	f47f ae8f 	bne.w	20e6 <alt_clk_divider_set+0x8a>
    23c8:	4db0      	ldr	r5, [pc, #704]	; (268c <alt_clk_divider_set+0x630>)
    23ca:	f04f 0c19 	mov.w	ip, #25
    23ce:	49b0      	ldr	r1, [pc, #704]	; (2690 <alt_clk_divider_set+0x634>)
    23d0:	48b0      	ldr	r0, [pc, #704]	; (2694 <alt_clk_divider_set+0x638>)
    23d2:	682b      	ldr	r3, [r5, #0]
    23d4:	4ab0      	ldr	r2, [pc, #704]	; (2698 <alt_clk_divider_set+0x63c>)
    23d6:	9302      	str	r3, [sp, #8]
    23d8:	9e02      	ldr	r6, [sp, #8]
    23da:	f016 0601 	ands.w	r6, r6, #1
    23de:	bf1e      	ittt	ne
    23e0:	9b02      	ldrne	r3, [sp, #8]
    23e2:	f023 0301 	bicne.w	r3, r3, #1
    23e6:	602b      	strne	r3, [r5, #0]
    23e8:	2301      	movs	r3, #1
    23ea:	e88d 1008 	stmia.w	sp, {r3, ip}
    23ee:	1e63      	subs	r3, r4, #1
    23f0:	f7fe fb5d 	bl	aae <alt_clk_pllcounter_write>
    23f4:	211e      	movs	r1, #30
    23f6:	48a8      	ldr	r0, [pc, #672]	; (2698 <alt_clk_divider_set+0x63c>)
    23f8:	e71f      	b.n	223a <alt_clk_divider_set+0x1de>
    23fa:	f5b1 7f00 	cmp.w	r1, #512	; 0x200
    23fe:	f63f ae72 	bhi.w	20e6 <alt_clk_divider_set+0x8a>
    2402:	2026      	movs	r0, #38	; 0x26
    2404:	f7ff fca0 	bl	1d48 <alt_clk_within_freq_limits>
    2408:	2801      	cmp	r0, #1
    240a:	f47f ae6c 	bne.w	20e6 <alt_clk_divider_set+0x8a>
    240e:	4d9f      	ldr	r5, [pc, #636]	; (268c <alt_clk_divider_set+0x630>)
    2410:	2719      	movs	r7, #25
    2412:	499f      	ldr	r1, [pc, #636]	; (2690 <alt_clk_divider_set+0x634>)
    2414:	489f      	ldr	r0, [pc, #636]	; (2694 <alt_clk_divider_set+0x638>)
    2416:	682b      	ldr	r3, [r5, #0]
    2418:	4aa0      	ldr	r2, [pc, #640]	; (269c <alt_clk_divider_set+0x640>)
    241a:	9302      	str	r3, [sp, #8]
    241c:	9e02      	ldr	r6, [sp, #8]
    241e:	f016 0602 	ands.w	r6, r6, #2
    2422:	bf1e      	ittt	ne
    2424:	9b02      	ldrne	r3, [sp, #8]
    2426:	f023 0302 	bicne.w	r3, r3, #2
    242a:	602b      	strne	r3, [r5, #0]
    242c:	2302      	movs	r3, #2
    242e:	e88d 0088 	stmia.w	sp, {r3, r7}
    2432:	1e63      	subs	r3, r4, #1
    2434:	f7fe fb3b 	bl	aae <alt_clk_pllcounter_write>
    2438:	211e      	movs	r1, #30
    243a:	4898      	ldr	r0, [pc, #608]	; (269c <alt_clk_divider_set+0x640>)
    243c:	e6fd      	b.n	223a <alt_clk_divider_set+0x1de>
    243e:	f5b1 7f00 	cmp.w	r1, #512	; 0x200
    2442:	f63f ae50 	bhi.w	20e6 <alt_clk_divider_set+0x8a>
    2446:	2027      	movs	r0, #39	; 0x27
    2448:	f7ff fc7e 	bl	1d48 <alt_clk_within_freq_limits>
    244c:	2801      	cmp	r0, #1
    244e:	f47f ae4a 	bne.w	20e6 <alt_clk_divider_set+0x8a>
    2452:	4b93      	ldr	r3, [pc, #588]	; (26a0 <alt_clk_divider_set+0x644>)
    2454:	681b      	ldr	r3, [r3, #0]
    2456:	f3c3 1301 	ubfx	r3, r3, #4, #2
    245a:	9302      	str	r3, [sp, #8]
    245c:	9b02      	ldr	r3, [sp, #8]
    245e:	2b02      	cmp	r3, #2
    2460:	d015      	beq.n	248e <alt_clk_divider_set+0x432>
    2462:	2500      	movs	r5, #0
    2464:	2004      	movs	r0, #4
    2466:	2319      	movs	r3, #25
    2468:	e88d 0009 	stmia.w	sp, {r0, r3}
    246c:	1e63      	subs	r3, r4, #1
    246e:	4988      	ldr	r1, [pc, #544]	; (2690 <alt_clk_divider_set+0x634>)
    2470:	4888      	ldr	r0, [pc, #544]	; (2694 <alt_clk_divider_set+0x638>)
    2472:	4a8c      	ldr	r2, [pc, #560]	; (26a4 <alt_clk_divider_set+0x648>)
    2474:	f7fe fb1b 	bl	aae <alt_clk_pllcounter_write>
    2478:	211e      	movs	r1, #30
    247a:	488a      	ldr	r0, [pc, #552]	; (26a4 <alt_clk_divider_set+0x648>)
    247c:	f7fe fb12 	bl	aa4 <alt_clk_mgr_wait>
    2480:	2d00      	cmp	r5, #0
    2482:	f43f ae93 	beq.w	21ac <alt_clk_divider_set+0x150>
    2486:	9a02      	ldr	r2, [sp, #8]
    2488:	4b80      	ldr	r3, [pc, #512]	; (268c <alt_clk_divider_set+0x630>)
    248a:	601a      	str	r2, [r3, #0]
    248c:	e68e      	b.n	21ac <alt_clk_divider_set+0x150>
    248e:	4a7f      	ldr	r2, [pc, #508]	; (268c <alt_clk_divider_set+0x630>)
    2490:	6813      	ldr	r3, [r2, #0]
    2492:	9302      	str	r3, [sp, #8]
    2494:	9b02      	ldr	r3, [sp, #8]
    2496:	051d      	lsls	r5, r3, #20
    2498:	d5e3      	bpl.n	2462 <alt_clk_divider_set+0x406>
    249a:	9b02      	ldr	r3, [sp, #8]
    249c:	4605      	mov	r5, r0
    249e:	f423 6300 	bic.w	r3, r3, #2048	; 0x800
    24a2:	6013      	str	r3, [r2, #0]
    24a4:	e7de      	b.n	2464 <alt_clk_divider_set+0x408>
    24a6:	f5b1 7f00 	cmp.w	r1, #512	; 0x200
    24aa:	f63f ae1c 	bhi.w	20e6 <alt_clk_divider_set+0x8a>
    24ae:	2028      	movs	r0, #40	; 0x28
    24b0:	f7ff fc4a 	bl	1d48 <alt_clk_within_freq_limits>
    24b4:	2801      	cmp	r0, #1
    24b6:	f47f ae16 	bne.w	20e6 <alt_clk_divider_set+0x8a>
    24ba:	4b79      	ldr	r3, [pc, #484]	; (26a0 <alt_clk_divider_set+0x644>)
    24bc:	4d73      	ldr	r5, [pc, #460]	; (268c <alt_clk_divider_set+0x630>)
    24be:	681b      	ldr	r3, [r3, #0]
    24c0:	9302      	str	r3, [sp, #8]
    24c2:	9b02      	ldr	r3, [sp, #8]
    24c4:	9a02      	ldr	r2, [sp, #8]
    24c6:	6829      	ldr	r1, [r5, #0]
    24c8:	f003 0303 	and.w	r3, r3, #3
    24cc:	2b02      	cmp	r3, #2
    24ce:	f3c2 0281 	ubfx	r2, r2, #2, #2
    24d2:	9102      	str	r1, [sp, #8]
    24d4:	bf18      	it	ne
    24d6:	2300      	movne	r3, #0
    24d8:	9103      	str	r1, [sp, #12]
    24da:	bf04      	itt	eq
    24dc:	9b02      	ldreq	r3, [sp, #8]
    24de:	f3c3 2300 	ubfxeq	r3, r3, #8, #1
    24e2:	2a02      	cmp	r2, #2
    24e4:	f040 837f 	bne.w	2be6 <alt_clk_divider_set+0xb8a>
    24e8:	9a02      	ldr	r2, [sp, #8]
    24ea:	9902      	ldr	r1, [sp, #8]
    24ec:	f3c2 2240 	ubfx	r2, r2, #9, #1
    24f0:	0549      	lsls	r1, r1, #21
    24f2:	f100 8344 	bmi.w	2b7e <alt_clk_divider_set+0xb22>
    24f6:	2600      	movs	r6, #0
    24f8:	e346      	b.n	2b88 <alt_clk_divider_set+0xb2c>
    24fa:	f5b1 7f00 	cmp.w	r1, #512	; 0x200
    24fe:	f63f adf2 	bhi.w	20e6 <alt_clk_divider_set+0x8a>
    2502:	2029      	movs	r0, #41	; 0x29
    2504:	f7ff fc20 	bl	1d48 <alt_clk_within_freq_limits>
    2508:	2801      	cmp	r0, #1
    250a:	f47f adec 	bne.w	20e6 <alt_clk_divider_set+0x8a>
    250e:	4b66      	ldr	r3, [pc, #408]	; (26a8 <alt_clk_divider_set+0x64c>)
    2510:	4a5e      	ldr	r2, [pc, #376]	; (268c <alt_clk_divider_set+0x630>)
    2512:	4f66      	ldr	r7, [pc, #408]	; (26ac <alt_clk_divider_set+0x650>)
    2514:	681b      	ldr	r3, [r3, #0]
    2516:	4690      	mov	r8, r2
    2518:	9303      	str	r3, [sp, #12]
    251a:	9d03      	ldr	r5, [sp, #12]
    251c:	9e03      	ldr	r6, [sp, #12]
    251e:	6811      	ldr	r1, [r2, #0]
    2520:	f015 0501 	ands.w	r5, r5, #1
    2524:	f3c6 0640 	ubfx	r6, r6, #1, #1
    2528:	9103      	str	r1, [sp, #12]
    252a:	f000 835e 	beq.w	2bea <alt_clk_divider_set+0xb8e>
    252e:	9b03      	ldr	r3, [sp, #12]
    2530:	f013 0304 	ands.w	r3, r3, #4
    2534:	f040 8363 	bne.w	2bfe <alt_clk_divider_set+0xba2>
    2538:	b91e      	cbnz	r6, 2542 <alt_clk_divider_set+0x4e6>
    253a:	683b      	ldr	r3, [r7, #0]
    253c:	4635      	mov	r5, r6
    253e:	9302      	str	r3, [sp, #8]
    2540:	e010      	b.n	2564 <alt_clk_divider_set+0x508>
    2542:	461d      	mov	r5, r3
    2544:	9e03      	ldr	r6, [sp, #12]
    2546:	683b      	ldr	r3, [r7, #0]
    2548:	f3c6 06c0 	ubfx	r6, r6, #3, #1
    254c:	9302      	str	r3, [sp, #8]
    254e:	b125      	cbz	r5, 255a <alt_clk_divider_set+0x4fe>
    2550:	9b02      	ldr	r3, [sp, #8]
    2552:	2501      	movs	r5, #1
    2554:	f023 0304 	bic.w	r3, r3, #4
    2558:	9302      	str	r3, [sp, #8]
    255a:	b11e      	cbz	r6, 2564 <alt_clk_divider_set+0x508>
    255c:	9b02      	ldr	r3, [sp, #8]
    255e:	f023 0308 	bic.w	r3, r3, #8
    2562:	9302      	str	r3, [sp, #8]
    2564:	9b02      	ldr	r3, [sp, #8]
    2566:	00ad      	lsls	r5, r5, #2
    2568:	4949      	ldr	r1, [pc, #292]	; (2690 <alt_clk_divider_set+0x634>)
    256a:	484a      	ldr	r0, [pc, #296]	; (2694 <alt_clk_divider_set+0x638>)
    256c:	603b      	str	r3, [r7, #0]
    256e:	237c      	movs	r3, #124	; 0x7c
    2570:	9302      	str	r3, [sp, #8]
    2572:	9a02      	ldr	r2, [sp, #8]
    2574:	9b03      	ldr	r3, [sp, #12]
    2576:	ea23 0302 	bic.w	r3, r3, r2
    257a:	2210      	movs	r2, #16
    257c:	f8c8 3000 	str.w	r3, [r8]
    2580:	2319      	movs	r3, #25
    2582:	e88d 000c 	stmia.w	sp, {r2, r3}
    2586:	1e63      	subs	r3, r4, #1
    2588:	4a49      	ldr	r2, [pc, #292]	; (26b0 <alt_clk_divider_set+0x654>)
    258a:	f7fe fa90 	bl	aae <alt_clk_pllcounter_write>
    258e:	211e      	movs	r1, #30
    2590:	4847      	ldr	r0, [pc, #284]	; (26b0 <alt_clk_divider_set+0x654>)
    2592:	f7fe fa87 	bl	aa4 <alt_clk_mgr_wait>
    2596:	9502      	str	r5, [sp, #8]
    2598:	b11e      	cbz	r6, 25a2 <alt_clk_divider_set+0x546>
    259a:	9b02      	ldr	r3, [sp, #8]
    259c:	f043 0308 	orr.w	r3, r3, #8
    25a0:	9302      	str	r3, [sp, #8]
    25a2:	683b      	ldr	r3, [r7, #0]
    25a4:	9a02      	ldr	r2, [sp, #8]
    25a6:	4313      	orrs	r3, r2
    25a8:	603b      	str	r3, [r7, #0]
    25aa:	9b03      	ldr	r3, [sp, #12]
    25ac:	f8c8 3000 	str.w	r3, [r8]
    25b0:	e5fc      	b.n	21ac <alt_clk_divider_set+0x150>
    25b2:	f5b1 7f00 	cmp.w	r1, #512	; 0x200
    25b6:	f63f ad96 	bhi.w	20e6 <alt_clk_divider_set+0x8a>
    25ba:	202a      	movs	r0, #42	; 0x2a
    25bc:	f7ff fbc4 	bl	1d48 <alt_clk_within_freq_limits>
    25c0:	2801      	cmp	r0, #1
    25c2:	f47f ad90 	bne.w	20e6 <alt_clk_divider_set+0x8a>
    25c6:	4d31      	ldr	r5, [pc, #196]	; (268c <alt_clk_divider_set+0x630>)
    25c8:	f04f 0e19 	mov.w	lr, #25
    25cc:	4930      	ldr	r1, [pc, #192]	; (2690 <alt_clk_divider_set+0x634>)
    25ce:	4831      	ldr	r0, [pc, #196]	; (2694 <alt_clk_divider_set+0x638>)
    25d0:	682b      	ldr	r3, [r5, #0]
    25d2:	4a38      	ldr	r2, [pc, #224]	; (26b4 <alt_clk_divider_set+0x658>)
    25d4:	9302      	str	r3, [sp, #8]
    25d6:	9e02      	ldr	r6, [sp, #8]
    25d8:	f016 0680 	ands.w	r6, r6, #128	; 0x80
    25dc:	bf1e      	ittt	ne
    25de:	9b02      	ldrne	r3, [sp, #8]
    25e0:	f023 0380 	bicne.w	r3, r3, #128	; 0x80
    25e4:	602b      	strne	r3, [r5, #0]
    25e6:	2320      	movs	r3, #32
    25e8:	e88d 4008 	stmia.w	sp, {r3, lr}
    25ec:	1e63      	subs	r3, r4, #1
    25ee:	f7fe fa5e 	bl	aae <alt_clk_pllcounter_write>
    25f2:	211e      	movs	r1, #30
    25f4:	4825      	ldr	r0, [pc, #148]	; (268c <alt_clk_divider_set+0x630>)
    25f6:	e620      	b.n	223a <alt_clk_divider_set+0x1de>
    25f8:	f5b1 7f00 	cmp.w	r1, #512	; 0x200
    25fc:	f63f ad73 	bhi.w	20e6 <alt_clk_divider_set+0x8a>
    2600:	2037      	movs	r0, #55	; 0x37
    2602:	f7ff fba1 	bl	1d48 <alt_clk_within_freq_limits>
    2606:	2801      	cmp	r0, #1
    2608:	f47f ad6d 	bne.w	20e6 <alt_clk_divider_set+0x8a>
    260c:	4f2a      	ldr	r7, [pc, #168]	; (26b8 <alt_clk_divider_set+0x65c>)
    260e:	2500      	movs	r5, #0
    2610:	1e63      	subs	r3, r4, #1
    2612:	492a      	ldr	r1, [pc, #168]	; (26bc <alt_clk_divider_set+0x660>)
    2614:	683a      	ldr	r2, [r7, #0]
    2616:	9202      	str	r2, [sp, #8]
    2618:	9e02      	ldr	r6, [sp, #8]
    261a:	f016 0601 	ands.w	r6, r6, #1
    261e:	bf1c      	itt	ne
    2620:	9a02      	ldrne	r2, [sp, #8]
    2622:	4606      	movne	r6, r0
    2624:	4826      	ldr	r0, [pc, #152]	; (26c0 <alt_clk_divider_set+0x664>)
    2626:	bf1c      	itt	ne
    2628:	f022 0201 	bicne.w	r2, r2, #1
    262c:	603a      	strne	r2, [r7, #0]
    262e:	2201      	movs	r2, #1
    2630:	e88d 0024 	stmia.w	sp, {r2, r5}
    2634:	4a23      	ldr	r2, [pc, #140]	; (26c4 <alt_clk_divider_set+0x668>)
    2636:	f7fe fa3a 	bl	aae <alt_clk_pllcounter_write>
    263a:	2e00      	cmp	r6, #0
    263c:	f43f adb6 	beq.w	21ac <alt_clk_divider_set+0x150>
    2640:	9b02      	ldr	r3, [sp, #8]
    2642:	603b      	str	r3, [r7, #0]
    2644:	e5b2      	b.n	21ac <alt_clk_divider_set+0x150>
    2646:	f5b1 7f00 	cmp.w	r1, #512	; 0x200
    264a:	f63f ad4c 	bhi.w	20e6 <alt_clk_divider_set+0x8a>
    264e:	2038      	movs	r0, #56	; 0x38
    2650:	f7ff fb7a 	bl	1d48 <alt_clk_within_freq_limits>
    2654:	2801      	cmp	r0, #1
    2656:	f47f ad46 	bne.w	20e6 <alt_clk_divider_set+0x8a>
    265a:	4e17      	ldr	r6, [pc, #92]	; (26b8 <alt_clk_divider_set+0x65c>)
    265c:	f04f 0c19 	mov.w	ip, #25
    2660:	1e63      	subs	r3, r4, #1
    2662:	6832      	ldr	r2, [r6, #0]
    2664:	9202      	str	r2, [sp, #8]
    2666:	9d02      	ldr	r5, [sp, #8]
    2668:	f015 0502 	ands.w	r5, r5, #2
    266c:	bf1f      	itttt	ne
    266e:	9a02      	ldrne	r2, [sp, #8]
    2670:	4605      	movne	r5, r0
    2672:	f022 0202 	bicne.w	r2, r2, #2
    2676:	6032      	strne	r2, [r6, #0]
    2678:	2202      	movs	r2, #2
    267a:	e88d 1004 	stmia.w	sp, {r2, ip}
    267e:	4a12      	ldr	r2, [pc, #72]	; (26c8 <alt_clk_divider_set+0x66c>)
    2680:	490e      	ldr	r1, [pc, #56]	; (26bc <alt_clk_divider_set+0x660>)
    2682:	480f      	ldr	r0, [pc, #60]	; (26c0 <alt_clk_divider_set+0x664>)
    2684:	f7fe fa13 	bl	aae <alt_clk_pllcounter_write>
    2688:	e66f      	b.n	236a <alt_clk_divider_set+0x30e>
    268a:	bf00      	nop
    268c:	ffd040a0 	.word	0xffd040a0
    2690:	ffd040b0 	.word	0xffd040b0
    2694:	ffd04080 	.word	0xffd04080
    2698:	ffd04088 	.word	0xffd04088
    269c:	ffd0408c 	.word	0xffd0408c
    26a0:	ffd040ac 	.word	0xffd040ac
    26a4:	ffd04090 	.word	0xffd04090
    26a8:	ffd04070 	.word	0xffd04070
    26ac:	ffd04060 	.word	0xffd04060
    26b0:	ffd04098 	.word	0xffd04098
    26b4:	ffd0409c 	.word	0xffd0409c
    26b8:	ffd040d8 	.word	0xffd040d8
    26bc:	ffd040dc 	.word	0xffd040dc
    26c0:	ffd040c0 	.word	0xffd040c0
    26c4:	ffd040c8 	.word	0xffd040c8
    26c8:	ffd040cc 	.word	0xffd040cc
    26cc:	f5b1 7f00 	cmp.w	r1, #512	; 0x200
    26d0:	f63f ad09 	bhi.w	20e6 <alt_clk_divider_set+0x8a>
    26d4:	2039      	movs	r0, #57	; 0x39
    26d6:	f7ff fb37 	bl	1d48 <alt_clk_within_freq_limits>
    26da:	2801      	cmp	r0, #1
    26dc:	f47f ad03 	bne.w	20e6 <alt_clk_divider_set+0x8a>
    26e0:	4eb9      	ldr	r6, [pc, #740]	; (29c8 <alt_clk_divider_set+0x96c>)
    26e2:	2719      	movs	r7, #25
    26e4:	1e63      	subs	r3, r4, #1
    26e6:	6832      	ldr	r2, [r6, #0]
    26e8:	9202      	str	r2, [sp, #8]
    26ea:	9d02      	ldr	r5, [sp, #8]
    26ec:	f015 0504 	ands.w	r5, r5, #4
    26f0:	bf1f      	itttt	ne
    26f2:	9a02      	ldrne	r2, [sp, #8]
    26f4:	4605      	movne	r5, r0
    26f6:	f022 0204 	bicne.w	r2, r2, #4
    26fa:	6032      	strne	r2, [r6, #0]
    26fc:	2204      	movs	r2, #4
    26fe:	e88d 0084 	stmia.w	sp, {r2, r7}
    2702:	4ab2      	ldr	r2, [pc, #712]	; (29cc <alt_clk_divider_set+0x970>)
    2704:	e7bc      	b.n	2680 <alt_clk_divider_set+0x624>
    2706:	f5b1 7f00 	cmp.w	r1, #512	; 0x200
    270a:	f63f acec 	bhi.w	20e6 <alt_clk_divider_set+0x8a>
    270e:	203c      	movs	r0, #60	; 0x3c
    2710:	f7ff fb1a 	bl	1d48 <alt_clk_within_freq_limits>
    2714:	2801      	cmp	r0, #1
    2716:	f47f ace6 	bne.w	20e6 <alt_clk_divider_set+0x8a>
    271a:	4eab      	ldr	r6, [pc, #684]	; (29c8 <alt_clk_divider_set+0x96c>)
    271c:	1e63      	subs	r3, r4, #1
    271e:	2419      	movs	r4, #25
    2720:	6832      	ldr	r2, [r6, #0]
    2722:	9202      	str	r2, [sp, #8]
    2724:	9d02      	ldr	r5, [sp, #8]
    2726:	f015 0508 	ands.w	r5, r5, #8
    272a:	bf1f      	itttt	ne
    272c:	9a02      	ldrne	r2, [sp, #8]
    272e:	4605      	movne	r5, r0
    2730:	f022 0208 	bicne.w	r2, r2, #8
    2734:	6032      	strne	r2, [r6, #0]
    2736:	2220      	movs	r2, #32
    2738:	e88d 0014 	stmia.w	sp, {r2, r4}
    273c:	4aa4      	ldr	r2, [pc, #656]	; (29d0 <alt_clk_divider_set+0x974>)
    273e:	e79f      	b.n	2680 <alt_clk_divider_set+0x624>
    2740:	2901      	cmp	r1, #1
    2742:	f000 80fd 	beq.w	2940 <alt_clk_divider_set+0x8e4>
    2746:	2902      	cmp	r1, #2
    2748:	f47f accd 	bne.w	20e6 <alt_clk_divider_set+0x8a>
    274c:	2101      	movs	r1, #1
    274e:	e0f8      	b.n	2942 <alt_clk_divider_set+0x8e6>
    2750:	2901      	cmp	r1, #1
    2752:	f000 8111 	beq.w	2978 <alt_clk_divider_set+0x91c>
    2756:	2902      	cmp	r1, #2
    2758:	f47f acc5 	bne.w	20e6 <alt_clk_divider_set+0x8a>
    275c:	2201      	movs	r2, #1
    275e:	e10c      	b.n	297a <alt_clk_divider_set+0x91e>
    2760:	2901      	cmp	r1, #1
    2762:	f000 8115 	beq.w	2990 <alt_clk_divider_set+0x934>
    2766:	2902      	cmp	r1, #2
    2768:	f000 8128 	beq.w	29bc <alt_clk_divider_set+0x960>
    276c:	2904      	cmp	r1, #4
    276e:	f000 8127 	beq.w	29c0 <alt_clk_divider_set+0x964>
    2772:	2908      	cmp	r1, #8
    2774:	f000 8126 	beq.w	29c4 <alt_clk_divider_set+0x968>
    2778:	2910      	cmp	r1, #16
    277a:	f47f acb4 	bne.w	20e6 <alt_clk_divider_set+0x8a>
    277e:	2304      	movs	r3, #4
    2780:	e107      	b.n	2992 <alt_clk_divider_set+0x936>
    2782:	2901      	cmp	r1, #1
    2784:	f000 813c 	beq.w	2a00 <alt_clk_divider_set+0x9a4>
    2788:	2902      	cmp	r1, #2
    278a:	f000 814d 	beq.w	2a28 <alt_clk_divider_set+0x9cc>
    278e:	2904      	cmp	r1, #4
    2790:	f000 814c 	beq.w	2a2c <alt_clk_divider_set+0x9d0>
    2794:	2908      	cmp	r1, #8
    2796:	f000 814b 	beq.w	2a30 <alt_clk_divider_set+0x9d4>
    279a:	2910      	cmp	r1, #16
    279c:	f47f aca3 	bne.w	20e6 <alt_clk_divider_set+0x8a>
    27a0:	2304      	movs	r3, #4
    27a2:	e12e      	b.n	2a02 <alt_clk_divider_set+0x9a6>
    27a4:	2901      	cmp	r1, #1
    27a6:	f000 8145 	beq.w	2a34 <alt_clk_divider_set+0x9d8>
    27aa:	2902      	cmp	r1, #2
    27ac:	f000 8155 	beq.w	2a5a <alt_clk_divider_set+0x9fe>
    27b0:	2904      	cmp	r1, #4
    27b2:	f47f ac98 	bne.w	20e6 <alt_clk_divider_set+0x8a>
    27b6:	2102      	movs	r1, #2
    27b8:	e13d      	b.n	2a36 <alt_clk_divider_set+0x9da>
    27ba:	2902      	cmp	r1, #2
    27bc:	f000 814f 	beq.w	2a5e <alt_clk_divider_set+0xa02>
    27c0:	2904      	cmp	r1, #4
    27c2:	f47f ac90 	bne.w	20e6 <alt_clk_divider_set+0x8a>
    27c6:	2302      	movs	r3, #2
    27c8:	e14a      	b.n	2a60 <alt_clk_divider_set+0xa04>
    27ca:	2901      	cmp	r1, #1
    27cc:	f000 815c 	beq.w	2a88 <alt_clk_divider_set+0xa2c>
    27d0:	2902      	cmp	r1, #2
    27d2:	f000 816b 	beq.w	2aac <alt_clk_divider_set+0xa50>
    27d6:	2904      	cmp	r1, #4
    27d8:	f000 816a 	beq.w	2ab0 <alt_clk_divider_set+0xa54>
    27dc:	2908      	cmp	r1, #8
    27de:	f000 8169 	beq.w	2ab4 <alt_clk_divider_set+0xa58>
    27e2:	2910      	cmp	r1, #16
    27e4:	f47f ac7f 	bne.w	20e6 <alt_clk_divider_set+0x8a>
    27e8:	2304      	movs	r3, #4
    27ea:	e14e      	b.n	2a8a <alt_clk_divider_set+0xa2e>
    27ec:	2901      	cmp	r1, #1
    27ee:	f000 8163 	beq.w	2ab8 <alt_clk_divider_set+0xa5c>
    27f2:	2902      	cmp	r1, #2
    27f4:	f000 816f 	beq.w	2ad6 <alt_clk_divider_set+0xa7a>
    27f8:	2904      	cmp	r1, #4
    27fa:	f000 816e 	beq.w	2ada <alt_clk_divider_set+0xa7e>
    27fe:	2908      	cmp	r1, #8
    2800:	f000 816d 	beq.w	2ade <alt_clk_divider_set+0xa82>
    2804:	2910      	cmp	r1, #16
    2806:	f47f ac6e 	bne.w	20e6 <alt_clk_divider_set+0x8a>
    280a:	2304      	movs	r3, #4
    280c:	e155      	b.n	2aba <alt_clk_divider_set+0xa5e>
    280e:	2901      	cmp	r1, #1
    2810:	f000 8167 	beq.w	2ae2 <alt_clk_divider_set+0xa86>
    2814:	2902      	cmp	r1, #2
    2816:	f000 8178 	beq.w	2b0a <alt_clk_divider_set+0xaae>
    281a:	2904      	cmp	r1, #4
    281c:	f000 8177 	beq.w	2b0e <alt_clk_divider_set+0xab2>
    2820:	2908      	cmp	r1, #8
    2822:	f000 8176 	beq.w	2b12 <alt_clk_divider_set+0xab6>
    2826:	2910      	cmp	r1, #16
    2828:	f47f ac5d 	bne.w	20e6 <alt_clk_divider_set+0x8a>
    282c:	2304      	movs	r3, #4
    282e:	e159      	b.n	2ae4 <alt_clk_divider_set+0xa88>
    2830:	2901      	cmp	r1, #1
    2832:	f000 8170 	beq.w	2b16 <alt_clk_divider_set+0xaba>
    2836:	2902      	cmp	r1, #2
    2838:	f000 8181 	beq.w	2b3e <alt_clk_divider_set+0xae2>
    283c:	2904      	cmp	r1, #4
    283e:	f000 8180 	beq.w	2b42 <alt_clk_divider_set+0xae6>
    2842:	2908      	cmp	r1, #8
    2844:	f000 817f 	beq.w	2b46 <alt_clk_divider_set+0xaea>
    2848:	2910      	cmp	r1, #16
    284a:	f47f ac4c 	bne.w	20e6 <alt_clk_divider_set+0x8a>
    284e:	2304      	movs	r3, #4
    2850:	e162      	b.n	2b18 <alt_clk_divider_set+0xabc>
    2852:	2901      	cmp	r1, #1
    2854:	f000 8179 	beq.w	2b4a <alt_clk_divider_set+0xaee>
    2858:	2902      	cmp	r1, #2
    285a:	f000 818a 	beq.w	2b72 <alt_clk_divider_set+0xb16>
    285e:	2904      	cmp	r1, #4
    2860:	f000 8189 	beq.w	2b76 <alt_clk_divider_set+0xb1a>
    2864:	2908      	cmp	r1, #8
    2866:	f000 8188 	beq.w	2b7a <alt_clk_divider_set+0xb1e>
    286a:	2910      	cmp	r1, #16
    286c:	f47f ac3b 	bne.w	20e6 <alt_clk_divider_set+0x8a>
    2870:	2304      	movs	r3, #4
    2872:	e16b      	b.n	2b4c <alt_clk_divider_set+0xaf0>
    2874:	f1b1 7f80 	cmp.w	r1, #16777216	; 0x1000000
    2878:	f4bf ac35 	bcs.w	20e6 <alt_clk_divider_set+0x8a>
    287c:	4d55      	ldr	r5, [pc, #340]	; (29d4 <alt_clk_divider_set+0x978>)
    287e:	1e4c      	subs	r4, r1, #1
    2880:	4855      	ldr	r0, [pc, #340]	; (29d8 <alt_clk_divider_set+0x97c>)
    2882:	f024 447f 	bic.w	r4, r4, #4278190080	; 0xff000000
    2886:	211e      	movs	r1, #30
    2888:	682b      	ldr	r3, [r5, #0]
    288a:	9302      	str	r3, [sp, #8]
    288c:	9a02      	ldr	r2, [sp, #8]
    288e:	f012 0240 	ands.w	r2, r2, #64	; 0x40
    2892:	bf1f      	itttt	ne
    2894:	9b02      	ldrne	r3, [sp, #8]
    2896:	2201      	movne	r2, #1
    2898:	f023 0340 	bicne.w	r3, r3, #64	; 0x40
    289c:	602b      	strne	r3, [r5, #0]
    289e:	6803      	ldr	r3, [r0, #0]
    28a0:	f003 437f 	and.w	r3, r3, #4278190080	; 0xff000000
    28a4:	431c      	orrs	r4, r3
    28a6:	6004      	str	r4, [r0, #0]
    28a8:	f7fe f8fc 	bl	aa4 <alt_clk_mgr_wait>
    28ac:	2a00      	cmp	r2, #0
    28ae:	f43f ac7d 	beq.w	21ac <alt_clk_divider_set+0x150>
    28b2:	e4c6      	b.n	2242 <alt_clk_divider_set+0x1e6>
    28b4:	4b49      	ldr	r3, [pc, #292]	; (29dc <alt_clk_divider_set+0x980>)
    28b6:	4e47      	ldr	r6, [pc, #284]	; (29d4 <alt_clk_divider_set+0x978>)
    28b8:	681b      	ldr	r3, [r3, #0]
    28ba:	f3c3 1301 	ubfx	r3, r3, #4, #2
    28be:	9302      	str	r3, [sp, #8]
    28c0:	1e4b      	subs	r3, r1, #1
    28c2:	6835      	ldr	r5, [r6, #0]
    28c4:	9a02      	ldr	r2, [sp, #8]
    28c6:	f405 6500 	and.w	r5, r5, #2048	; 0x800
    28ca:	2a01      	cmp	r2, #1
    28cc:	d11c      	bne.n	2908 <alt_clk_divider_set+0x8ac>
    28ce:	f5b1 7f00 	cmp.w	r1, #512	; 0x200
    28d2:	f4bf ac08 	bcs.w	20e6 <alt_clk_divider_set+0x8a>
    28d6:	b11d      	cbz	r5, 28e0 <alt_clk_divider_set+0x884>
    28d8:	6832      	ldr	r2, [r6, #0]
    28da:	f422 6200 	bic.w	r2, r2, #2048	; 0x800
    28de:	6032      	str	r2, [r6, #0]
    28e0:	2008      	movs	r0, #8
    28e2:	2219      	movs	r2, #25
    28e4:	e88d 0005 	stmia.w	sp, {r0, r2}
    28e8:	493d      	ldr	r1, [pc, #244]	; (29e0 <alt_clk_divider_set+0x984>)
    28ea:	483e      	ldr	r0, [pc, #248]	; (29e4 <alt_clk_divider_set+0x988>)
    28ec:	4a3e      	ldr	r2, [pc, #248]	; (29e8 <alt_clk_divider_set+0x98c>)
    28ee:	f7fe f8de 	bl	aae <alt_clk_pllcounter_write>
    28f2:	483d      	ldr	r0, [pc, #244]	; (29e8 <alt_clk_divider_set+0x98c>)
    28f4:	211e      	movs	r1, #30
    28f6:	f7fe f8d5 	bl	aa4 <alt_clk_mgr_wait>
    28fa:	2d00      	cmp	r5, #0
    28fc:	f43f ac56 	beq.w	21ac <alt_clk_divider_set+0x150>
    2900:	6833      	ldr	r3, [r6, #0]
    2902:	f443 6300 	orr.w	r3, r3, #2048	; 0x800
    2906:	e500      	b.n	230a <alt_clk_divider_set+0x2ae>
    2908:	9a02      	ldr	r2, [sp, #8]
    290a:	2a02      	cmp	r2, #2
    290c:	d114      	bne.n	2938 <alt_clk_divider_set+0x8dc>
    290e:	f5b1 7f00 	cmp.w	r1, #512	; 0x200
    2912:	f4bf abe8 	bcs.w	20e6 <alt_clk_divider_set+0x8a>
    2916:	b11d      	cbz	r5, 2920 <alt_clk_divider_set+0x8c4>
    2918:	6832      	ldr	r2, [r6, #0]
    291a:	f422 6200 	bic.w	r2, r2, #2048	; 0x800
    291e:	6032      	str	r2, [r6, #0]
    2920:	2104      	movs	r1, #4
    2922:	2219      	movs	r2, #25
    2924:	e88d 0006 	stmia.w	sp, {r1, r2}
    2928:	4830      	ldr	r0, [pc, #192]	; (29ec <alt_clk_divider_set+0x990>)
    292a:	4931      	ldr	r1, [pc, #196]	; (29f0 <alt_clk_divider_set+0x994>)
    292c:	4a31      	ldr	r2, [pc, #196]	; (29f4 <alt_clk_divider_set+0x998>)
    292e:	f7fe f8be 	bl	aae <alt_clk_pllcounter_write>
    2932:	211e      	movs	r1, #30
    2934:	482f      	ldr	r0, [pc, #188]	; (29f4 <alt_clk_divider_set+0x998>)
    2936:	e7de      	b.n	28f6 <alt_clk_divider_set+0x89a>
    2938:	f06f 0008 	mvn.w	r0, #8
    293c:	f7ff bbd5 	b.w	20ea <alt_clk_divider_set+0x8e>
    2940:	2100      	movs	r1, #0
    2942:	4c2d      	ldr	r4, [pc, #180]	; (29f8 <alt_clk_divider_set+0x99c>)
    2944:	6823      	ldr	r3, [r4, #0]
    2946:	9302      	str	r3, [sp, #8]
    2948:	9a02      	ldr	r2, [sp, #8]
    294a:	f012 0202 	ands.w	r2, r2, #2
    294e:	d004      	beq.n	295a <alt_clk_divider_set+0x8fe>
    2950:	9a02      	ldr	r2, [sp, #8]
    2952:	f022 0202 	bic.w	r2, r2, #2
    2956:	6022      	str	r2, [r4, #0]
    2958:	2201      	movs	r2, #1
    295a:	4828      	ldr	r0, [pc, #160]	; (29fc <alt_clk_divider_set+0x9a0>)
    295c:	6803      	ldr	r3, [r0, #0]
    295e:	3804      	subs	r0, #4
    2960:	f023 0303 	bic.w	r3, r3, #3
    2964:	430b      	orrs	r3, r1
    2966:	211e      	movs	r1, #30
    2968:	6043      	str	r3, [r0, #4]
    296a:	f7fe f89b 	bl	aa4 <alt_clk_mgr_wait>
    296e:	2a00      	cmp	r2, #0
    2970:	f43f ac1c 	beq.w	21ac <alt_clk_divider_set+0x150>
    2974:	9b02      	ldr	r3, [sp, #8]
    2976:	e41c      	b.n	21b2 <alt_clk_divider_set+0x156>
    2978:	2200      	movs	r2, #0
    297a:	4820      	ldr	r0, [pc, #128]	; (29fc <alt_clk_divider_set+0x9a0>)
    297c:	211e      	movs	r1, #30
    297e:	6803      	ldr	r3, [r0, #0]
    2980:	f023 030c 	bic.w	r3, r3, #12
    2984:	ea43 0382 	orr.w	r3, r3, r2, lsl #2
    2988:	6003      	str	r3, [r0, #0]
    298a:	f7fe f88b 	bl	aa4 <alt_clk_mgr_wait>
    298e:	e40d      	b.n	21ac <alt_clk_divider_set+0x150>
    2990:	2300      	movs	r3, #0
    2992:	4c19      	ldr	r4, [pc, #100]	; (29f8 <alt_clk_divider_set+0x99c>)
    2994:	6822      	ldr	r2, [r4, #0]
    2996:	9202      	str	r2, [sp, #8]
    2998:	9a02      	ldr	r2, [sp, #8]
    299a:	f012 0204 	ands.w	r2, r2, #4
    299e:	d004      	beq.n	29aa <alt_clk_divider_set+0x94e>
    29a0:	9a02      	ldr	r2, [sp, #8]
    29a2:	f022 0204 	bic.w	r2, r2, #4
    29a6:	6022      	str	r2, [r4, #0]
    29a8:	2201      	movs	r2, #1
    29aa:	4814      	ldr	r0, [pc, #80]	; (29fc <alt_clk_divider_set+0x9a0>)
    29ac:	6801      	ldr	r1, [r0, #0]
    29ae:	f021 0170 	bic.w	r1, r1, #112	; 0x70
    29b2:	ea41 1303 	orr.w	r3, r1, r3, lsl #4
    29b6:	6003      	str	r3, [r0, #0]
    29b8:	211e      	movs	r1, #30
    29ba:	e7d6      	b.n	296a <alt_clk_divider_set+0x90e>
    29bc:	2301      	movs	r3, #1
    29be:	e7e8      	b.n	2992 <alt_clk_divider_set+0x936>
    29c0:	2302      	movs	r3, #2
    29c2:	e7e6      	b.n	2992 <alt_clk_divider_set+0x936>
    29c4:	2303      	movs	r3, #3
    29c6:	e7e4      	b.n	2992 <alt_clk_divider_set+0x936>
    29c8:	ffd040d8 	.word	0xffd040d8
    29cc:	ffd040d0 	.word	0xffd040d0
    29d0:	ffd040d4 	.word	0xffd040d4
    29d4:	ffd040a0 	.word	0xffd040a0
    29d8:	ffd040a8 	.word	0xffd040a8
    29dc:	ffd040ac 	.word	0xffd040ac
    29e0:	ffd04074 	.word	0xffd04074
    29e4:	ffd04040 	.word	0xffd04040
    29e8:	ffd04054 	.word	0xffd04054
    29ec:	ffd04080 	.word	0xffd04080
    29f0:	ffd040b0 	.word	0xffd040b0
    29f4:	ffd04090 	.word	0xffd04090
    29f8:	ffd04060 	.word	0xffd04060
    29fc:	ffd04064 	.word	0xffd04064
    2a00:	2300      	movs	r3, #0
    2a02:	4c81      	ldr	r4, [pc, #516]	; (2c08 <alt_clk_divider_set+0xbac>)
    2a04:	6822      	ldr	r2, [r4, #0]
    2a06:	9202      	str	r2, [sp, #8]
    2a08:	9a02      	ldr	r2, [sp, #8]
    2a0a:	f012 0208 	ands.w	r2, r2, #8
    2a0e:	d004      	beq.n	2a1a <alt_clk_divider_set+0x9be>
    2a10:	9a02      	ldr	r2, [sp, #8]
    2a12:	f022 0208 	bic.w	r2, r2, #8
    2a16:	6022      	str	r2, [r4, #0]
    2a18:	2201      	movs	r2, #1
    2a1a:	487c      	ldr	r0, [pc, #496]	; (2c0c <alt_clk_divider_set+0xbb0>)
    2a1c:	6801      	ldr	r1, [r0, #0]
    2a1e:	f421 7160 	bic.w	r1, r1, #896	; 0x380
    2a22:	ea41 13c3 	orr.w	r3, r1, r3, lsl #7
    2a26:	e7c6      	b.n	29b6 <alt_clk_divider_set+0x95a>
    2a28:	2301      	movs	r3, #1
    2a2a:	e7ea      	b.n	2a02 <alt_clk_divider_set+0x9a6>
    2a2c:	2302      	movs	r3, #2
    2a2e:	e7e8      	b.n	2a02 <alt_clk_divider_set+0x9a6>
    2a30:	2303      	movs	r3, #3
    2a32:	e7e6      	b.n	2a02 <alt_clk_divider_set+0x9a6>
    2a34:	2100      	movs	r1, #0
    2a36:	4c74      	ldr	r4, [pc, #464]	; (2c08 <alt_clk_divider_set+0xbac>)
    2a38:	6823      	ldr	r3, [r4, #0]
    2a3a:	9302      	str	r3, [sp, #8]
    2a3c:	9a02      	ldr	r2, [sp, #8]
    2a3e:	f012 0210 	ands.w	r2, r2, #16
    2a42:	d004      	beq.n	2a4e <alt_clk_divider_set+0x9f2>
    2a44:	9b02      	ldr	r3, [sp, #8]
    2a46:	2201      	movs	r2, #1
    2a48:	f023 0310 	bic.w	r3, r3, #16
    2a4c:	6023      	str	r3, [r4, #0]
    2a4e:	4870      	ldr	r0, [pc, #448]	; (2c10 <alt_clk_divider_set+0xbb4>)
    2a50:	6803      	ldr	r3, [r0, #0]
    2a52:	f023 0303 	bic.w	r3, r3, #3
    2a56:	430b      	orrs	r3, r1
    2a58:	e7ad      	b.n	29b6 <alt_clk_divider_set+0x95a>
    2a5a:	2101      	movs	r1, #1
    2a5c:	e7eb      	b.n	2a36 <alt_clk_divider_set+0x9da>
    2a5e:	2301      	movs	r3, #1
    2a60:	4c69      	ldr	r4, [pc, #420]	; (2c08 <alt_clk_divider_set+0xbac>)
    2a62:	6822      	ldr	r2, [r4, #0]
    2a64:	9202      	str	r2, [sp, #8]
    2a66:	9a02      	ldr	r2, [sp, #8]
    2a68:	f012 0220 	ands.w	r2, r2, #32
    2a6c:	d004      	beq.n	2a78 <alt_clk_divider_set+0xa1c>
    2a6e:	9a02      	ldr	r2, [sp, #8]
    2a70:	f022 0220 	bic.w	r2, r2, #32
    2a74:	6022      	str	r2, [r4, #0]
    2a76:	2201      	movs	r2, #1
    2a78:	4865      	ldr	r0, [pc, #404]	; (2c10 <alt_clk_divider_set+0xbb4>)
    2a7a:	005b      	lsls	r3, r3, #1
    2a7c:	f003 030c 	and.w	r3, r3, #12
    2a80:	6801      	ldr	r1, [r0, #0]
    2a82:	f021 010c 	bic.w	r1, r1, #12
    2a86:	e7e6      	b.n	2a56 <alt_clk_divider_set+0x9fa>
    2a88:	2300      	movs	r3, #0
    2a8a:	4c5f      	ldr	r4, [pc, #380]	; (2c08 <alt_clk_divider_set+0xbac>)
    2a8c:	6822      	ldr	r2, [r4, #0]
    2a8e:	9202      	str	r2, [sp, #8]
    2a90:	9a02      	ldr	r2, [sp, #8]
    2a92:	f012 0240 	ands.w	r2, r2, #64	; 0x40
    2a96:	d004      	beq.n	2aa2 <alt_clk_divider_set+0xa46>
    2a98:	9a02      	ldr	r2, [sp, #8]
    2a9a:	f022 0240 	bic.w	r2, r2, #64	; 0x40
    2a9e:	6022      	str	r2, [r4, #0]
    2aa0:	2201      	movs	r2, #1
    2aa2:	485c      	ldr	r0, [pc, #368]	; (2c14 <alt_clk_divider_set+0xbb8>)
    2aa4:	6801      	ldr	r1, [r0, #0]
    2aa6:	f021 0107 	bic.w	r1, r1, #7
    2aaa:	e7d4      	b.n	2a56 <alt_clk_divider_set+0x9fa>
    2aac:	2301      	movs	r3, #1
    2aae:	e7ec      	b.n	2a8a <alt_clk_divider_set+0xa2e>
    2ab0:	2302      	movs	r3, #2
    2ab2:	e7ea      	b.n	2a8a <alt_clk_divider_set+0xa2e>
    2ab4:	2303      	movs	r3, #3
    2ab6:	e7e8      	b.n	2a8a <alt_clk_divider_set+0xa2e>
    2ab8:	2300      	movs	r3, #0
    2aba:	4c57      	ldr	r4, [pc, #348]	; (2c18 <alt_clk_divider_set+0xbbc>)
    2abc:	6822      	ldr	r2, [r4, #0]
    2abe:	9202      	str	r2, [sp, #8]
    2ac0:	9a02      	ldr	r2, [sp, #8]
    2ac2:	f012 0204 	ands.w	r2, r2, #4
    2ac6:	d004      	beq.n	2ad2 <alt_clk_divider_set+0xa76>
    2ac8:	9a02      	ldr	r2, [sp, #8]
    2aca:	f022 0204 	bic.w	r2, r2, #4
    2ace:	6022      	str	r2, [r4, #0]
    2ad0:	2201      	movs	r2, #1
    2ad2:	4852      	ldr	r0, [pc, #328]	; (2c1c <alt_clk_divider_set+0xbc0>)
    2ad4:	e7e6      	b.n	2aa4 <alt_clk_divider_set+0xa48>
    2ad6:	2301      	movs	r3, #1
    2ad8:	e7ef      	b.n	2aba <alt_clk_divider_set+0xa5e>
    2ada:	2302      	movs	r3, #2
    2adc:	e7ed      	b.n	2aba <alt_clk_divider_set+0xa5e>
    2ade:	2303      	movs	r3, #3
    2ae0:	e7eb      	b.n	2aba <alt_clk_divider_set+0xa5e>
    2ae2:	2300      	movs	r3, #0
    2ae4:	4c4c      	ldr	r4, [pc, #304]	; (2c18 <alt_clk_divider_set+0xbbc>)
    2ae6:	6822      	ldr	r2, [r4, #0]
    2ae8:	9202      	str	r2, [sp, #8]
    2aea:	9a02      	ldr	r2, [sp, #8]
    2aec:	f012 0208 	ands.w	r2, r2, #8
    2af0:	d004      	beq.n	2afc <alt_clk_divider_set+0xaa0>
    2af2:	9a02      	ldr	r2, [sp, #8]
    2af4:	f022 0208 	bic.w	r2, r2, #8
    2af8:	6022      	str	r2, [r4, #0]
    2afa:	2201      	movs	r2, #1
    2afc:	4847      	ldr	r0, [pc, #284]	; (2c1c <alt_clk_divider_set+0xbc0>)
    2afe:	6801      	ldr	r1, [r0, #0]
    2b00:	f021 0138 	bic.w	r1, r1, #56	; 0x38
    2b04:	ea41 03c3 	orr.w	r3, r1, r3, lsl #3
    2b08:	e755      	b.n	29b6 <alt_clk_divider_set+0x95a>
    2b0a:	2301      	movs	r3, #1
    2b0c:	e7ea      	b.n	2ae4 <alt_clk_divider_set+0xa88>
    2b0e:	2302      	movs	r3, #2
    2b10:	e7e8      	b.n	2ae4 <alt_clk_divider_set+0xa88>
    2b12:	2303      	movs	r3, #3
    2b14:	e7e6      	b.n	2ae4 <alt_clk_divider_set+0xa88>
    2b16:	2300      	movs	r3, #0
    2b18:	4c3f      	ldr	r4, [pc, #252]	; (2c18 <alt_clk_divider_set+0xbbc>)
    2b1a:	6822      	ldr	r2, [r4, #0]
    2b1c:	9202      	str	r2, [sp, #8]
    2b1e:	9a02      	ldr	r2, [sp, #8]
    2b20:	f012 0210 	ands.w	r2, r2, #16
    2b24:	d004      	beq.n	2b30 <alt_clk_divider_set+0xad4>
    2b26:	9a02      	ldr	r2, [sp, #8]
    2b28:	f022 0210 	bic.w	r2, r2, #16
    2b2c:	6022      	str	r2, [r4, #0]
    2b2e:	2201      	movs	r2, #1
    2b30:	483a      	ldr	r0, [pc, #232]	; (2c1c <alt_clk_divider_set+0xbc0>)
    2b32:	6801      	ldr	r1, [r0, #0]
    2b34:	f421 71e0 	bic.w	r1, r1, #448	; 0x1c0
    2b38:	ea41 1383 	orr.w	r3, r1, r3, lsl #6
    2b3c:	e73b      	b.n	29b6 <alt_clk_divider_set+0x95a>
    2b3e:	2301      	movs	r3, #1
    2b40:	e7ea      	b.n	2b18 <alt_clk_divider_set+0xabc>
    2b42:	2302      	movs	r3, #2
    2b44:	e7e8      	b.n	2b18 <alt_clk_divider_set+0xabc>
    2b46:	2303      	movs	r3, #3
    2b48:	e7e6      	b.n	2b18 <alt_clk_divider_set+0xabc>
    2b4a:	2300      	movs	r3, #0
    2b4c:	4c32      	ldr	r4, [pc, #200]	; (2c18 <alt_clk_divider_set+0xbbc>)
    2b4e:	6822      	ldr	r2, [r4, #0]
    2b50:	9202      	str	r2, [sp, #8]
    2b52:	9a02      	ldr	r2, [sp, #8]
    2b54:	f012 0220 	ands.w	r2, r2, #32
    2b58:	d004      	beq.n	2b64 <alt_clk_divider_set+0xb08>
    2b5a:	9a02      	ldr	r2, [sp, #8]
    2b5c:	f022 0220 	bic.w	r2, r2, #32
    2b60:	6022      	str	r2, [r4, #0]
    2b62:	2201      	movs	r2, #1
    2b64:	482d      	ldr	r0, [pc, #180]	; (2c1c <alt_clk_divider_set+0xbc0>)
    2b66:	6801      	ldr	r1, [r0, #0]
    2b68:	f421 6160 	bic.w	r1, r1, #3584	; 0xe00
    2b6c:	ea41 2343 	orr.w	r3, r1, r3, lsl #9
    2b70:	e721      	b.n	29b6 <alt_clk_divider_set+0x95a>
    2b72:	2301      	movs	r3, #1
    2b74:	e7ea      	b.n	2b4c <alt_clk_divider_set+0xaf0>
    2b76:	2302      	movs	r3, #2
    2b78:	e7e8      	b.n	2b4c <alt_clk_divider_set+0xaf0>
    2b7a:	2303      	movs	r3, #3
    2b7c:	e7e6      	b.n	2b4c <alt_clk_divider_set+0xaf0>
    2b7e:	9902      	ldr	r1, [sp, #8]
    2b80:	2601      	movs	r6, #1
    2b82:	f421 6180 	bic.w	r1, r1, #1024	; 0x400
    2b86:	9102      	str	r1, [sp, #8]
    2b88:	b11b      	cbz	r3, 2b92 <alt_clk_divider_set+0xb36>
    2b8a:	9b02      	ldr	r3, [sp, #8]
    2b8c:	f423 7380 	bic.w	r3, r3, #256	; 0x100
    2b90:	9302      	str	r3, [sp, #8]
    2b92:	9b02      	ldr	r3, [sp, #8]
    2b94:	602b      	str	r3, [r5, #0]
    2b96:	b14a      	cbz	r2, 2bac <alt_clk_divider_set+0xb50>
    2b98:	2108      	movs	r1, #8
    2b9a:	4821      	ldr	r0, [pc, #132]	; (2c20 <alt_clk_divider_set+0xbc4>)
    2b9c:	f7fd ff82 	bl	aa4 <alt_clk_mgr_wait>
    2ba0:	9b02      	ldr	r3, [sp, #8]
    2ba2:	f423 7300 	bic.w	r3, r3, #512	; 0x200
    2ba6:	9302      	str	r3, [sp, #8]
    2ba8:	9b02      	ldr	r3, [sp, #8]
    2baa:	602b      	str	r3, [r5, #0]
    2bac:	2319      	movs	r3, #25
    2bae:	2708      	movs	r7, #8
    2bb0:	9301      	str	r3, [sp, #4]
    2bb2:	1e63      	subs	r3, r4, #1
    2bb4:	4a1a      	ldr	r2, [pc, #104]	; (2c20 <alt_clk_divider_set+0xbc4>)
    2bb6:	491b      	ldr	r1, [pc, #108]	; (2c24 <alt_clk_divider_set+0xbc8>)
    2bb8:	481b      	ldr	r0, [pc, #108]	; (2c28 <alt_clk_divider_set+0xbcc>)
    2bba:	9700      	str	r7, [sp, #0]
    2bbc:	f7fd ff77 	bl	aae <alt_clk_pllcounter_write>
    2bc0:	211e      	movs	r1, #30
    2bc2:	4817      	ldr	r0, [pc, #92]	; (2c20 <alt_clk_divider_set+0xbc4>)
    2bc4:	f7fd ff6e 	bl	aa4 <alt_clk_mgr_wait>
    2bc8:	9b03      	ldr	r3, [sp, #12]
    2bca:	f423 6380 	bic.w	r3, r3, #1024	; 0x400
    2bce:	602b      	str	r3, [r5, #0]
    2bd0:	2e00      	cmp	r6, #0
    2bd2:	f43f aaeb 	beq.w	21ac <alt_clk_divider_set+0x150>
    2bd6:	4639      	mov	r1, r7
    2bd8:	4811      	ldr	r0, [pc, #68]	; (2c20 <alt_clk_divider_set+0xbc4>)
    2bda:	f7fd ff63 	bl	aa4 <alt_clk_mgr_wait>
    2bde:	9b03      	ldr	r3, [sp, #12]
    2be0:	602b      	str	r3, [r5, #0]
    2be2:	f7ff bae3 	b.w	21ac <alt_clk_divider_set+0x150>
    2be6:	2200      	movs	r2, #0
    2be8:	e485      	b.n	24f6 <alt_clk_divider_set+0x49a>
    2bea:	2e00      	cmp	r6, #0
    2bec:	f47f acaa 	bne.w	2544 <alt_clk_divider_set+0x4e8>
    2bf0:	683b      	ldr	r3, [r7, #0]
    2bf2:	4635      	mov	r5, r6
    2bf4:	9302      	str	r3, [sp, #8]
    2bf6:	e4b5      	b.n	2564 <alt_clk_divider_set+0x508>
    2bf8:	683b      	ldr	r3, [r7, #0]
    2bfa:	9302      	str	r3, [sp, #8]
    2bfc:	e4a8      	b.n	2550 <alt_clk_divider_set+0x4f4>
    2bfe:	2e00      	cmp	r6, #0
    2c00:	d0fa      	beq.n	2bf8 <alt_clk_divider_set+0xb9c>
    2c02:	4605      	mov	r5, r0
    2c04:	e49e      	b.n	2544 <alt_clk_divider_set+0x4e8>
    2c06:	bf00      	nop
    2c08:	ffd04060 	.word	0xffd04060
    2c0c:	ffd04064 	.word	0xffd04064
    2c10:	ffd04068 	.word	0xffd04068
    2c14:	ffd0406c 	.word	0xffd0406c
    2c18:	ffd040a0 	.word	0xffd040a0
    2c1c:	ffd040a4 	.word	0xffd040a4
    2c20:	ffd04094 	.word	0xffd04094
    2c24:	ffd040b0 	.word	0xffd040b0
    2c28:	ffd04080 	.word	0xffd04080

00002c2c <alt_clk_freq_get>:
    2c2c:	2300      	movs	r3, #0
    2c2e:	e92d 4df3 	stmdb	sp!, {r0, r1, r4, r5, r6, r7, r8, sl, fp, lr}
    2c32:	4604      	mov	r4, r0
    2c34:	9301      	str	r3, [sp, #4]
    2c36:	4688      	mov	r8, r1
    2c38:	2900      	cmp	r1, #0
    2c3a:	f000 8337 	beq.w	32ac <alt_clk_freq_get+0x680>
    2c3e:	2840      	cmp	r0, #64	; 0x40
    2c40:	f200 8334 	bhi.w	32ac <alt_clk_freq_get+0x680>
    2c44:	e8df f010 	tbh	[pc, r0, lsl #1]
    2c48:	0041015b 	.word	0x0041015b
    2c4c:	004a0047 	.word	0x004a0047
    2c50:	03320332 	.word	0x03320332
    2c54:	03320332 	.word	0x03320332
    2c58:	004d0332 	.word	0x004d0332
    2c5c:	007e005c 	.word	0x007e005c
    2c60:	0097015b 	.word	0x0097015b
    2c64:	00970097 	.word	0x00970097
    2c68:	00970097 	.word	0x00970097
    2c6c:	00a20097 	.word	0x00a20097
    2c70:	00b100c8 	.word	0x00b100c8
    2c74:	00e500da 	.word	0x00e500da
    2c78:	00da00f8 	.word	0x00da00f8
    2c7c:	013e0124 	.word	0x013e0124
    2c80:	016a0156 	.word	0x016a0156
    2c84:	015601bf 	.word	0x015601bf
    2c88:	02e20194 	.word	0x02e20194
    2c8c:	01e00282 	.word	0x01e00282
    2c90:	01ec01e0 	.word	0x01ec01e0
    2c94:	01ec01ec 	.word	0x01ec01ec
    2c98:	01ec01ec 	.word	0x01ec01ec
    2c9c:	020701ec 	.word	0x020701ec
    2ca0:	02d9021b 	.word	0x02d9021b
    2ca4:	029f02b3 	.word	0x029f02b3
    2ca8:	01ef0277 	.word	0x01ef0277
    2cac:	022f01fb 	.word	0x022f01fb
    2cb0:	02570243 	.word	0x02570243
    2cb4:	0302026b 	.word	0x0302026b
    2cb8:	031a030e 	.word	0x031a030e
    2cbc:	03320332 	.word	0x03320332
    2cc0:	03020326 	.word	0x03020326
    2cc4:	031a030e 	.word	0x031a030e
    2cc8:	0326      	.short	0x0326
    2cca:	4ba4      	ldr	r3, [pc, #656]	; (2f5c <alt_clk_freq_get+0x330>)
    2ccc:	691f      	ldr	r7, [r3, #16]
    2cce:	2600      	movs	r6, #0
    2cd0:	2401      	movs	r4, #1
    2cd2:	2500      	movs	r5, #0
    2cd4:	e261      	b.n	319a <alt_clk_freq_get+0x56e>
    2cd6:	4ba1      	ldr	r3, [pc, #644]	; (2f5c <alt_clk_freq_get+0x330>)
    2cd8:	6a1f      	ldr	r7, [r3, #32]
    2cda:	e7f8      	b.n	2cce <alt_clk_freq_get+0xa2>
    2cdc:	4b9f      	ldr	r3, [pc, #636]	; (2f5c <alt_clk_freq_get+0x330>)
    2cde:	6b1f      	ldr	r7, [r3, #48]	; 0x30
    2ce0:	e7f5      	b.n	2cce <alt_clk_freq_get+0xa2>
    2ce2:	2009      	movs	r0, #9
    2ce4:	f7fe f8c0 	bl	e68 <alt_clk_pll_is_bypassed>
    2ce8:	2801      	cmp	r0, #1
    2cea:	d104      	bne.n	2cf6 <alt_clk_freq_get+0xca>
    2cec:	4b9b      	ldr	r3, [pc, #620]	; (2f5c <alt_clk_freq_get+0x330>)
    2cee:	681b      	ldr	r3, [r3, #0]
    2cf0:	9301      	str	r3, [sp, #4]
    2cf2:	2000      	movs	r0, #0
    2cf4:	e012      	b.n	2d1c <alt_clk_freq_get+0xf0>
    2cf6:	a901      	add	r1, sp, #4
    2cf8:	2009      	movs	r0, #9
    2cfa:	f7fe ff83 	bl	1c04 <alt_clk_pll_vco_freq_get>
    2cfe:	e00d      	b.n	2d1c <alt_clk_freq_get+0xf0>
    2d00:	200a      	movs	r0, #10
    2d02:	f7fe f8b1 	bl	e68 <alt_clk_pll_is_bypassed>
    2d06:	2801      	cmp	r0, #1
    2d08:	d119      	bne.n	2d3e <alt_clk_freq_get+0x112>
    2d0a:	4b95      	ldr	r3, [pc, #596]	; (2f60 <alt_clk_freq_get+0x334>)
    2d0c:	6818      	ldr	r0, [r3, #0]
    2d0e:	f3c0 5081 	ubfx	r0, r0, #22, #2
    2d12:	9001      	str	r0, [sp, #4]
    2d14:	b948      	cbnz	r0, 2d2a <alt_clk_freq_get+0xfe>
    2d16:	4b91      	ldr	r3, [pc, #580]	; (2f5c <alt_clk_freq_get+0x330>)
    2d18:	681b      	ldr	r3, [r3, #0]
    2d1a:	9301      	str	r3, [sp, #4]
    2d1c:	9f01      	ldr	r7, [sp, #4]
    2d1e:	2600      	movs	r6, #0
    2d20:	2800      	cmp	r0, #0
    2d22:	d0d5      	beq.n	2cd0 <alt_clk_freq_get+0xa4>
    2d24:	b002      	add	sp, #8
    2d26:	e8bd 8df0 	ldmia.w	sp!, {r4, r5, r6, r7, r8, sl, fp, pc}
    2d2a:	2801      	cmp	r0, #1
    2d2c:	d102      	bne.n	2d34 <alt_clk_freq_get+0x108>
    2d2e:	4b8b      	ldr	r3, [pc, #556]	; (2f5c <alt_clk_freq_get+0x330>)
    2d30:	691b      	ldr	r3, [r3, #16]
    2d32:	e7dd      	b.n	2cf0 <alt_clk_freq_get+0xc4>
    2d34:	2802      	cmp	r0, #2
    2d36:	d11b      	bne.n	2d70 <alt_clk_freq_get+0x144>
    2d38:	4b88      	ldr	r3, [pc, #544]	; (2f5c <alt_clk_freq_get+0x330>)
    2d3a:	6a1b      	ldr	r3, [r3, #32]
    2d3c:	e7d8      	b.n	2cf0 <alt_clk_freq_get+0xc4>
    2d3e:	a901      	add	r1, sp, #4
    2d40:	200a      	movs	r0, #10
    2d42:	e7da      	b.n	2cfa <alt_clk_freq_get+0xce>
    2d44:	200b      	movs	r0, #11
    2d46:	f7fe f88f 	bl	e68 <alt_clk_pll_is_bypassed>
    2d4a:	2801      	cmp	r0, #1
    2d4c:	d10d      	bne.n	2d6a <alt_clk_freq_get+0x13e>
    2d4e:	4b85      	ldr	r3, [pc, #532]	; (2f64 <alt_clk_freq_get+0x338>)
    2d50:	6818      	ldr	r0, [r3, #0]
    2d52:	f3c0 5081 	ubfx	r0, r0, #22, #2
    2d56:	9001      	str	r0, [sp, #4]
    2d58:	2800      	cmp	r0, #0
    2d5a:	d0dc      	beq.n	2d16 <alt_clk_freq_get+0xea>
    2d5c:	2801      	cmp	r0, #1
    2d5e:	d0e6      	beq.n	2d2e <alt_clk_freq_get+0x102>
    2d60:	2802      	cmp	r0, #2
    2d62:	d105      	bne.n	2d70 <alt_clk_freq_get+0x144>
    2d64:	4b7d      	ldr	r3, [pc, #500]	; (2f5c <alt_clk_freq_get+0x330>)
    2d66:	6b1b      	ldr	r3, [r3, #48]	; 0x30
    2d68:	e7c2      	b.n	2cf0 <alt_clk_freq_get+0xc4>
    2d6a:	a901      	add	r1, sp, #4
    2d6c:	200b      	movs	r0, #11
    2d6e:	e7c4      	b.n	2cfa <alt_clk_freq_get+0xce>
    2d70:	f04f 30ff 	mov.w	r0, #4294967295
    2d74:	e7d2      	b.n	2d1c <alt_clk_freq_get+0xf0>
    2d76:	a901      	add	r1, sp, #4
    2d78:	2009      	movs	r0, #9
    2d7a:	f7fe ff43 	bl	1c04 <alt_clk_pll_vco_freq_get>
    2d7e:	2800      	cmp	r0, #0
    2d80:	d1d0      	bne.n	2d24 <alt_clk_freq_get+0xf8>
    2d82:	4606      	mov	r6, r0
    2d84:	9f01      	ldr	r7, [sp, #4]
    2d86:	a901      	add	r1, sp, #4
    2d88:	4620      	mov	r0, r4
    2d8a:	e009      	b.n	2da0 <alt_clk_freq_get+0x174>
    2d8c:	a901      	add	r1, sp, #4
    2d8e:	2009      	movs	r0, #9
    2d90:	f7fe ff38 	bl	1c04 <alt_clk_pll_vco_freq_get>
    2d94:	2800      	cmp	r0, #0
    2d96:	d1c5      	bne.n	2d24 <alt_clk_freq_get+0xf8>
    2d98:	9f01      	ldr	r7, [sp, #4]
    2d9a:	4606      	mov	r6, r0
    2d9c:	a901      	add	r1, sp, #4
    2d9e:	200d      	movs	r0, #13
    2da0:	f7ff f894 	bl	1ecc <alt_clk_divider_get>
    2da4:	2500      	movs	r5, #0
    2da6:	9c01      	ldr	r4, [sp, #4]
    2da8:	e06a      	b.n	2e80 <alt_clk_freq_get+0x254>
    2daa:	a901      	add	r1, sp, #4
    2dac:	2009      	movs	r0, #9
    2dae:	f7fe ff29 	bl	1c04 <alt_clk_pll_vco_freq_get>
    2db2:	2800      	cmp	r0, #0
    2db4:	d1b6      	bne.n	2d24 <alt_clk_freq_get+0xf8>
    2db6:	4606      	mov	r6, r0
    2db8:	a901      	add	r1, sp, #4
    2dba:	200d      	movs	r0, #13
    2dbc:	9f01      	ldr	r7, [sp, #4]
    2dbe:	f7ff f885 	bl	1ecc <alt_clk_divider_get>
    2dc2:	2800      	cmp	r0, #0
    2dc4:	d1ae      	bne.n	2d24 <alt_clk_freq_get+0xf8>
    2dc6:	9c01      	ldr	r4, [sp, #4]
    2dc8:	a901      	add	r1, sp, #4
    2dca:	2015      	movs	r0, #21
    2dcc:	f7ff f87e 	bl	1ecc <alt_clk_divider_get>
    2dd0:	9a01      	ldr	r2, [sp, #4]
    2dd2:	fba4 4502 	umull	r4, r5, r4, r2
    2dd6:	e053      	b.n	2e80 <alt_clk_freq_get+0x254>
    2dd8:	a901      	add	r1, sp, #4
    2dda:	2009      	movs	r0, #9
    2ddc:	f7fe ff12 	bl	1c04 <alt_clk_pll_vco_freq_get>
    2de0:	2800      	cmp	r0, #0
    2de2:	d19f      	bne.n	2d24 <alt_clk_freq_get+0xf8>
    2de4:	4606      	mov	r6, r0
    2de6:	a901      	add	r1, sp, #4
    2de8:	200d      	movs	r0, #13
    2dea:	9f01      	ldr	r7, [sp, #4]
    2dec:	f7ff f86e 	bl	1ecc <alt_clk_divider_get>
    2df0:	2800      	cmp	r0, #0
    2df2:	d197      	bne.n	2d24 <alt_clk_freq_get+0xf8>
    2df4:	9c01      	ldr	r4, [sp, #4]
    2df6:	a901      	add	r1, sp, #4
    2df8:	2014      	movs	r0, #20
    2dfa:	e7e7      	b.n	2dcc <alt_clk_freq_get+0x1a0>
    2dfc:	a901      	add	r1, sp, #4
    2dfe:	2009      	movs	r0, #9
    2e00:	f7fe ff00 	bl	1c04 <alt_clk_pll_vco_freq_get>
    2e04:	2800      	cmp	r0, #0
    2e06:	d18d      	bne.n	2d24 <alt_clk_freq_get+0xf8>
    2e08:	4606      	mov	r6, r0
    2e0a:	9f01      	ldr	r7, [sp, #4]
    2e0c:	a901      	add	r1, sp, #4
    2e0e:	200e      	movs	r0, #14
    2e10:	e7c6      	b.n	2da0 <alt_clk_freq_get+0x174>
    2e12:	a901      	add	r1, sp, #4
    2e14:	2009      	movs	r0, #9
    2e16:	f7fe fef5 	bl	1c04 <alt_clk_pll_vco_freq_get>
    2e1a:	2800      	cmp	r0, #0
    2e1c:	d182      	bne.n	2d24 <alt_clk_freq_get+0xf8>
    2e1e:	4606      	mov	r6, r0
    2e20:	a901      	add	r1, sp, #4
    2e22:	200e      	movs	r0, #14
    2e24:	9f01      	ldr	r7, [sp, #4]
    2e26:	f7ff f851 	bl	1ecc <alt_clk_divider_get>
    2e2a:	2800      	cmp	r0, #0
    2e2c:	f47f af7a 	bne.w	2d24 <alt_clk_freq_get+0xf8>
    2e30:	9c01      	ldr	r4, [sp, #4]
    2e32:	a901      	add	r1, sp, #4
    2e34:	2017      	movs	r0, #23
    2e36:	e7c9      	b.n	2dcc <alt_clk_freq_get+0x1a0>
    2e38:	a901      	add	r1, sp, #4
    2e3a:	2009      	movs	r0, #9
    2e3c:	f7fe fee2 	bl	1c04 <alt_clk_pll_vco_freq_get>
    2e40:	2800      	cmp	r0, #0
    2e42:	f47f af6f 	bne.w	2d24 <alt_clk_freq_get+0xf8>
    2e46:	4606      	mov	r6, r0
    2e48:	a901      	add	r1, sp, #4
    2e4a:	200e      	movs	r0, #14
    2e4c:	9f01      	ldr	r7, [sp, #4]
    2e4e:	f7ff f83d 	bl	1ecc <alt_clk_divider_get>
    2e52:	2800      	cmp	r0, #0
    2e54:	f47f af66 	bne.w	2d24 <alt_clk_freq_get+0xf8>
    2e58:	a901      	add	r1, sp, #4
    2e5a:	2017      	movs	r0, #23
    2e5c:	9c01      	ldr	r4, [sp, #4]
    2e5e:	f7ff f835 	bl	1ecc <alt_clk_divider_get>
    2e62:	2800      	cmp	r0, #0
    2e64:	f47f af5e 	bne.w	2d24 <alt_clk_freq_get+0xf8>
    2e68:	9b01      	ldr	r3, [sp, #4]
    2e6a:	a901      	add	r1, sp, #4
    2e6c:	2018      	movs	r0, #24
    2e6e:	fba4 ab03 	umull	sl, fp, r4, r3
    2e72:	f7ff f82b 	bl	1ecc <alt_clk_divider_get>
    2e76:	9b01      	ldr	r3, [sp, #4]
    2e78:	fba3 450a 	umull	r4, r5, r3, sl
    2e7c:	fb03 550b 	mla	r5, r3, fp, r5
    2e80:	2800      	cmp	r0, #0
    2e82:	f47f af4f 	bne.w	2d24 <alt_clk_freq_get+0xf8>
    2e86:	ea54 0305 	orrs.w	r3, r4, r5
    2e8a:	f040 8186 	bne.w	319a <alt_clk_freq_get+0x56e>
    2e8e:	e16b      	b.n	3168 <alt_clk_freq_get+0x53c>
    2e90:	a901      	add	r1, sp, #4
    2e92:	201a      	movs	r0, #26
    2e94:	f7ff f81a 	bl	1ecc <alt_clk_divider_get>
    2e98:	2800      	cmp	r0, #0
    2e9a:	f47f af43 	bne.w	2d24 <alt_clk_freq_get+0xf8>
    2e9e:	4b32      	ldr	r3, [pc, #200]	; (2f68 <alt_clk_freq_get+0x33c>)
    2ea0:	9c01      	ldr	r4, [sp, #4]
    2ea2:	681b      	ldr	r3, [r3, #0]
    2ea4:	f003 0301 	and.w	r3, r3, #1
    2ea8:	9301      	str	r3, [sp, #4]
    2eaa:	a901      	add	r1, sp, #4
    2eac:	b9bb      	cbnz	r3, 2ede <alt_clk_freq_get+0x2b2>
    2eae:	2009      	movs	r0, #9
    2eb0:	f7fe fea8 	bl	1c04 <alt_clk_pll_vco_freq_get>
    2eb4:	2800      	cmp	r0, #0
    2eb6:	f47f af35 	bne.w	2d24 <alt_clk_freq_get+0xf8>
    2eba:	4606      	mov	r6, r0
    2ebc:	9f01      	ldr	r7, [sp, #4]
    2ebe:	a901      	add	r1, sp, #4
    2ec0:	200e      	movs	r0, #14
    2ec2:	e783      	b.n	2dcc <alt_clk_freq_get+0x1a0>
    2ec4:	a901      	add	r1, sp, #4
    2ec6:	201b      	movs	r0, #27
    2ec8:	f7ff f800 	bl	1ecc <alt_clk_divider_get>
    2ecc:	2800      	cmp	r0, #0
    2ece:	f47f af29 	bne.w	2d24 <alt_clk_freq_get+0xf8>
    2ed2:	4b25      	ldr	r3, [pc, #148]	; (2f68 <alt_clk_freq_get+0x33c>)
    2ed4:	9c01      	ldr	r4, [sp, #4]
    2ed6:	681b      	ldr	r3, [r3, #0]
    2ed8:	f3c3 0340 	ubfx	r3, r3, #1, #1
    2edc:	e7e4      	b.n	2ea8 <alt_clk_freq_get+0x27c>
    2ede:	200a      	movs	r0, #10
    2ee0:	f7fe fe90 	bl	1c04 <alt_clk_pll_vco_freq_get>
    2ee4:	2800      	cmp	r0, #0
    2ee6:	f47f af1d 	bne.w	2d24 <alt_clk_freq_get+0xf8>
    2eea:	4606      	mov	r6, r0
    2eec:	9f01      	ldr	r7, [sp, #4]
    2eee:	a901      	add	r1, sp, #4
    2ef0:	2029      	movs	r0, #41	; 0x29
    2ef2:	e76b      	b.n	2dcc <alt_clk_freq_get+0x1a0>
    2ef4:	4b1d      	ldr	r3, [pc, #116]	; (2f6c <alt_clk_freq_get+0x340>)
    2ef6:	681b      	ldr	r3, [r3, #0]
    2ef8:	07d8      	lsls	r0, r3, #31
    2efa:	9301      	str	r3, [sp, #4]
    2efc:	d502      	bpl.n	2f04 <alt_clk_freq_get+0x2d8>
    2efe:	4b17      	ldr	r3, [pc, #92]	; (2f5c <alt_clk_freq_get+0x330>)
    2f00:	681f      	ldr	r7, [r3, #0]
    2f02:	e6e4      	b.n	2cce <alt_clk_freq_get+0xa2>
    2f04:	a901      	add	r1, sp, #4
    2f06:	2009      	movs	r0, #9
    2f08:	f7fe fe7c 	bl	1c04 <alt_clk_pll_vco_freq_get>
    2f0c:	2800      	cmp	r0, #0
    2f0e:	f47f af09 	bne.w	2d24 <alt_clk_freq_get+0xf8>
    2f12:	4606      	mov	r6, r0
    2f14:	9f01      	ldr	r7, [sp, #4]
    2f16:	a901      	add	r1, sp, #4
    2f18:	200f      	movs	r0, #15
    2f1a:	e741      	b.n	2da0 <alt_clk_freq_get+0x174>
    2f1c:	4b13      	ldr	r3, [pc, #76]	; (2f6c <alt_clk_freq_get+0x340>)
    2f1e:	ad02      	add	r5, sp, #8
    2f20:	681b      	ldr	r3, [r3, #0]
    2f22:	07d9      	lsls	r1, r3, #31
    2f24:	f845 3d04 	str.w	r3, [r5, #-4]!
    2f28:	d506      	bpl.n	2f38 <alt_clk_freq_get+0x30c>
    2f2a:	4b0c      	ldr	r3, [pc, #48]	; (2f5c <alt_clk_freq_get+0x330>)
    2f2c:	2600      	movs	r6, #0
    2f2e:	681f      	ldr	r7, [r3, #0]
    2f30:	9c01      	ldr	r4, [sp, #4]
    2f32:	4629      	mov	r1, r5
    2f34:	201d      	movs	r0, #29
    2f36:	e749      	b.n	2dcc <alt_clk_freq_get+0x1a0>
    2f38:	4629      	mov	r1, r5
    2f3a:	2009      	movs	r0, #9
    2f3c:	f7fe fe62 	bl	1c04 <alt_clk_pll_vco_freq_get>
    2f40:	2800      	cmp	r0, #0
    2f42:	f47f aeef 	bne.w	2d24 <alt_clk_freq_get+0xf8>
    2f46:	4629      	mov	r1, r5
    2f48:	200f      	movs	r0, #15
    2f4a:	9f01      	ldr	r7, [sp, #4]
    2f4c:	f7fe ffbe 	bl	1ecc <alt_clk_divider_get>
    2f50:	2800      	cmp	r0, #0
    2f52:	f47f aee7 	bne.w	2d24 <alt_clk_freq_get+0xf8>
    2f56:	4606      	mov	r6, r0
    2f58:	e7ea      	b.n	2f30 <alt_clk_freq_get+0x304>
    2f5a:	bf00      	nop
    2f5c:	00006634 	.word	0x00006634
    2f60:	ffd04080 	.word	0xffd04080
    2f64:	ffd040c0 	.word	0xffd040c0
    2f68:	ffd04070 	.word	0xffd04070
    2f6c:	ffd04010 	.word	0xffd04010
    2f70:	4bac      	ldr	r3, [pc, #688]	; (3224 <alt_clk_freq_get+0x5f8>)
    2f72:	ac02      	add	r4, sp, #8
    2f74:	681b      	ldr	r3, [r3, #0]
    2f76:	07da      	lsls	r2, r3, #31
    2f78:	f844 3d04 	str.w	r3, [r4, #-4]!
    2f7c:	d512      	bpl.n	2fa4 <alt_clk_freq_get+0x378>
    2f7e:	4baa      	ldr	r3, [pc, #680]	; (3228 <alt_clk_freq_get+0x5fc>)
    2f80:	2600      	movs	r6, #0
    2f82:	681f      	ldr	r7, [r3, #0]
    2f84:	2301      	movs	r3, #1
    2f86:	9301      	str	r3, [sp, #4]
    2f88:	4621      	mov	r1, r4
    2f8a:	201d      	movs	r0, #29
    2f8c:	9d01      	ldr	r5, [sp, #4]
    2f8e:	f7fe ff9d 	bl	1ecc <alt_clk_divider_get>
    2f92:	2800      	cmp	r0, #0
    2f94:	f47f aec6 	bne.w	2d24 <alt_clk_freq_get+0xf8>
    2f98:	9b01      	ldr	r3, [sp, #4]
    2f9a:	4621      	mov	r1, r4
    2f9c:	2020      	movs	r0, #32
    2f9e:	fba5 ab03 	umull	sl, fp, r5, r3
    2fa2:	e766      	b.n	2e72 <alt_clk_freq_get+0x246>
    2fa4:	4621      	mov	r1, r4
    2fa6:	2009      	movs	r0, #9
    2fa8:	f7fe fe2c 	bl	1c04 <alt_clk_pll_vco_freq_get>
    2fac:	2800      	cmp	r0, #0
    2fae:	f47f aeb9 	bne.w	2d24 <alt_clk_freq_get+0xf8>
    2fb2:	4621      	mov	r1, r4
    2fb4:	200f      	movs	r0, #15
    2fb6:	9f01      	ldr	r7, [sp, #4]
    2fb8:	f7fe ff88 	bl	1ecc <alt_clk_divider_get>
    2fbc:	2800      	cmp	r0, #0
    2fbe:	f47f aeb1 	bne.w	2d24 <alt_clk_freq_get+0xf8>
    2fc2:	4606      	mov	r6, r0
    2fc4:	e7e0      	b.n	2f88 <alt_clk_freq_get+0x35c>
    2fc6:	4b97      	ldr	r3, [pc, #604]	; (3224 <alt_clk_freq_get+0x5f8>)
    2fc8:	ad02      	add	r5, sp, #8
    2fca:	681b      	ldr	r3, [r3, #0]
    2fcc:	f845 3d04 	str.w	r3, [r5, #-4]!
    2fd0:	07db      	lsls	r3, r3, #31
    2fd2:	d508      	bpl.n	2fe6 <alt_clk_freq_get+0x3ba>
    2fd4:	4b94      	ldr	r3, [pc, #592]	; (3228 <alt_clk_freq_get+0x5fc>)
    2fd6:	2600      	movs	r6, #0
    2fd8:	681f      	ldr	r7, [r3, #0]
    2fda:	2301      	movs	r3, #1
    2fdc:	9301      	str	r3, [sp, #4]
    2fde:	9c01      	ldr	r4, [sp, #4]
    2fe0:	4629      	mov	r1, r5
    2fe2:	201e      	movs	r0, #30
    2fe4:	e6f2      	b.n	2dcc <alt_clk_freq_get+0x1a0>
    2fe6:	4629      	mov	r1, r5
    2fe8:	2009      	movs	r0, #9
    2fea:	f7fe fe0b 	bl	1c04 <alt_clk_pll_vco_freq_get>
    2fee:	2800      	cmp	r0, #0
    2ff0:	f47f ae98 	bne.w	2d24 <alt_clk_freq_get+0xf8>
    2ff4:	4629      	mov	r1, r5
    2ff6:	200f      	movs	r0, #15
    2ff8:	9f01      	ldr	r7, [sp, #4]
    2ffa:	f7fe ff67 	bl	1ecc <alt_clk_divider_get>
    2ffe:	2800      	cmp	r0, #0
    3000:	f47f ae90 	bne.w	2d24 <alt_clk_freq_get+0xf8>
    3004:	4606      	mov	r6, r0
    3006:	e7ea      	b.n	2fde <alt_clk_freq_get+0x3b2>
    3008:	a901      	add	r1, sp, #4
    300a:	2009      	movs	r0, #9
    300c:	f7fe fdfa 	bl	1c04 <alt_clk_pll_vco_freq_get>
    3010:	2800      	cmp	r0, #0
    3012:	f47f ae87 	bne.w	2d24 <alt_clk_freq_get+0xf8>
    3016:	4606      	mov	r6, r0
    3018:	9f01      	ldr	r7, [sp, #4]
    301a:	a901      	add	r1, sp, #4
    301c:	2012      	movs	r0, #18
    301e:	e6bf      	b.n	2da0 <alt_clk_freq_get+0x174>
    3020:	a901      	add	r1, sp, #4
    3022:	200a      	movs	r0, #10
    3024:	e6a9      	b.n	2d7a <alt_clk_freq_get+0x14e>
    3026:	a901      	add	r1, sp, #4
    3028:	200a      	movs	r0, #10
    302a:	f7fe fdeb 	bl	1c04 <alt_clk_pll_vco_freq_get>
    302e:	2800      	cmp	r0, #0
    3030:	f47f ae78 	bne.w	2d24 <alt_clk_freq_get+0xf8>
    3034:	4606      	mov	r6, r0
    3036:	9f01      	ldr	r7, [sp, #4]
    3038:	a901      	add	r1, sp, #4
    303a:	2025      	movs	r0, #37	; 0x25
    303c:	e6b0      	b.n	2da0 <alt_clk_freq_get+0x174>
    303e:	a901      	add	r1, sp, #4
    3040:	200a      	movs	r0, #10
    3042:	f7fe fddf 	bl	1c04 <alt_clk_pll_vco_freq_get>
    3046:	2800      	cmp	r0, #0
    3048:	f47f ae6c 	bne.w	2d24 <alt_clk_freq_get+0xf8>
    304c:	4606      	mov	r6, r0
    304e:	9f01      	ldr	r7, [sp, #4]
    3050:	a901      	add	r1, sp, #4
    3052:	2026      	movs	r0, #38	; 0x26
    3054:	e6a4      	b.n	2da0 <alt_clk_freq_get+0x174>
    3056:	a901      	add	r1, sp, #4
    3058:	200a      	movs	r0, #10
    305a:	f7fe fdd3 	bl	1c04 <alt_clk_pll_vco_freq_get>
    305e:	2800      	cmp	r0, #0
    3060:	f47f ae60 	bne.w	2d24 <alt_clk_freq_get+0xf8>
    3064:	a901      	add	r1, sp, #4
    3066:	2029      	movs	r0, #41	; 0x29
    3068:	9f01      	ldr	r7, [sp, #4]
    306a:	f7fe ff2f 	bl	1ecc <alt_clk_divider_get>
    306e:	2800      	cmp	r0, #0
    3070:	f47f ae58 	bne.w	2d24 <alt_clk_freq_get+0xf8>
    3074:	4606      	mov	r6, r0
    3076:	9c01      	ldr	r4, [sp, #4]
    3078:	a901      	add	r1, sp, #4
    307a:	202b      	movs	r0, #43	; 0x2b
    307c:	e6a6      	b.n	2dcc <alt_clk_freq_get+0x1a0>
    307e:	a901      	add	r1, sp, #4
    3080:	200a      	movs	r0, #10
    3082:	f7fe fdbf 	bl	1c04 <alt_clk_pll_vco_freq_get>
    3086:	2800      	cmp	r0, #0
    3088:	f47f ae4c 	bne.w	2d24 <alt_clk_freq_get+0xf8>
    308c:	4606      	mov	r6, r0
    308e:	a901      	add	r1, sp, #4
    3090:	2029      	movs	r0, #41	; 0x29
    3092:	9f01      	ldr	r7, [sp, #4]
    3094:	f7fe ff1a 	bl	1ecc <alt_clk_divider_get>
    3098:	2800      	cmp	r0, #0
    309a:	f47f ae43 	bne.w	2d24 <alt_clk_freq_get+0xf8>
    309e:	9c01      	ldr	r4, [sp, #4]
    30a0:	a901      	add	r1, sp, #4
    30a2:	202c      	movs	r0, #44	; 0x2c
    30a4:	e692      	b.n	2dcc <alt_clk_freq_get+0x1a0>
    30a6:	a901      	add	r1, sp, #4
    30a8:	200a      	movs	r0, #10
    30aa:	f7fe fdab 	bl	1c04 <alt_clk_pll_vco_freq_get>
    30ae:	2800      	cmp	r0, #0
    30b0:	f47f ae38 	bne.w	2d24 <alt_clk_freq_get+0xf8>
    30b4:	4606      	mov	r6, r0
    30b6:	a901      	add	r1, sp, #4
    30b8:	2029      	movs	r0, #41	; 0x29
    30ba:	9f01      	ldr	r7, [sp, #4]
    30bc:	f7fe ff06 	bl	1ecc <alt_clk_divider_get>
    30c0:	2800      	cmp	r0, #0
    30c2:	f47f ae2f 	bne.w	2d24 <alt_clk_freq_get+0xf8>
    30c6:	9c01      	ldr	r4, [sp, #4]
    30c8:	a901      	add	r1, sp, #4
    30ca:	2033      	movs	r0, #51	; 0x33
    30cc:	e67e      	b.n	2dcc <alt_clk_freq_get+0x1a0>
    30ce:	a901      	add	r1, sp, #4
    30d0:	200a      	movs	r0, #10
    30d2:	f7fe fd97 	bl	1c04 <alt_clk_pll_vco_freq_get>
    30d6:	2800      	cmp	r0, #0
    30d8:	f47f ae24 	bne.w	2d24 <alt_clk_freq_get+0xf8>
    30dc:	4606      	mov	r6, r0
    30de:	a901      	add	r1, sp, #4
    30e0:	2029      	movs	r0, #41	; 0x29
    30e2:	9f01      	ldr	r7, [sp, #4]
    30e4:	f7fe fef2 	bl	1ecc <alt_clk_divider_get>
    30e8:	2800      	cmp	r0, #0
    30ea:	f47f ae1b 	bne.w	2d24 <alt_clk_freq_get+0xf8>
    30ee:	9c01      	ldr	r4, [sp, #4]
    30f0:	a901      	add	r1, sp, #4
    30f2:	2034      	movs	r0, #52	; 0x34
    30f4:	e66a      	b.n	2dcc <alt_clk_freq_get+0x1a0>
    30f6:	a901      	add	r1, sp, #4
    30f8:	200a      	movs	r0, #10
    30fa:	f7fe fd83 	bl	1c04 <alt_clk_pll_vco_freq_get>
    30fe:	2800      	cmp	r0, #0
    3100:	f47f ae10 	bne.w	2d24 <alt_clk_freq_get+0xf8>
    3104:	4606      	mov	r6, r0
    3106:	a901      	add	r1, sp, #4
    3108:	2029      	movs	r0, #41	; 0x29
    310a:	9f01      	ldr	r7, [sp, #4]
    310c:	f7fe fede 	bl	1ecc <alt_clk_divider_get>
    3110:	2800      	cmp	r0, #0
    3112:	f47f ae07 	bne.w	2d24 <alt_clk_freq_get+0xf8>
    3116:	9c01      	ldr	r4, [sp, #4]
    3118:	a901      	add	r1, sp, #4
    311a:	2035      	movs	r0, #53	; 0x35
    311c:	e656      	b.n	2dcc <alt_clk_freq_get+0x1a0>
    311e:	a901      	add	r1, sp, #4
    3120:	200a      	movs	r0, #10
    3122:	f7fe fd6f 	bl	1c04 <alt_clk_pll_vco_freq_get>
    3126:	2800      	cmp	r0, #0
    3128:	f47f adfc 	bne.w	2d24 <alt_clk_freq_get+0xf8>
    312c:	4606      	mov	r6, r0
    312e:	9f01      	ldr	r7, [sp, #4]
    3130:	a901      	add	r1, sp, #4
    3132:	202a      	movs	r0, #42	; 0x2a
    3134:	e634      	b.n	2da0 <alt_clk_freq_get+0x174>
    3136:	4b3d      	ldr	r3, [pc, #244]	; (322c <alt_clk_freq_get+0x600>)
    3138:	681e      	ldr	r6, [r3, #0]
    313a:	f006 0603 	and.w	r6, r6, #3
    313e:	9601      	str	r6, [sp, #4]
    3140:	b916      	cbnz	r6, 3148 <alt_clk_freq_get+0x51c>
    3142:	4b39      	ldr	r3, [pc, #228]	; (3228 <alt_clk_freq_get+0x5fc>)
    3144:	6a1f      	ldr	r7, [r3, #32]
    3146:	e5c3      	b.n	2cd0 <alt_clk_freq_get+0xa4>
    3148:	2e01      	cmp	r6, #1
    314a:	d10b      	bne.n	3164 <alt_clk_freq_get+0x538>
    314c:	a901      	add	r1, sp, #4
    314e:	2009      	movs	r0, #9
    3150:	f7fe fd58 	bl	1c04 <alt_clk_pll_vco_freq_get>
    3154:	2800      	cmp	r0, #0
    3156:	f47f ade5 	bne.w	2d24 <alt_clk_freq_get+0xf8>
    315a:	4606      	mov	r6, r0
    315c:	9f01      	ldr	r7, [sp, #4]
    315e:	a901      	add	r1, sp, #4
    3160:	2011      	movs	r0, #17
    3162:	e61d      	b.n	2da0 <alt_clk_freq_get+0x174>
    3164:	2e02      	cmp	r6, #2
    3166:	d002      	beq.n	316e <alt_clk_freq_get+0x542>
    3168:	f04f 30ff 	mov.w	r0, #4294967295
    316c:	e5da      	b.n	2d24 <alt_clk_freq_get+0xf8>
    316e:	a901      	add	r1, sp, #4
    3170:	200a      	movs	r0, #10
    3172:	f7fe fd47 	bl	1c04 <alt_clk_pll_vco_freq_get>
    3176:	2800      	cmp	r0, #0
    3178:	f47f add4 	bne.w	2d24 <alt_clk_freq_get+0xf8>
    317c:	4606      	mov	r6, r0
    317e:	9f01      	ldr	r7, [sp, #4]
    3180:	a901      	add	r1, sp, #4
    3182:	2028      	movs	r0, #40	; 0x28
    3184:	e60c      	b.n	2da0 <alt_clk_freq_get+0x174>
    3186:	2404      	movs	r4, #4
    3188:	4b28      	ldr	r3, [pc, #160]	; (322c <alt_clk_freq_get+0x600>)
    318a:	2500      	movs	r5, #0
    318c:	681e      	ldr	r6, [r3, #0]
    318e:	f3c6 0681 	ubfx	r6, r6, #2, #2
    3192:	9601      	str	r6, [sp, #4]
    3194:	b96e      	cbnz	r6, 31b2 <alt_clk_freq_get+0x586>
    3196:	4b24      	ldr	r3, [pc, #144]	; (3228 <alt_clk_freq_get+0x5fc>)
    3198:	6a1f      	ldr	r7, [r3, #32]
    319a:	4622      	mov	r2, r4
    319c:	462b      	mov	r3, r5
    319e:	4638      	mov	r0, r7
    31a0:	4631      	mov	r1, r6
    31a2:	f002 ead6 	blx	5750 <__aeabi_uldivmod>
    31a6:	f8c8 0000 	str.w	r0, [r8]
    31aa:	2000      	movs	r0, #0
    31ac:	e5ba      	b.n	2d24 <alt_clk_freq_get+0xf8>
    31ae:	2401      	movs	r4, #1
    31b0:	e7ea      	b.n	3188 <alt_clk_freq_get+0x55c>
    31b2:	2e01      	cmp	r6, #1
    31b4:	d113      	bne.n	31de <alt_clk_freq_get+0x5b2>
    31b6:	a901      	add	r1, sp, #4
    31b8:	2009      	movs	r0, #9
    31ba:	f7fe fd23 	bl	1c04 <alt_clk_pll_vco_freq_get>
    31be:	2800      	cmp	r0, #0
    31c0:	f47f adb0 	bne.w	2d24 <alt_clk_freq_get+0xf8>
    31c4:	9f01      	ldr	r7, [sp, #4]
    31c6:	4606      	mov	r6, r0
    31c8:	a901      	add	r1, sp, #4
    31ca:	2011      	movs	r0, #17
    31cc:	f7fe fe7e 	bl	1ecc <alt_clk_divider_get>
    31d0:	9b01      	ldr	r3, [sp, #4]
    31d2:	fb03 f205 	mul.w	r2, r3, r5
    31d6:	fba4 4503 	umull	r4, r5, r4, r3
    31da:	4415      	add	r5, r2
    31dc:	e650      	b.n	2e80 <alt_clk_freq_get+0x254>
    31de:	2e02      	cmp	r6, #2
    31e0:	d1c2      	bne.n	3168 <alt_clk_freq_get+0x53c>
    31e2:	a901      	add	r1, sp, #4
    31e4:	200a      	movs	r0, #10
    31e6:	f7fe fd0d 	bl	1c04 <alt_clk_pll_vco_freq_get>
    31ea:	2800      	cmp	r0, #0
    31ec:	f47f ad9a 	bne.w	2d24 <alt_clk_freq_get+0xf8>
    31f0:	4606      	mov	r6, r0
    31f2:	9f01      	ldr	r7, [sp, #4]
    31f4:	a901      	add	r1, sp, #4
    31f6:	2028      	movs	r0, #40	; 0x28
    31f8:	e7e8      	b.n	31cc <alt_clk_freq_get+0x5a0>
    31fa:	4b0c      	ldr	r3, [pc, #48]	; (322c <alt_clk_freq_get+0x600>)
    31fc:	681e      	ldr	r6, [r3, #0]
    31fe:	f3c6 1601 	ubfx	r6, r6, #4, #2
    3202:	9601      	str	r6, [sp, #4]
    3204:	2e00      	cmp	r6, #0
    3206:	d09c      	beq.n	3142 <alt_clk_freq_get+0x516>
    3208:	2e01      	cmp	r6, #1
    320a:	d111      	bne.n	3230 <alt_clk_freq_get+0x604>
    320c:	a901      	add	r1, sp, #4
    320e:	2009      	movs	r0, #9
    3210:	f7fe fcf8 	bl	1c04 <alt_clk_pll_vco_freq_get>
    3214:	2800      	cmp	r0, #0
    3216:	f47f ad85 	bne.w	2d24 <alt_clk_freq_get+0xf8>
    321a:	4606      	mov	r6, r0
    321c:	9f01      	ldr	r7, [sp, #4]
    321e:	a901      	add	r1, sp, #4
    3220:	2010      	movs	r0, #16
    3222:	e5bd      	b.n	2da0 <alt_clk_freq_get+0x174>
    3224:	ffd04010 	.word	0xffd04010
    3228:	00006634 	.word	0x00006634
    322c:	ffd040ac 	.word	0xffd040ac
    3230:	2e02      	cmp	r6, #2
    3232:	d199      	bne.n	3168 <alt_clk_freq_get+0x53c>
    3234:	a901      	add	r1, sp, #4
    3236:	200a      	movs	r0, #10
    3238:	f7fe fce4 	bl	1c04 <alt_clk_pll_vco_freq_get>
    323c:	2800      	cmp	r0, #0
    323e:	f47f ad71 	bne.w	2d24 <alt_clk_freq_get+0xf8>
    3242:	4606      	mov	r6, r0
    3244:	9f01      	ldr	r7, [sp, #4]
    3246:	a901      	add	r1, sp, #4
    3248:	2027      	movs	r0, #39	; 0x27
    324a:	e5a9      	b.n	2da0 <alt_clk_freq_get+0x174>
    324c:	a901      	add	r1, sp, #4
    324e:	200b      	movs	r0, #11
    3250:	f7fe fcd8 	bl	1c04 <alt_clk_pll_vco_freq_get>
    3254:	2800      	cmp	r0, #0
    3256:	f47f ad65 	bne.w	2d24 <alt_clk_freq_get+0xf8>
    325a:	4606      	mov	r6, r0
    325c:	9f01      	ldr	r7, [sp, #4]
    325e:	a901      	add	r1, sp, #4
    3260:	2037      	movs	r0, #55	; 0x37
    3262:	e59d      	b.n	2da0 <alt_clk_freq_get+0x174>
    3264:	a901      	add	r1, sp, #4
    3266:	200b      	movs	r0, #11
    3268:	f7fe fccc 	bl	1c04 <alt_clk_pll_vco_freq_get>
    326c:	2800      	cmp	r0, #0
    326e:	f47f ad59 	bne.w	2d24 <alt_clk_freq_get+0xf8>
    3272:	4606      	mov	r6, r0
    3274:	9f01      	ldr	r7, [sp, #4]
    3276:	a901      	add	r1, sp, #4
    3278:	2038      	movs	r0, #56	; 0x38
    327a:	e591      	b.n	2da0 <alt_clk_freq_get+0x174>
    327c:	a901      	add	r1, sp, #4
    327e:	200b      	movs	r0, #11
    3280:	f7fe fcc0 	bl	1c04 <alt_clk_pll_vco_freq_get>
    3284:	2800      	cmp	r0, #0
    3286:	f47f ad4d 	bne.w	2d24 <alt_clk_freq_get+0xf8>
    328a:	4606      	mov	r6, r0
    328c:	9f01      	ldr	r7, [sp, #4]
    328e:	a901      	add	r1, sp, #4
    3290:	2039      	movs	r0, #57	; 0x39
    3292:	e585      	b.n	2da0 <alt_clk_freq_get+0x174>
    3294:	a901      	add	r1, sp, #4
    3296:	200b      	movs	r0, #11
    3298:	f7fe fcb4 	bl	1c04 <alt_clk_pll_vco_freq_get>
    329c:	2800      	cmp	r0, #0
    329e:	f47f ad41 	bne.w	2d24 <alt_clk_freq_get+0xf8>
    32a2:	4606      	mov	r6, r0
    32a4:	9f01      	ldr	r7, [sp, #4]
    32a6:	a901      	add	r1, sp, #4
    32a8:	203c      	movs	r0, #60	; 0x3c
    32aa:	e579      	b.n	2da0 <alt_clk_freq_get+0x174>
    32ac:	f06f 0008 	mvn.w	r0, #8
    32b0:	e538      	b.n	2d24 <alt_clk_freq_get+0xf8>
    32b2:	bf00      	nop

000032b4 <alt_clk_irq_disable>:
    32b4:	f030 033f 	bics.w	r3, r0, #63	; 0x3f
    32b8:	bf01      	itttt	eq
    32ba:	4905      	ldreq	r1, [pc, #20]	; (32d0 <alt_clk_irq_disable+0x1c>)
    32bc:	680a      	ldreq	r2, [r1, #0]
    32be:	ea22 0000 	biceq.w	r0, r2, r0
    32c2:	6008      	streq	r0, [r1, #0]
    32c4:	bf0c      	ite	eq
    32c6:	4618      	moveq	r0, r3
    32c8:	f06f 0008 	mvnne.w	r0, #8
    32cc:	4770      	bx	lr
    32ce:	bf00      	nop
    32d0:	ffd0400c 	.word	0xffd0400c

000032d4 <alt_clk_irq_enable>:
    32d4:	f030 023f 	bics.w	r2, r0, #63	; 0x3f
    32d8:	bf01      	itttt	eq
    32da:	4904      	ldreq	r1, [pc, #16]	; (32ec <alt_clk_irq_enable+0x18>)
    32dc:	680b      	ldreq	r3, [r1, #0]
    32de:	4303      	orreq	r3, r0
    32e0:	4610      	moveq	r0, r2
    32e2:	bf0c      	ite	eq
    32e4:	600b      	streq	r3, [r1, #0]
    32e6:	f06f 0008 	mvnne.w	r0, #8
    32ea:	4770      	bx	lr
    32ec:	ffd0400c 	.word	0xffd0400c

000032f0 <alt_clk_group_cfg_raw_get>:
    32f0:	4b40      	ldr	r3, [pc, #256]	; (33f4 <alt_clk_group_cfg_raw_get+0x104>)
    32f2:	681b      	ldr	r3, [r3, #0]
    32f4:	600b      	str	r3, [r1, #0]
    32f6:	4b40      	ldr	r3, [pc, #256]	; (33f8 <alt_clk_group_cfg_raw_get+0x108>)
    32f8:	681b      	ldr	r3, [r3, #0]
    32fa:	6088      	str	r0, [r1, #8]
    32fc:	604b      	str	r3, [r1, #4]
    32fe:	2800      	cmp	r0, #0
    3300:	d12c      	bne.n	335c <alt_clk_group_cfg_raw_get+0x6c>
    3302:	4b3e      	ldr	r3, [pc, #248]	; (33fc <alt_clk_group_cfg_raw_get+0x10c>)
    3304:	681b      	ldr	r3, [r3, #0]
    3306:	60cb      	str	r3, [r1, #12]
    3308:	4b3d      	ldr	r3, [pc, #244]	; (3400 <alt_clk_group_cfg_raw_get+0x110>)
    330a:	681b      	ldr	r3, [r3, #0]
    330c:	610b      	str	r3, [r1, #16]
    330e:	4b3d      	ldr	r3, [pc, #244]	; (3404 <alt_clk_group_cfg_raw_get+0x114>)
    3310:	681b      	ldr	r3, [r3, #0]
    3312:	614b      	str	r3, [r1, #20]
    3314:	4b3c      	ldr	r3, [pc, #240]	; (3408 <alt_clk_group_cfg_raw_get+0x118>)
    3316:	681b      	ldr	r3, [r3, #0]
    3318:	618b      	str	r3, [r1, #24]
    331a:	4b3c      	ldr	r3, [pc, #240]	; (340c <alt_clk_group_cfg_raw_get+0x11c>)
    331c:	681b      	ldr	r3, [r3, #0]
    331e:	61cb      	str	r3, [r1, #28]
    3320:	4b3b      	ldr	r3, [pc, #236]	; (3410 <alt_clk_group_cfg_raw_get+0x120>)
    3322:	681b      	ldr	r3, [r3, #0]
    3324:	620b      	str	r3, [r1, #32]
    3326:	4b3b      	ldr	r3, [pc, #236]	; (3414 <alt_clk_group_cfg_raw_get+0x124>)
    3328:	681b      	ldr	r3, [r3, #0]
    332a:	624b      	str	r3, [r1, #36]	; 0x24
    332c:	4b3a      	ldr	r3, [pc, #232]	; (3418 <alt_clk_group_cfg_raw_get+0x128>)
    332e:	681b      	ldr	r3, [r3, #0]
    3330:	628b      	str	r3, [r1, #40]	; 0x28
    3332:	4b3a      	ldr	r3, [pc, #232]	; (341c <alt_clk_group_cfg_raw_get+0x12c>)
    3334:	681b      	ldr	r3, [r3, #0]
    3336:	62cb      	str	r3, [r1, #44]	; 0x2c
    3338:	4b39      	ldr	r3, [pc, #228]	; (3420 <alt_clk_group_cfg_raw_get+0x130>)
    333a:	681b      	ldr	r3, [r3, #0]
    333c:	630b      	str	r3, [r1, #48]	; 0x30
    333e:	4b39      	ldr	r3, [pc, #228]	; (3424 <alt_clk_group_cfg_raw_get+0x134>)
    3340:	681b      	ldr	r3, [r3, #0]
    3342:	634b      	str	r3, [r1, #52]	; 0x34
    3344:	4b38      	ldr	r3, [pc, #224]	; (3428 <alt_clk_group_cfg_raw_get+0x138>)
    3346:	681b      	ldr	r3, [r3, #0]
    3348:	638b      	str	r3, [r1, #56]	; 0x38
    334a:	4b38      	ldr	r3, [pc, #224]	; (342c <alt_clk_group_cfg_raw_get+0x13c>)
    334c:	681b      	ldr	r3, [r3, #0]
    334e:	63cb      	str	r3, [r1, #60]	; 0x3c
    3350:	4b37      	ldr	r3, [pc, #220]	; (3430 <alt_clk_group_cfg_raw_get+0x140>)
    3352:	681b      	ldr	r3, [r3, #0]
    3354:	640b      	str	r3, [r1, #64]	; 0x40
    3356:	6448      	str	r0, [r1, #68]	; 0x44
    3358:	6488      	str	r0, [r1, #72]	; 0x48
    335a:	4770      	bx	lr
    335c:	2801      	cmp	r0, #1
    335e:	d129      	bne.n	33b4 <alt_clk_group_cfg_raw_get+0xc4>
    3360:	4b34      	ldr	r3, [pc, #208]	; (3434 <alt_clk_group_cfg_raw_get+0x144>)
    3362:	2000      	movs	r0, #0
    3364:	681b      	ldr	r3, [r3, #0]
    3366:	60cb      	str	r3, [r1, #12]
    3368:	4b33      	ldr	r3, [pc, #204]	; (3438 <alt_clk_group_cfg_raw_get+0x148>)
    336a:	681b      	ldr	r3, [r3, #0]
    336c:	610b      	str	r3, [r1, #16]
    336e:	4b33      	ldr	r3, [pc, #204]	; (343c <alt_clk_group_cfg_raw_get+0x14c>)
    3370:	681b      	ldr	r3, [r3, #0]
    3372:	614b      	str	r3, [r1, #20]
    3374:	4b32      	ldr	r3, [pc, #200]	; (3440 <alt_clk_group_cfg_raw_get+0x150>)
    3376:	681b      	ldr	r3, [r3, #0]
    3378:	618b      	str	r3, [r1, #24]
    337a:	4b32      	ldr	r3, [pc, #200]	; (3444 <alt_clk_group_cfg_raw_get+0x154>)
    337c:	681b      	ldr	r3, [r3, #0]
    337e:	61cb      	str	r3, [r1, #28]
    3380:	4b31      	ldr	r3, [pc, #196]	; (3448 <alt_clk_group_cfg_raw_get+0x158>)
    3382:	681b      	ldr	r3, [r3, #0]
    3384:	620b      	str	r3, [r1, #32]
    3386:	4b31      	ldr	r3, [pc, #196]	; (344c <alt_clk_group_cfg_raw_get+0x15c>)
    3388:	681b      	ldr	r3, [r3, #0]
    338a:	624b      	str	r3, [r1, #36]	; 0x24
    338c:	4b30      	ldr	r3, [pc, #192]	; (3450 <alt_clk_group_cfg_raw_get+0x160>)
    338e:	681b      	ldr	r3, [r3, #0]
    3390:	628b      	str	r3, [r1, #40]	; 0x28
    3392:	4b30      	ldr	r3, [pc, #192]	; (3454 <alt_clk_group_cfg_raw_get+0x164>)
    3394:	681b      	ldr	r3, [r3, #0]
    3396:	62cb      	str	r3, [r1, #44]	; 0x2c
    3398:	4b2f      	ldr	r3, [pc, #188]	; (3458 <alt_clk_group_cfg_raw_get+0x168>)
    339a:	681b      	ldr	r3, [r3, #0]
    339c:	630b      	str	r3, [r1, #48]	; 0x30
    339e:	4b2f      	ldr	r3, [pc, #188]	; (345c <alt_clk_group_cfg_raw_get+0x16c>)
    33a0:	681b      	ldr	r3, [r3, #0]
    33a2:	634b      	str	r3, [r1, #52]	; 0x34
    33a4:	4b2e      	ldr	r3, [pc, #184]	; (3460 <alt_clk_group_cfg_raw_get+0x170>)
    33a6:	681b      	ldr	r3, [r3, #0]
    33a8:	638b      	str	r3, [r1, #56]	; 0x38
    33aa:	4b2e      	ldr	r3, [pc, #184]	; (3464 <alt_clk_group_cfg_raw_get+0x174>)
    33ac:	681b      	ldr	r3, [r3, #0]
    33ae:	63cb      	str	r3, [r1, #60]	; 0x3c
    33b0:	6408      	str	r0, [r1, #64]	; 0x40
    33b2:	e7d0      	b.n	3356 <alt_clk_group_cfg_raw_get+0x66>
    33b4:	2802      	cmp	r0, #2
    33b6:	d119      	bne.n	33ec <alt_clk_group_cfg_raw_get+0xfc>
    33b8:	4b2b      	ldr	r3, [pc, #172]	; (3468 <alt_clk_group_cfg_raw_get+0x178>)
    33ba:	2000      	movs	r0, #0
    33bc:	681b      	ldr	r3, [r3, #0]
    33be:	60cb      	str	r3, [r1, #12]
    33c0:	4b2a      	ldr	r3, [pc, #168]	; (346c <alt_clk_group_cfg_raw_get+0x17c>)
    33c2:	681b      	ldr	r3, [r3, #0]
    33c4:	610b      	str	r3, [r1, #16]
    33c6:	4b2a      	ldr	r3, [pc, #168]	; (3470 <alt_clk_group_cfg_raw_get+0x180>)
    33c8:	681b      	ldr	r3, [r3, #0]
    33ca:	614b      	str	r3, [r1, #20]
    33cc:	4b29      	ldr	r3, [pc, #164]	; (3474 <alt_clk_group_cfg_raw_get+0x184>)
    33ce:	681b      	ldr	r3, [r3, #0]
    33d0:	618b      	str	r3, [r1, #24]
    33d2:	4b29      	ldr	r3, [pc, #164]	; (3478 <alt_clk_group_cfg_raw_get+0x188>)
    33d4:	681b      	ldr	r3, [r3, #0]
    33d6:	61cb      	str	r3, [r1, #28]
    33d8:	4b28      	ldr	r3, [pc, #160]	; (347c <alt_clk_group_cfg_raw_get+0x18c>)
    33da:	681b      	ldr	r3, [r3, #0]
    33dc:	620b      	str	r3, [r1, #32]
    33de:	4b28      	ldr	r3, [pc, #160]	; (3480 <alt_clk_group_cfg_raw_get+0x190>)
    33e0:	681b      	ldr	r3, [r3, #0]
    33e2:	624b      	str	r3, [r1, #36]	; 0x24
    33e4:	4b27      	ldr	r3, [pc, #156]	; (3484 <alt_clk_group_cfg_raw_get+0x194>)
    33e6:	681b      	ldr	r3, [r3, #0]
    33e8:	628b      	str	r3, [r1, #40]	; 0x28
    33ea:	4770      	bx	lr
    33ec:	f06f 0008 	mvn.w	r0, #8
    33f0:	4770      	bx	lr
    33f2:	bf00      	nop
    33f4:	ffd08000 	.word	0xffd08000
    33f8:	ffd08004 	.word	0xffd08004
    33fc:	ffd04040 	.word	0xffd04040
    3400:	ffd04044 	.word	0xffd04044
    3404:	ffd04048 	.word	0xffd04048
    3408:	ffd0404c 	.word	0xffd0404c
    340c:	ffd04050 	.word	0xffd04050
    3410:	ffd04054 	.word	0xffd04054
    3414:	ffd04058 	.word	0xffd04058
    3418:	ffd0405c 	.word	0xffd0405c
    341c:	ffd04060 	.word	0xffd04060
    3420:	ffd04064 	.word	0xffd04064
    3424:	ffd04068 	.word	0xffd04068
    3428:	ffd0406c 	.word	0xffd0406c
    342c:	ffd04070 	.word	0xffd04070
    3430:	ffd04074 	.word	0xffd04074
    3434:	ffd04080 	.word	0xffd04080
    3438:	ffd04084 	.word	0xffd04084
    343c:	ffd04088 	.word	0xffd04088
    3440:	ffd0408c 	.word	0xffd0408c
    3444:	ffd04090 	.word	0xffd04090
    3448:	ffd04094 	.word	0xffd04094
    344c:	ffd04098 	.word	0xffd04098
    3450:	ffd0409c 	.word	0xffd0409c
    3454:	ffd040a0 	.word	0xffd040a0
    3458:	ffd040a4 	.word	0xffd040a4
    345c:	ffd040a8 	.word	0xffd040a8
    3460:	ffd040ac 	.word	0xffd040ac
    3464:	ffd040b0 	.word	0xffd040b0
    3468:	ffd040c0 	.word	0xffd040c0
    346c:	ffd040c4 	.word	0xffd040c4
    3470:	ffd040c8 	.word	0xffd040c8
    3474:	ffd040cc 	.word	0xffd040cc
    3478:	ffd040d0 	.word	0xffd040d0
    347c:	ffd040d4 	.word	0xffd040d4
    3480:	ffd040d8 	.word	0xffd040d8
    3484:	ffd040dc 	.word	0xffd040dc

00003488 <alt_clk_group_cfg_raw_set>:
    3488:	4b41      	ldr	r3, [pc, #260]	; (3590 <alt_clk_group_cfg_raw_set+0x108>)
    348a:	b570      	push	{r4, r5, r6, lr}
    348c:	4604      	mov	r4, r0
    348e:	6885      	ldr	r5, [r0, #8]
    3490:	681a      	ldr	r2, [r3, #0]
    3492:	8843      	ldrh	r3, [r0, #2]
    3494:	ebb3 4f12 	cmp.w	r3, r2, lsr #16
    3498:	d173      	bne.n	3582 <alt_clk_group_cfg_raw_set+0xfa>
    349a:	2d00      	cmp	r5, #0
    349c:	d037      	beq.n	350e <alt_clk_group_cfg_raw_set+0x86>
    349e:	2d01      	cmp	r5, #1
    34a0:	d037      	beq.n	3512 <alt_clk_group_cfg_raw_set+0x8a>
    34a2:	2d02      	cmp	r5, #2
    34a4:	d170      	bne.n	3588 <alt_clk_group_cfg_raw_set+0x100>
    34a6:	260b      	movs	r6, #11
    34a8:	4630      	mov	r0, r6
    34aa:	f7fd fcdd 	bl	e68 <alt_clk_pll_is_bypassed>
    34ae:	4601      	mov	r1, r0
    34b0:	2800      	cmp	r0, #0
    34b2:	d130      	bne.n	3516 <alt_clk_group_cfg_raw_set+0x8e>
    34b4:	4630      	mov	r0, r6
    34b6:	f7fd fc55 	bl	d64 <alt_clk_pll_bypass_enable>
    34ba:	2800      	cmp	r0, #0
    34bc:	d166      	bne.n	358c <alt_clk_group_cfg_raw_set+0x104>
    34be:	2001      	movs	r0, #1
    34c0:	2d00      	cmp	r5, #0
    34c2:	d12a      	bne.n	351a <alt_clk_group_cfg_raw_set+0x92>
    34c4:	68e3      	ldr	r3, [r4, #12]
    34c6:	4a33      	ldr	r2, [pc, #204]	; (3594 <alt_clk_group_cfg_raw_set+0x10c>)
    34c8:	f023 43fe 	bic.w	r3, r3, #2130706432	; 0x7f000000
    34cc:	6013      	str	r3, [r2, #0]
    34ce:	4b32      	ldr	r3, [pc, #200]	; (3598 <alt_clk_group_cfg_raw_set+0x110>)
    34d0:	6922      	ldr	r2, [r4, #16]
    34d2:	601a      	str	r2, [r3, #0]
    34d4:	6962      	ldr	r2, [r4, #20]
    34d6:	605a      	str	r2, [r3, #4]
    34d8:	69a2      	ldr	r2, [r4, #24]
    34da:	609a      	str	r2, [r3, #8]
    34dc:	69e2      	ldr	r2, [r4, #28]
    34de:	60da      	str	r2, [r3, #12]
    34e0:	6a22      	ldr	r2, [r4, #32]
    34e2:	611a      	str	r2, [r3, #16]
    34e4:	6a62      	ldr	r2, [r4, #36]	; 0x24
    34e6:	615a      	str	r2, [r3, #20]
    34e8:	6aa2      	ldr	r2, [r4, #40]	; 0x28
    34ea:	619a      	str	r2, [r3, #24]
    34ec:	6ae2      	ldr	r2, [r4, #44]	; 0x2c
    34ee:	61da      	str	r2, [r3, #28]
    34f0:	6b22      	ldr	r2, [r4, #48]	; 0x30
    34f2:	621a      	str	r2, [r3, #32]
    34f4:	6b62      	ldr	r2, [r4, #52]	; 0x34
    34f6:	625a      	str	r2, [r3, #36]	; 0x24
    34f8:	6ba2      	ldr	r2, [r4, #56]	; 0x38
    34fa:	629a      	str	r2, [r3, #40]	; 0x28
    34fc:	6be2      	ldr	r2, [r4, #60]	; 0x3c
    34fe:	62da      	str	r2, [r3, #44]	; 0x2c
    3500:	2800      	cmp	r0, #0
    3502:	d043      	beq.n	358c <alt_clk_group_cfg_raw_set+0x104>
    3504:	4630      	mov	r0, r6
    3506:	e8bd 4070 	ldmia.w	sp!, {r4, r5, r6, lr}
    350a:	f7fd bb8d 	b.w	c28 <alt_clk_pll_bypass_disable>
    350e:	2609      	movs	r6, #9
    3510:	e7ca      	b.n	34a8 <alt_clk_group_cfg_raw_set+0x20>
    3512:	260a      	movs	r6, #10
    3514:	e7c8      	b.n	34a8 <alt_clk_group_cfg_raw_set+0x20>
    3516:	2000      	movs	r0, #0
    3518:	e7d2      	b.n	34c0 <alt_clk_group_cfg_raw_set+0x38>
    351a:	2d01      	cmp	r5, #1
    351c:	d11c      	bne.n	3558 <alt_clk_group_cfg_raw_set+0xd0>
    351e:	68e3      	ldr	r3, [r4, #12]
    3520:	4a1e      	ldr	r2, [pc, #120]	; (359c <alt_clk_group_cfg_raw_set+0x114>)
    3522:	f023 43fe 	bic.w	r3, r3, #2130706432	; 0x7f000000
    3526:	6013      	str	r3, [r2, #0]
    3528:	4b1d      	ldr	r3, [pc, #116]	; (35a0 <alt_clk_group_cfg_raw_set+0x118>)
    352a:	6922      	ldr	r2, [r4, #16]
    352c:	601a      	str	r2, [r3, #0]
    352e:	6962      	ldr	r2, [r4, #20]
    3530:	605a      	str	r2, [r3, #4]
    3532:	69a2      	ldr	r2, [r4, #24]
    3534:	609a      	str	r2, [r3, #8]
    3536:	69e2      	ldr	r2, [r4, #28]
    3538:	60da      	str	r2, [r3, #12]
    353a:	6a22      	ldr	r2, [r4, #32]
    353c:	611a      	str	r2, [r3, #16]
    353e:	6a62      	ldr	r2, [r4, #36]	; 0x24
    3540:	615a      	str	r2, [r3, #20]
    3542:	6aa2      	ldr	r2, [r4, #40]	; 0x28
    3544:	619a      	str	r2, [r3, #24]
    3546:	6ae2      	ldr	r2, [r4, #44]	; 0x2c
    3548:	61da      	str	r2, [r3, #28]
    354a:	6b22      	ldr	r2, [r4, #48]	; 0x30
    354c:	621a      	str	r2, [r3, #32]
    354e:	6b62      	ldr	r2, [r4, #52]	; 0x34
    3550:	625a      	str	r2, [r3, #36]	; 0x24
    3552:	6ba2      	ldr	r2, [r4, #56]	; 0x38
    3554:	629a      	str	r2, [r3, #40]	; 0x28
    3556:	e7d3      	b.n	3500 <alt_clk_group_cfg_raw_set+0x78>
    3558:	2d02      	cmp	r5, #2
    355a:	d1d1      	bne.n	3500 <alt_clk_group_cfg_raw_set+0x78>
    355c:	68e3      	ldr	r3, [r4, #12]
    355e:	4a11      	ldr	r2, [pc, #68]	; (35a4 <alt_clk_group_cfg_raw_set+0x11c>)
    3560:	f023 43fe 	bic.w	r3, r3, #2130706432	; 0x7f000000
    3564:	6013      	str	r3, [r2, #0]
    3566:	4b10      	ldr	r3, [pc, #64]	; (35a8 <alt_clk_group_cfg_raw_set+0x120>)
    3568:	6922      	ldr	r2, [r4, #16]
    356a:	601a      	str	r2, [r3, #0]
    356c:	6962      	ldr	r2, [r4, #20]
    356e:	605a      	str	r2, [r3, #4]
    3570:	69a2      	ldr	r2, [r4, #24]
    3572:	609a      	str	r2, [r3, #8]
    3574:	69e2      	ldr	r2, [r4, #28]
    3576:	60da      	str	r2, [r3, #12]
    3578:	6a22      	ldr	r2, [r4, #32]
    357a:	611a      	str	r2, [r3, #16]
    357c:	6a62      	ldr	r2, [r4, #36]	; 0x24
    357e:	615a      	str	r2, [r3, #20]
    3580:	e7be      	b.n	3500 <alt_clk_group_cfg_raw_set+0x78>
    3582:	f06f 000e 	mvn.w	r0, #14
    3586:	bd70      	pop	{r4, r5, r6, pc}
    3588:	f04f 30ff 	mov.w	r0, #4294967295
    358c:	bd70      	pop	{r4, r5, r6, pc}
    358e:	bf00      	nop
    3590:	ffd08000 	.word	0xffd08000
    3594:	ffd04040 	.word	0xffd04040
    3598:	ffd04044 	.word	0xffd04044
    359c:	ffd04080 	.word	0xffd04080
    35a0:	ffd04084 	.word	0xffd04084
    35a4:	ffd040c0 	.word	0xffd040c0
    35a8:	ffd040c4 	.word	0xffd040c4

000035ac <alt_clk_pll_cntr_maxfreq_recalc>:
    35ac:	b537      	push	{r0, r1, r2, r4, r5, lr}
    35ae:	460c      	mov	r4, r1
    35b0:	a901      	add	r1, sp, #4
    35b2:	4605      	mov	r5, r0
    35b4:	f7ff fb3a 	bl	2c2c <alt_clk_freq_get>
    35b8:	b9f8      	cbnz	r0, 35fa <alt_clk_pll_cntr_maxfreq_recalc+0x4e>
    35ba:	f1a5 030d 	sub.w	r3, r5, #13
    35be:	2b2f      	cmp	r3, #47	; 0x2f
    35c0:	d84a      	bhi.n	3658 <alt_clk_pll_cntr_maxfreq_recalc+0xac>
    35c2:	e8df f003 	tbb	[pc, r3]
    35c6:	1c18      	.short	0x1c18
    35c8:	2825221f 	.word	0x2825221f
    35cc:	49494949 	.word	0x49494949
    35d0:	49494949 	.word	0x49494949
    35d4:	49494949 	.word	0x49494949
    35d8:	49494949 	.word	0x49494949
    35dc:	2e2b4949 	.word	0x2e2b4949
    35e0:	3a373431 	.word	0x3a373431
    35e4:	49494949 	.word	0x49494949
    35e8:	49494949 	.word	0x49494949
    35ec:	49494949 	.word	0x49494949
    35f0:	4943403d 	.word	0x4943403d
    35f4:	4649      	.short	0x4649
    35f6:	9b01      	ldr	r3, [sp, #4]
    35f8:	6023      	str	r3, [r4, #0]
    35fa:	b003      	add	sp, #12
    35fc:	bd30      	pop	{r4, r5, pc}
    35fe:	9b01      	ldr	r3, [sp, #4]
    3600:	6063      	str	r3, [r4, #4]
    3602:	e7fa      	b.n	35fa <alt_clk_pll_cntr_maxfreq_recalc+0x4e>
    3604:	9b01      	ldr	r3, [sp, #4]
    3606:	60a3      	str	r3, [r4, #8]
    3608:	e7f7      	b.n	35fa <alt_clk_pll_cntr_maxfreq_recalc+0x4e>
    360a:	9b01      	ldr	r3, [sp, #4]
    360c:	60e3      	str	r3, [r4, #12]
    360e:	e7f4      	b.n	35fa <alt_clk_pll_cntr_maxfreq_recalc+0x4e>
    3610:	9b01      	ldr	r3, [sp, #4]
    3612:	6123      	str	r3, [r4, #16]
    3614:	e7f1      	b.n	35fa <alt_clk_pll_cntr_maxfreq_recalc+0x4e>
    3616:	9b01      	ldr	r3, [sp, #4]
    3618:	6163      	str	r3, [r4, #20]
    361a:	e7ee      	b.n	35fa <alt_clk_pll_cntr_maxfreq_recalc+0x4e>
    361c:	9b01      	ldr	r3, [sp, #4]
    361e:	61a3      	str	r3, [r4, #24]
    3620:	e7eb      	b.n	35fa <alt_clk_pll_cntr_maxfreq_recalc+0x4e>
    3622:	9b01      	ldr	r3, [sp, #4]
    3624:	61e3      	str	r3, [r4, #28]
    3626:	e7e8      	b.n	35fa <alt_clk_pll_cntr_maxfreq_recalc+0x4e>
    3628:	9b01      	ldr	r3, [sp, #4]
    362a:	6223      	str	r3, [r4, #32]
    362c:	e7e5      	b.n	35fa <alt_clk_pll_cntr_maxfreq_recalc+0x4e>
    362e:	9b01      	ldr	r3, [sp, #4]
    3630:	6263      	str	r3, [r4, #36]	; 0x24
    3632:	e7e2      	b.n	35fa <alt_clk_pll_cntr_maxfreq_recalc+0x4e>
    3634:	9b01      	ldr	r3, [sp, #4]
    3636:	62a3      	str	r3, [r4, #40]	; 0x28
    3638:	e7df      	b.n	35fa <alt_clk_pll_cntr_maxfreq_recalc+0x4e>
    363a:	9b01      	ldr	r3, [sp, #4]
    363c:	62e3      	str	r3, [r4, #44]	; 0x2c
    363e:	e7dc      	b.n	35fa <alt_clk_pll_cntr_maxfreq_recalc+0x4e>
    3640:	9b01      	ldr	r3, [sp, #4]
    3642:	6323      	str	r3, [r4, #48]	; 0x30
    3644:	e7d9      	b.n	35fa <alt_clk_pll_cntr_maxfreq_recalc+0x4e>
    3646:	9b01      	ldr	r3, [sp, #4]
    3648:	6363      	str	r3, [r4, #52]	; 0x34
    364a:	e7d6      	b.n	35fa <alt_clk_pll_cntr_maxfreq_recalc+0x4e>
    364c:	9b01      	ldr	r3, [sp, #4]
    364e:	63a3      	str	r3, [r4, #56]	; 0x38
    3650:	e7d3      	b.n	35fa <alt_clk_pll_cntr_maxfreq_recalc+0x4e>
    3652:	9b01      	ldr	r3, [sp, #4]
    3654:	63e3      	str	r3, [r4, #60]	; 0x3c
    3656:	e7d0      	b.n	35fa <alt_clk_pll_cntr_maxfreq_recalc+0x4e>
    3658:	f06f 0008 	mvn.w	r0, #8
    365c:	e7cd      	b.n	35fa <alt_clk_pll_cntr_maxfreq_recalc+0x4e>
	...

00003660 <alt_clk_clkmgr_reinit>:
    3660:	b510      	push	{r4, lr}
    3662:	200d      	movs	r0, #13
    3664:	4948      	ldr	r1, [pc, #288]	; (3788 <alt_clk_clkmgr_reinit+0x128>)
    3666:	f7ff ffa1 	bl	35ac <alt_clk_pll_cntr_maxfreq_recalc>
    366a:	4947      	ldr	r1, [pc, #284]	; (3788 <alt_clk_clkmgr_reinit+0x128>)
    366c:	4604      	mov	r4, r0
    366e:	200e      	movs	r0, #14
    3670:	f7ff ff9c 	bl	35ac <alt_clk_pll_cntr_maxfreq_recalc>
    3674:	2800      	cmp	r0, #0
    3676:	f040 8083 	bne.w	3780 <alt_clk_clkmgr_reinit+0x120>
    367a:	3400      	adds	r4, #0
    367c:	bf18      	it	ne
    367e:	2401      	movne	r4, #1
    3680:	4264      	negs	r4, r4
    3682:	4941      	ldr	r1, [pc, #260]	; (3788 <alt_clk_clkmgr_reinit+0x128>)
    3684:	200f      	movs	r0, #15
    3686:	f7ff ff91 	bl	35ac <alt_clk_pll_cntr_maxfreq_recalc>
    368a:	493f      	ldr	r1, [pc, #252]	; (3788 <alt_clk_clkmgr_reinit+0x128>)
    368c:	2800      	cmp	r0, #0
    368e:	f04f 0010 	mov.w	r0, #16
    3692:	bf18      	it	ne
    3694:	f04f 34ff 	movne.w	r4, #4294967295
    3698:	f7ff ff88 	bl	35ac <alt_clk_pll_cntr_maxfreq_recalc>
    369c:	493a      	ldr	r1, [pc, #232]	; (3788 <alt_clk_clkmgr_reinit+0x128>)
    369e:	2800      	cmp	r0, #0
    36a0:	f04f 0011 	mov.w	r0, #17
    36a4:	bf18      	it	ne
    36a6:	f04f 34ff 	movne.w	r4, #4294967295
    36aa:	f7ff ff7f 	bl	35ac <alt_clk_pll_cntr_maxfreq_recalc>
    36ae:	4936      	ldr	r1, [pc, #216]	; (3788 <alt_clk_clkmgr_reinit+0x128>)
    36b0:	2800      	cmp	r0, #0
    36b2:	f04f 0012 	mov.w	r0, #18
    36b6:	bf18      	it	ne
    36b8:	f04f 34ff 	movne.w	r4, #4294967295
    36bc:	f7ff ff76 	bl	35ac <alt_clk_pll_cntr_maxfreq_recalc>
    36c0:	4931      	ldr	r1, [pc, #196]	; (3788 <alt_clk_clkmgr_reinit+0x128>)
    36c2:	2800      	cmp	r0, #0
    36c4:	f04f 0025 	mov.w	r0, #37	; 0x25
    36c8:	bf18      	it	ne
    36ca:	f04f 34ff 	movne.w	r4, #4294967295
    36ce:	f7ff ff6d 	bl	35ac <alt_clk_pll_cntr_maxfreq_recalc>
    36d2:	492d      	ldr	r1, [pc, #180]	; (3788 <alt_clk_clkmgr_reinit+0x128>)
    36d4:	2800      	cmp	r0, #0
    36d6:	f04f 0026 	mov.w	r0, #38	; 0x26
    36da:	bf18      	it	ne
    36dc:	f04f 34ff 	movne.w	r4, #4294967295
    36e0:	f7ff ff64 	bl	35ac <alt_clk_pll_cntr_maxfreq_recalc>
    36e4:	4928      	ldr	r1, [pc, #160]	; (3788 <alt_clk_clkmgr_reinit+0x128>)
    36e6:	2800      	cmp	r0, #0
    36e8:	f04f 0027 	mov.w	r0, #39	; 0x27
    36ec:	bf18      	it	ne
    36ee:	f04f 34ff 	movne.w	r4, #4294967295
    36f2:	f7ff ff5b 	bl	35ac <alt_clk_pll_cntr_maxfreq_recalc>
    36f6:	4924      	ldr	r1, [pc, #144]	; (3788 <alt_clk_clkmgr_reinit+0x128>)
    36f8:	2800      	cmp	r0, #0
    36fa:	f04f 0028 	mov.w	r0, #40	; 0x28
    36fe:	bf18      	it	ne
    3700:	f04f 34ff 	movne.w	r4, #4294967295
    3704:	f7ff ff52 	bl	35ac <alt_clk_pll_cntr_maxfreq_recalc>
    3708:	491f      	ldr	r1, [pc, #124]	; (3788 <alt_clk_clkmgr_reinit+0x128>)
    370a:	2800      	cmp	r0, #0
    370c:	f04f 0029 	mov.w	r0, #41	; 0x29
    3710:	bf18      	it	ne
    3712:	f04f 34ff 	movne.w	r4, #4294967295
    3716:	f7ff ff49 	bl	35ac <alt_clk_pll_cntr_maxfreq_recalc>
    371a:	491b      	ldr	r1, [pc, #108]	; (3788 <alt_clk_clkmgr_reinit+0x128>)
    371c:	2800      	cmp	r0, #0
    371e:	f04f 002a 	mov.w	r0, #42	; 0x2a
    3722:	bf18      	it	ne
    3724:	f04f 34ff 	movne.w	r4, #4294967295
    3728:	f7ff ff40 	bl	35ac <alt_clk_pll_cntr_maxfreq_recalc>
    372c:	4916      	ldr	r1, [pc, #88]	; (3788 <alt_clk_clkmgr_reinit+0x128>)
    372e:	2800      	cmp	r0, #0
    3730:	f04f 0037 	mov.w	r0, #55	; 0x37
    3734:	bf18      	it	ne
    3736:	f04f 34ff 	movne.w	r4, #4294967295
    373a:	f7ff ff37 	bl	35ac <alt_clk_pll_cntr_maxfreq_recalc>
    373e:	4912      	ldr	r1, [pc, #72]	; (3788 <alt_clk_clkmgr_reinit+0x128>)
    3740:	2800      	cmp	r0, #0
    3742:	f04f 0038 	mov.w	r0, #56	; 0x38
    3746:	bf18      	it	ne
    3748:	f04f 34ff 	movne.w	r4, #4294967295
    374c:	f7ff ff2e 	bl	35ac <alt_clk_pll_cntr_maxfreq_recalc>
    3750:	490d      	ldr	r1, [pc, #52]	; (3788 <alt_clk_clkmgr_reinit+0x128>)
    3752:	2800      	cmp	r0, #0
    3754:	f04f 0039 	mov.w	r0, #57	; 0x39
    3758:	bf18      	it	ne
    375a:	f04f 34ff 	movne.w	r4, #4294967295
    375e:	f7ff ff25 	bl	35ac <alt_clk_pll_cntr_maxfreq_recalc>
    3762:	4909      	ldr	r1, [pc, #36]	; (3788 <alt_clk_clkmgr_reinit+0x128>)
    3764:	2800      	cmp	r0, #0
    3766:	f04f 003c 	mov.w	r0, #60	; 0x3c
    376a:	bf18      	it	ne
    376c:	f04f 34ff 	movne.w	r4, #4294967295
    3770:	f7ff ff1c 	bl	35ac <alt_clk_pll_cntr_maxfreq_recalc>
    3774:	2800      	cmp	r0, #0
    3776:	bf0c      	ite	eq
    3778:	4620      	moveq	r0, r4
    377a:	f04f 30ff 	movne.w	r0, #4294967295
    377e:	bd10      	pop	{r4, pc}
    3780:	f04f 34ff 	mov.w	r4, #4294967295
    3784:	e77d      	b.n	3682 <alt_clk_clkmgr_reinit+0x22>
    3786:	bf00      	nop
    3788:	000066d4 	.word	0x000066d4

0000378c <alt_clk_clkmgr_uninit>:
    378c:	2000      	movs	r0, #0
    378e:	4770      	bx	lr

00003790 <alt_globaltmr_is_running>:
    3790:	4b02      	ldr	r3, [pc, #8]	; (379c <alt_globaltmr_is_running+0xc>)
    3792:	6818      	ldr	r0, [r3, #0]
    3794:	f000 0001 	and.w	r0, r0, #1
    3798:	4770      	bx	lr
    379a:	bf00      	nop
    379c:	fffec208 	.word	0xfffec208

000037a0 <alt_globaltmr_uninit>:
    37a0:	4a06      	ldr	r2, [pc, #24]	; (37bc <alt_globaltmr_uninit+0x1c>)
    37a2:	2000      	movs	r0, #0
    37a4:	6813      	ldr	r3, [r2, #0]
    37a6:	f023 030e 	bic.w	r3, r3, #14
    37aa:	6013      	str	r3, [r2, #0]
    37ac:	2201      	movs	r2, #1
    37ae:	4b04      	ldr	r3, [pc, #16]	; (37c0 <alt_globaltmr_uninit+0x20>)
    37b0:	6018      	str	r0, [r3, #0]
    37b2:	6058      	str	r0, [r3, #4]
    37b4:	6098      	str	r0, [r3, #8]
    37b6:	f843 2c04 	str.w	r2, [r3, #-4]
    37ba:	4770      	bx	lr
    37bc:	fffec208 	.word	0xfffec208
    37c0:	fffec210 	.word	0xfffec210

000037c4 <alt_globaltmr_init>:
    37c4:	b508      	push	{r3, lr}
    37c6:	f7ff ffeb 	bl	37a0 <alt_globaltmr_uninit>
    37ca:	2000      	movs	r0, #0
    37cc:	4a02      	ldr	r2, [pc, #8]	; (37d8 <alt_globaltmr_init+0x14>)
    37ce:	6813      	ldr	r3, [r2, #0]
    37d0:	f043 0301 	orr.w	r3, r3, #1
    37d4:	6013      	str	r3, [r2, #0]
    37d6:	bd08      	pop	{r3, pc}
    37d8:	fffec208 	.word	0xfffec208

000037dc <alt_globaltmr_start>:
    37dc:	4a03      	ldr	r2, [pc, #12]	; (37ec <alt_globaltmr_start+0x10>)
    37de:	2000      	movs	r0, #0
    37e0:	6813      	ldr	r3, [r2, #0]
    37e2:	f043 0303 	orr.w	r3, r3, #3
    37e6:	6013      	str	r3, [r2, #0]
    37e8:	4770      	bx	lr
    37ea:	bf00      	nop
    37ec:	fffec208 	.word	0xfffec208

000037f0 <alt_globaltmr_get>:
    37f0:	b5f0      	push	{r4, r5, r6, r7, lr}
    37f2:	b1b0      	cbz	r0, 3822 <alt_globaltmr_get+0x32>
    37f4:	b1a9      	cbz	r1, 3822 <alt_globaltmr_get+0x32>
    37f6:	2303      	movs	r3, #3
    37f8:	4a0b      	ldr	r2, [pc, #44]	; (3828 <alt_globaltmr_get+0x38>)
    37fa:	4f0c      	ldr	r7, [pc, #48]	; (382c <alt_globaltmr_get+0x3c>)
    37fc:	6815      	ldr	r5, [r2, #0]
    37fe:	683e      	ldr	r6, [r7, #0]
    3800:	6814      	ldr	r4, [r2, #0]
    3802:	42a5      	cmp	r5, r4
    3804:	d008      	beq.n	3818 <alt_globaltmr_get+0x28>
    3806:	3b01      	subs	r3, #1
    3808:	4625      	mov	r5, r4
    380a:	f1b3 3fff 	cmp.w	r3, #4294967295
    380e:	d1f6      	bne.n	37fe <alt_globaltmr_get+0xe>
    3810:	6004      	str	r4, [r0, #0]
    3812:	2000      	movs	r0, #0
    3814:	600e      	str	r6, [r1, #0]
    3816:	bdf0      	pop	{r4, r5, r6, r7, pc}
    3818:	2b00      	cmp	r3, #0
    381a:	d1f9      	bne.n	3810 <alt_globaltmr_get+0x20>
    381c:	f04f 30ff 	mov.w	r0, #4294967295
    3820:	bdf0      	pop	{r4, r5, r6, r7, pc}
    3822:	f06f 0008 	mvn.w	r0, #8
    3826:	bdf0      	pop	{r4, r5, r6, r7, pc}
    3828:	fffec204 	.word	0xfffec204
    382c:	fffec200 	.word	0xfffec200

00003830 <alt_globaltmr_get64>:
    3830:	4a0b      	ldr	r2, [pc, #44]	; (3860 <alt_globaltmr_get64+0x30>)
    3832:	2303      	movs	r3, #3
    3834:	480b      	ldr	r0, [pc, #44]	; (3864 <alt_globaltmr_get64+0x34>)
    3836:	b530      	push	{r4, r5, lr}
    3838:	6811      	ldr	r1, [r2, #0]
    383a:	6805      	ldr	r5, [r0, #0]
    383c:	6814      	ldr	r4, [r2, #0]
    383e:	42a1      	cmp	r1, r4
    3840:	d008      	beq.n	3854 <alt_globaltmr_get64+0x24>
    3842:	3b01      	subs	r3, #1
    3844:	4621      	mov	r1, r4
    3846:	f1b3 3fff 	cmp.w	r3, #4294967295
    384a:	d1f6      	bne.n	383a <alt_globaltmr_get64+0xa>
    384c:	2000      	movs	r0, #0
    384e:	4621      	mov	r1, r4
    3850:	4328      	orrs	r0, r5
    3852:	bd30      	pop	{r4, r5, pc}
    3854:	2b00      	cmp	r3, #0
    3856:	d1f9      	bne.n	384c <alt_globaltmr_get64+0x1c>
    3858:	2000      	movs	r0, #0
    385a:	2100      	movs	r1, #0
    385c:	bd30      	pop	{r4, r5, pc}
    385e:	bf00      	nop
    3860:	fffec204 	.word	0xfffec204
    3864:	fffec200 	.word	0xfffec200

00003868 <alt_globaltmr_counter_get_low32>:
    3868:	4b01      	ldr	r3, [pc, #4]	; (3870 <alt_globaltmr_counter_get_low32+0x8>)
    386a:	6818      	ldr	r0, [r3, #0]
    386c:	4770      	bx	lr
    386e:	bf00      	nop
    3870:	fffec200 	.word	0xfffec200

00003874 <alt_globaltmr_counter_get_hi32>:
    3874:	4b01      	ldr	r3, [pc, #4]	; (387c <alt_globaltmr_counter_get_hi32+0x8>)
    3876:	6818      	ldr	r0, [r3, #0]
    3878:	4770      	bx	lr
    387a:	bf00      	nop
    387c:	fffec204 	.word	0xfffec204

00003880 <alt_globaltmr_comp_get>:
    3880:	b140      	cbz	r0, 3894 <alt_globaltmr_comp_get+0x14>
    3882:	b139      	cbz	r1, 3894 <alt_globaltmr_comp_get+0x14>
    3884:	4b05      	ldr	r3, [pc, #20]	; (389c <alt_globaltmr_comp_get+0x1c>)
    3886:	681b      	ldr	r3, [r3, #0]
    3888:	600b      	str	r3, [r1, #0]
    388a:	4b05      	ldr	r3, [pc, #20]	; (38a0 <alt_globaltmr_comp_get+0x20>)
    388c:	681b      	ldr	r3, [r3, #0]
    388e:	6003      	str	r3, [r0, #0]
    3890:	2000      	movs	r0, #0
    3892:	4770      	bx	lr
    3894:	f04f 30ff 	mov.w	r0, #4294967295
    3898:	4770      	bx	lr
    389a:	bf00      	nop
    389c:	fffec210 	.word	0xfffec210
    38a0:	fffec214 	.word	0xfffec214

000038a4 <alt_globaltmr_comp_get64>:
    38a4:	4b05      	ldr	r3, [pc, #20]	; (38bc <alt_globaltmr_comp_get64+0x18>)
    38a6:	2200      	movs	r2, #0
    38a8:	6819      	ldr	r1, [r3, #0]
    38aa:	460b      	mov	r3, r1
    38ac:	4904      	ldr	r1, [pc, #16]	; (38c0 <alt_globaltmr_comp_get64+0x1c>)
    38ae:	6808      	ldr	r0, [r1, #0]
    38b0:	ea42 0200 	orr.w	r2, r2, r0
    38b4:	4610      	mov	r0, r2
    38b6:	4619      	mov	r1, r3
    38b8:	4770      	bx	lr
    38ba:	bf00      	nop
    38bc:	fffec214 	.word	0xfffec214
    38c0:	fffec210 	.word	0xfffec210

000038c4 <alt_globaltmr_remain_get>:
    38c4:	b510      	push	{r4, lr}
    38c6:	f7ff ffed 	bl	38a4 <alt_globaltmr_comp_get64>
    38ca:	4604      	mov	r4, r0
    38cc:	f7ff ffb0 	bl	3830 <alt_globaltmr_get64>
    38d0:	1a20      	subs	r0, r4, r0
    38d2:	bd10      	pop	{r4, pc}

000038d4 <alt_globaltmr_comp_mode_start>:
    38d4:	4a03      	ldr	r2, [pc, #12]	; (38e4 <alt_globaltmr_comp_mode_start+0x10>)
    38d6:	2000      	movs	r0, #0
    38d8:	6813      	ldr	r3, [r2, #0]
    38da:	f043 0302 	orr.w	r3, r3, #2
    38de:	6013      	str	r3, [r2, #0]
    38e0:	4770      	bx	lr
    38e2:	bf00      	nop
    38e4:	fffec208 	.word	0xfffec208

000038e8 <alt_globaltmr_comp_mode_stop>:
    38e8:	4a03      	ldr	r2, [pc, #12]	; (38f8 <alt_globaltmr_comp_mode_stop+0x10>)
    38ea:	2000      	movs	r0, #0
    38ec:	6813      	ldr	r3, [r2, #0]
    38ee:	f023 0302 	bic.w	r3, r3, #2
    38f2:	6013      	str	r3, [r2, #0]
    38f4:	4770      	bx	lr
    38f6:	bf00      	nop
    38f8:	fffec208 	.word	0xfffec208

000038fc <alt_globaltmr_stop>:
    38fc:	f7ff bff4 	b.w	38e8 <alt_globaltmr_comp_mode_stop>

00003900 <alt_globaltmr_is_comp_mode>:
    3900:	4b02      	ldr	r3, [pc, #8]	; (390c <alt_globaltmr_is_comp_mode+0xc>)
    3902:	6818      	ldr	r0, [r3, #0]
    3904:	f3c0 0040 	ubfx	r0, r0, #1, #1
    3908:	4770      	bx	lr
    390a:	bf00      	nop
    390c:	fffec208 	.word	0xfffec208

00003910 <alt_globaltmr_comp_set>:
    3910:	b538      	push	{r3, r4, r5, lr}
    3912:	4605      	mov	r5, r0
    3914:	f7ff fff4 	bl	3900 <alt_globaltmr_is_comp_mode>
    3918:	4604      	mov	r4, r0
    391a:	b110      	cbz	r0, 3922 <alt_globaltmr_comp_set+0x12>
    391c:	f7ff ffe4 	bl	38e8 <alt_globaltmr_comp_mode_stop>
    3920:	b940      	cbnz	r0, 3934 <alt_globaltmr_comp_set+0x24>
    3922:	4b05      	ldr	r3, [pc, #20]	; (3938 <alt_globaltmr_comp_set+0x28>)
    3924:	6019      	str	r1, [r3, #0]
    3926:	605d      	str	r5, [r3, #4]
    3928:	b11c      	cbz	r4, 3932 <alt_globaltmr_comp_set+0x22>
    392a:	e8bd 4038 	ldmia.w	sp!, {r3, r4, r5, lr}
    392e:	f7ff bfd1 	b.w	38d4 <alt_globaltmr_comp_mode_start>
    3932:	4620      	mov	r0, r4
    3934:	bd38      	pop	{r3, r4, r5, pc}
    3936:	bf00      	nop
    3938:	fffec210 	.word	0xfffec210

0000393c <alt_globaltmr_comp_set64>:
    393c:	b538      	push	{r3, r4, r5, lr}
    393e:	4605      	mov	r5, r0
    3940:	f7ff ffde 	bl	3900 <alt_globaltmr_is_comp_mode>
    3944:	4604      	mov	r4, r0
    3946:	b110      	cbz	r0, 394e <alt_globaltmr_comp_set64+0x12>
    3948:	f7ff ffce 	bl	38e8 <alt_globaltmr_comp_mode_stop>
    394c:	b940      	cbnz	r0, 3960 <alt_globaltmr_comp_set64+0x24>
    394e:	4b05      	ldr	r3, [pc, #20]	; (3964 <alt_globaltmr_comp_set64+0x28>)
    3950:	601d      	str	r5, [r3, #0]
    3952:	6059      	str	r1, [r3, #4]
    3954:	b11c      	cbz	r4, 395e <alt_globaltmr_comp_set64+0x22>
    3956:	e8bd 4038 	ldmia.w	sp!, {r3, r4, r5, lr}
    395a:	f7ff bfbb 	b.w	38d4 <alt_globaltmr_comp_mode_start>
    395e:	4620      	mov	r0, r4
    3960:	bd38      	pop	{r3, r4, r5, pc}
    3962:	bf00      	nop
    3964:	fffec210 	.word	0xfffec210

00003968 <alt_globaltmr_prescaler_get>:
    3968:	4b02      	ldr	r3, [pc, #8]	; (3974 <alt_globaltmr_prescaler_get+0xc>)
    396a:	6818      	ldr	r0, [r3, #0]
    396c:	f3c0 2007 	ubfx	r0, r0, #8, #8
    3970:	4770      	bx	lr
    3972:	bf00      	nop
    3974:	fffec208 	.word	0xfffec208

00003978 <alt_globaltmr_prescaler_set>:
    3978:	28ff      	cmp	r0, #255	; 0xff
    397a:	bf9f      	itttt	ls
    397c:	4a05      	ldrls	r2, [pc, #20]	; (3994 <alt_globaltmr_prescaler_set+0x1c>)
    397e:	6813      	ldrls	r3, [r2, #0]
    3980:	f423 437f 	bicls.w	r3, r3, #65280	; 0xff00
    3984:	ea43 2000 	orrls.w	r0, r3, r0, lsl #8
    3988:	bf9a      	itte	ls
    398a:	6010      	strls	r0, [r2, #0]
    398c:	2000      	movls	r0, #0
    398e:	f06f 0008 	mvnhi.w	r0, #8
    3992:	4770      	bx	lr
    3994:	fffec208 	.word	0xfffec208

00003998 <alt_globaltmr_autoinc_set>:
    3998:	b510      	push	{r4, lr}
    399a:	4604      	mov	r4, r0
    399c:	f7ff ffb0 	bl	3900 <alt_globaltmr_is_comp_mode>
    39a0:	4601      	mov	r1, r0
    39a2:	b110      	cbz	r0, 39aa <alt_globaltmr_autoinc_set+0x12>
    39a4:	f7ff ffa0 	bl	38e8 <alt_globaltmr_comp_mode_stop>
    39a8:	b938      	cbnz	r0, 39ba <alt_globaltmr_autoinc_set+0x22>
    39aa:	4b04      	ldr	r3, [pc, #16]	; (39bc <alt_globaltmr_autoinc_set+0x24>)
    39ac:	601c      	str	r4, [r3, #0]
    39ae:	b119      	cbz	r1, 39b8 <alt_globaltmr_autoinc_set+0x20>
    39b0:	e8bd 4010 	ldmia.w	sp!, {r4, lr}
    39b4:	f7ff bf8e 	b.w	38d4 <alt_globaltmr_comp_mode_start>
    39b8:	4608      	mov	r0, r1
    39ba:	bd10      	pop	{r4, pc}
    39bc:	fffec218 	.word	0xfffec218

000039c0 <alt_globaltmr_autoinc_get>:
    39c0:	4b01      	ldr	r3, [pc, #4]	; (39c8 <alt_globaltmr_autoinc_get+0x8>)
    39c2:	6818      	ldr	r0, [r3, #0]
    39c4:	4770      	bx	lr
    39c6:	bf00      	nop
    39c8:	fffec218 	.word	0xfffec218

000039cc <alt_globaltmr_autoinc_mode_start>:
    39cc:	4a03      	ldr	r2, [pc, #12]	; (39dc <alt_globaltmr_autoinc_mode_start+0x10>)
    39ce:	2000      	movs	r0, #0
    39d0:	6813      	ldr	r3, [r2, #0]
    39d2:	f043 0308 	orr.w	r3, r3, #8
    39d6:	6013      	str	r3, [r2, #0]
    39d8:	4770      	bx	lr
    39da:	bf00      	nop
    39dc:	fffec208 	.word	0xfffec208

000039e0 <alt_globaltmr_autoinc_mode_stop>:
    39e0:	4a03      	ldr	r2, [pc, #12]	; (39f0 <alt_globaltmr_autoinc_mode_stop+0x10>)
    39e2:	2000      	movs	r0, #0
    39e4:	6813      	ldr	r3, [r2, #0]
    39e6:	f023 0308 	bic.w	r3, r3, #8
    39ea:	6013      	str	r3, [r2, #0]
    39ec:	4770      	bx	lr
    39ee:	bf00      	nop
    39f0:	fffec208 	.word	0xfffec208

000039f4 <alt_globaltmr_is_autoinc_mode>:
    39f4:	4b02      	ldr	r3, [pc, #8]	; (3a00 <alt_globaltmr_is_autoinc_mode+0xc>)
    39f6:	6818      	ldr	r0, [r3, #0]
    39f8:	f3c0 00c0 	ubfx	r0, r0, #3, #1
    39fc:	4770      	bx	lr
    39fe:	bf00      	nop
    3a00:	fffec208 	.word	0xfffec208

00003a04 <alt_globaltmr_maxcounter_get>:
    3a04:	f04f 30ff 	mov.w	r0, #4294967295
    3a08:	4770      	bx	lr
	...

00003a0c <alt_globaltmr_int_disable>:
    3a0c:	4a03      	ldr	r2, [pc, #12]	; (3a1c <alt_globaltmr_int_disable+0x10>)
    3a0e:	2000      	movs	r0, #0
    3a10:	6813      	ldr	r3, [r2, #0]
    3a12:	f023 0304 	bic.w	r3, r3, #4
    3a16:	6013      	str	r3, [r2, #0]
    3a18:	4770      	bx	lr
    3a1a:	bf00      	nop
    3a1c:	fffec208 	.word	0xfffec208

00003a20 <alt_globaltmr_int_enable>:
    3a20:	b508      	push	{r3, lr}
    3a22:	f7ff feb5 	bl	3790 <alt_globaltmr_is_running>
    3a26:	b130      	cbz	r0, 3a36 <alt_globaltmr_int_enable+0x16>
    3a28:	2000      	movs	r0, #0
    3a2a:	4a06      	ldr	r2, [pc, #24]	; (3a44 <alt_globaltmr_int_enable+0x24>)
    3a2c:	6813      	ldr	r3, [r2, #0]
    3a2e:	f043 0304 	orr.w	r3, r3, #4
    3a32:	6013      	str	r3, [r2, #0]
    3a34:	bd08      	pop	{r3, pc}
    3a36:	f7ff fed1 	bl	37dc <alt_globaltmr_start>
    3a3a:	2800      	cmp	r0, #0
    3a3c:	d0f4      	beq.n	3a28 <alt_globaltmr_int_enable+0x8>
    3a3e:	f04f 30ff 	mov.w	r0, #4294967295
    3a42:	bd08      	pop	{r3, pc}
    3a44:	fffec208 	.word	0xfffec208

00003a48 <alt_globaltmr_int_is_enabled>:
    3a48:	4b02      	ldr	r3, [pc, #8]	; (3a54 <alt_globaltmr_int_is_enabled+0xc>)
    3a4a:	6818      	ldr	r0, [r3, #0]
    3a4c:	f3c0 0080 	ubfx	r0, r0, #2, #1
    3a50:	4770      	bx	lr
    3a52:	bf00      	nop
    3a54:	fffec208 	.word	0xfffec208

00003a58 <alt_globaltmr_int_clear_pending>:
    3a58:	4b02      	ldr	r3, [pc, #8]	; (3a64 <alt_globaltmr_int_clear_pending+0xc>)
    3a5a:	2201      	movs	r2, #1
    3a5c:	2000      	movs	r0, #0
    3a5e:	601a      	str	r2, [r3, #0]
    3a60:	4770      	bx	lr
    3a62:	bf00      	nop
    3a64:	fffec20c 	.word	0xfffec20c

00003a68 <alt_globaltmr_int_is_pending>:
    3a68:	4b02      	ldr	r3, [pc, #8]	; (3a74 <alt_globaltmr_int_is_pending+0xc>)
    3a6a:	6818      	ldr	r0, [r3, #0]
    3a6c:	f000 0001 	and.w	r0, r0, #1
    3a70:	4770      	bx	lr
    3a72:	bf00      	nop
    3a74:	fffec20c 	.word	0xfffec20c

00003a78 <alt_globaltmr_int_if_pending_clear>:
    3a78:	4a04      	ldr	r2, [pc, #16]	; (3a8c <alt_globaltmr_int_if_pending_clear+0x14>)
    3a7a:	6813      	ldr	r3, [r2, #0]
    3a7c:	f003 0301 	and.w	r3, r3, #1
    3a80:	b2d8      	uxtb	r0, r3
    3a82:	b10b      	cbz	r3, 3a88 <alt_globaltmr_int_if_pending_clear+0x10>
    3a84:	2301      	movs	r3, #1
    3a86:	6013      	str	r3, [r2, #0]
    3a88:	4770      	bx	lr
    3a8a:	bf00      	nop
    3a8c:	fffec20c 	.word	0xfffec20c

00003a90 <get_current_cpu_num>:
    3a90:	ee10 0fb0 	mrc	15, 0, r0, cr0, cr0, {5}
    3a94:	b2c0      	uxtb	r0, r0
    3a96:	4770      	bx	lr

00003a98 <alt_int_global_uninit>:
    3a98:	2000      	movs	r0, #0
    3a9a:	4770      	bx	lr

00003a9c <alt_int_global_enable>:
    3a9c:	4b03      	ldr	r3, [pc, #12]	; (3aac <alt_int_global_enable+0x10>)
    3a9e:	2000      	movs	r0, #0
    3aa0:	681a      	ldr	r2, [r3, #0]
    3aa2:	6813      	ldr	r3, [r2, #0]
    3aa4:	f043 0301 	orr.w	r3, r3, #1
    3aa8:	6013      	str	r3, [r2, #0]
    3aaa:	4770      	bx	lr
    3aac:	0000679c 	.word	0x0000679c

00003ab0 <alt_int_global_disable>:
    3ab0:	4b03      	ldr	r3, [pc, #12]	; (3ac0 <alt_int_global_disable+0x10>)
    3ab2:	2000      	movs	r0, #0
    3ab4:	681a      	ldr	r2, [r3, #0]
    3ab6:	6813      	ldr	r3, [r2, #0]
    3ab8:	f023 0301 	bic.w	r3, r3, #1
    3abc:	6013      	str	r3, [r2, #0]
    3abe:	4770      	bx	lr
    3ac0:	0000679c 	.word	0x0000679c

00003ac4 <alt_int_global_init>:
    3ac4:	b5f8      	push	{r3, r4, r5, r6, r7, lr}
    3ac6:	4b23      	ldr	r3, [pc, #140]	; (3b54 <alt_int_global_init+0x90>)
    3ac8:	ee9f 1f10 	mrc	15, 4, r1, cr15, cr0, {0}
    3acc:	f501 5280 	add.w	r2, r1, #4096	; 0x1000
    3ad0:	4821      	ldr	r0, [pc, #132]	; (3b58 <alt_int_global_init+0x94>)
    3ad2:	601a      	str	r2, [r3, #0]
    3ad4:	f501 7280 	add.w	r2, r1, #256	; 0x100
    3ad8:	4b20      	ldr	r3, [pc, #128]	; (3b5c <alt_int_global_init+0x98>)
    3ada:	4c21      	ldr	r4, [pc, #132]	; (3b60 <alt_int_global_init+0x9c>)
    3adc:	601a      	str	r2, [r3, #0]
    3ade:	f241 0304 	movw	r3, #4100	; 0x1004
    3ae2:	58cb      	ldr	r3, [r1, r3]
    3ae4:	f3c3 1242 	ubfx	r2, r3, #5, #3
    3ae8:	f003 031f 	and.w	r3, r3, #31
    3aec:	3201      	adds	r2, #1
    3aee:	3301      	adds	r3, #1
    3af0:	6002      	str	r2, [r0, #0]
    3af2:	015b      	lsls	r3, r3, #5
    3af4:	4a1b      	ldr	r2, [pc, #108]	; (3b64 <alt_int_global_init+0xa0>)
    3af6:	481c      	ldr	r0, [pc, #112]	; (3b68 <alt_int_global_init+0xa4>)
    3af8:	6013      	str	r3, [r2, #0]
    3afa:	2300      	movs	r3, #0
    3afc:	461a      	mov	r2, r3
    3afe:	f840 2033 	str.w	r2, [r0, r3, lsl #3]
    3b02:	eb00 05c3 	add.w	r5, r0, r3, lsl #3
    3b06:	551a      	strb	r2, [r3, r4]
    3b08:	3301      	adds	r3, #1
    3b0a:	f5b3 7f80 	cmp.w	r3, #256	; 0x100
    3b0e:	606a      	str	r2, [r5, #4]
    3b10:	d1f5      	bne.n	3afe <alt_int_global_init+0x3a>
    3b12:	f7ff ffcd 	bl	3ab0 <alt_int_global_disable>
    3b16:	4812      	ldr	r0, [pc, #72]	; (3b60 <alt_int_global_init+0x9c>)
    3b18:	f501 5388 	add.w	r3, r1, #4352	; 0x1100
    3b1c:	f04f 35ff 	mov.w	r5, #4294967295
    3b20:	f501 5189 	add.w	r1, r1, #4384	; 0x1120
    3b24:	2601      	movs	r6, #1
    3b26:	601d      	str	r5, [r3, #0]
    3b28:	2200      	movs	r2, #0
    3b2a:	681f      	ldr	r7, [r3, #0]
    3b2c:	fa06 f402 	lsl.w	r4, r6, r2
    3b30:	423c      	tst	r4, r7
    3b32:	bf1e      	ittt	ne
    3b34:	5c84      	ldrbne	r4, [r0, r2]
    3b36:	f044 0401 	orrne.w	r4, r4, #1
    3b3a:	5484      	strbne	r4, [r0, r2]
    3b3c:	3201      	adds	r2, #1
    3b3e:	2a20      	cmp	r2, #32
    3b40:	d1f4      	bne.n	3b2c <alt_int_global_init+0x68>
    3b42:	f8c3 5080 	str.w	r5, [r3, #128]	; 0x80
    3b46:	3304      	adds	r3, #4
    3b48:	428b      	cmp	r3, r1
    3b4a:	f100 0020 	add.w	r0, r0, #32
    3b4e:	d1ea      	bne.n	3b26 <alt_int_global_init+0x62>
    3b50:	2000      	movs	r0, #0
    3b52:	bdf8      	pop	{r3, r4, r5, r6, r7, pc}
    3b54:	0000679c 	.word	0x0000679c
    3b58:	000067a0 	.word	0x000067a0
    3b5c:	00006798 	.word	0x00006798
    3b60:	00006fa8 	.word	0x00006fa8
    3b64:	000067a4 	.word	0x000067a4
    3b68:	000067a8 	.word	0x000067a8

00003b6c <alt_int_global_enable_ns>:
    3b6c:	4b03      	ldr	r3, [pc, #12]	; (3b7c <alt_int_global_enable_ns+0x10>)
    3b6e:	2000      	movs	r0, #0
    3b70:	681a      	ldr	r2, [r3, #0]
    3b72:	6813      	ldr	r3, [r2, #0]
    3b74:	f043 0302 	orr.w	r3, r3, #2
    3b78:	6013      	str	r3, [r2, #0]
    3b7a:	4770      	bx	lr
    3b7c:	0000679c 	.word	0x0000679c

00003b80 <alt_int_global_disable_ns>:
    3b80:	4b03      	ldr	r3, [pc, #12]	; (3b90 <alt_int_global_disable_ns+0x10>)
    3b82:	2000      	movs	r0, #0
    3b84:	681a      	ldr	r2, [r3, #0]
    3b86:	6813      	ldr	r3, [r2, #0]
    3b88:	f023 0302 	bic.w	r3, r3, #2
    3b8c:	6013      	str	r3, [r2, #0]
    3b8e:	4770      	bx	lr
    3b90:	0000679c 	.word	0x0000679c

00003b94 <alt_int_global_enable_all>:
    3b94:	4b03      	ldr	r3, [pc, #12]	; (3ba4 <alt_int_global_enable_all+0x10>)
    3b96:	2000      	movs	r0, #0
    3b98:	681a      	ldr	r2, [r3, #0]
    3b9a:	6813      	ldr	r3, [r2, #0]
    3b9c:	f043 0303 	orr.w	r3, r3, #3
    3ba0:	6013      	str	r3, [r2, #0]
    3ba2:	4770      	bx	lr
    3ba4:	0000679c 	.word	0x0000679c

00003ba8 <alt_int_global_disable_all>:
    3ba8:	4b03      	ldr	r3, [pc, #12]	; (3bb8 <alt_int_global_disable_all+0x10>)
    3baa:	2000      	movs	r0, #0
    3bac:	681a      	ldr	r2, [r3, #0]
    3bae:	6813      	ldr	r3, [r2, #0]
    3bb0:	f023 0303 	bic.w	r3, r3, #3
    3bb4:	6013      	str	r3, [r2, #0]
    3bb6:	4770      	bx	lr
    3bb8:	0000679c 	.word	0x0000679c

00003bbc <alt_int_dist_secure_enable>:
    3bbc:	28ff      	cmp	r0, #255	; 0xff
    3bbe:	b510      	push	{r4, lr}
    3bc0:	d814      	bhi.n	3bec <alt_int_dist_secure_enable+0x30>
    3bc2:	4b0c      	ldr	r3, [pc, #48]	; (3bf4 <alt_int_dist_secure_enable+0x38>)
    3bc4:	5c1b      	ldrb	r3, [r3, r0]
    3bc6:	07db      	lsls	r3, r3, #31
    3bc8:	d510      	bpl.n	3bec <alt_int_dist_secure_enable+0x30>
    3bca:	4b0b      	ldr	r3, [pc, #44]	; (3bf8 <alt_int_dist_secure_enable+0x3c>)
    3bcc:	0944      	lsrs	r4, r0, #5
    3bce:	2101      	movs	r1, #1
    3bd0:	f000 001f 	and.w	r0, r0, #31
    3bd4:	681b      	ldr	r3, [r3, #0]
    3bd6:	fa01 f000 	lsl.w	r0, r1, r0
    3bda:	3380      	adds	r3, #128	; 0x80
    3bdc:	f853 2024 	ldr.w	r2, [r3, r4, lsl #2]
    3be0:	ea22 0000 	bic.w	r0, r2, r0
    3be4:	f843 0024 	str.w	r0, [r3, r4, lsl #2]
    3be8:	2000      	movs	r0, #0
    3bea:	bd10      	pop	{r4, pc}
    3bec:	f06f 0008 	mvn.w	r0, #8
    3bf0:	bd10      	pop	{r4, pc}
    3bf2:	bf00      	nop
    3bf4:	00006fa8 	.word	0x00006fa8
    3bf8:	0000679c 	.word	0x0000679c

00003bfc <alt_int_dist_secure_disable>:
    3bfc:	28ff      	cmp	r0, #255	; 0xff
    3bfe:	b510      	push	{r4, lr}
    3c00:	d813      	bhi.n	3c2a <alt_int_dist_secure_disable+0x2e>
    3c02:	4b0b      	ldr	r3, [pc, #44]	; (3c30 <alt_int_dist_secure_disable+0x34>)
    3c04:	5c1b      	ldrb	r3, [r3, r0]
    3c06:	07db      	lsls	r3, r3, #31
    3c08:	d50f      	bpl.n	3c2a <alt_int_dist_secure_disable+0x2e>
    3c0a:	4b0a      	ldr	r3, [pc, #40]	; (3c34 <alt_int_dist_secure_disable+0x38>)
    3c0c:	0941      	lsrs	r1, r0, #5
    3c0e:	f000 001f 	and.w	r0, r0, #31
    3c12:	681a      	ldr	r2, [r3, #0]
    3c14:	2301      	movs	r3, #1
    3c16:	fa03 f000 	lsl.w	r0, r3, r0
    3c1a:	3280      	adds	r2, #128	; 0x80
    3c1c:	f852 4021 	ldr.w	r4, [r2, r1, lsl #2]
    3c20:	4320      	orrs	r0, r4
    3c22:	f842 0021 	str.w	r0, [r2, r1, lsl #2]
    3c26:	2000      	movs	r0, #0
    3c28:	bd10      	pop	{r4, pc}
    3c2a:	f06f 0008 	mvn.w	r0, #8
    3c2e:	bd10      	pop	{r4, pc}
    3c30:	00006fa8 	.word	0x00006fa8
    3c34:	0000679c 	.word	0x0000679c

00003c38 <alt_int_dist_is_secure>:
    3c38:	28ff      	cmp	r0, #255	; 0xff
    3c3a:	d813      	bhi.n	3c64 <alt_int_dist_is_secure+0x2c>
    3c3c:	4b0c      	ldr	r3, [pc, #48]	; (3c70 <alt_int_dist_is_secure+0x38>)
    3c3e:	5c1b      	ldrb	r3, [r3, r0]
    3c40:	07db      	lsls	r3, r3, #31
    3c42:	d512      	bpl.n	3c6a <alt_int_dist_is_secure+0x32>
    3c44:	4b0b      	ldr	r3, [pc, #44]	; (3c74 <alt_int_dist_is_secure+0x3c>)
    3c46:	0942      	lsrs	r2, r0, #5
    3c48:	f000 001f 	and.w	r0, r0, #31
    3c4c:	681b      	ldr	r3, [r3, #0]
    3c4e:	3380      	adds	r3, #128	; 0x80
    3c50:	f853 2022 	ldr.w	r2, [r3, r2, lsl #2]
    3c54:	2301      	movs	r3, #1
    3c56:	fa03 f000 	lsl.w	r0, r3, r0
    3c5a:	4210      	tst	r0, r2
    3c5c:	bf0c      	ite	eq
    3c5e:	4618      	moveq	r0, r3
    3c60:	2000      	movne	r0, #0
    3c62:	4770      	bx	lr
    3c64:	f06f 0008 	mvn.w	r0, #8
    3c68:	4770      	bx	lr
    3c6a:	2001      	movs	r0, #1
    3c6c:	4770      	bx	lr
    3c6e:	bf00      	nop
    3c70:	00006fa8 	.word	0x00006fa8
    3c74:	0000679c 	.word	0x0000679c

00003c78 <alt_int_dist_enable>:
    3c78:	28ff      	cmp	r0, #255	; 0xff
    3c7a:	d811      	bhi.n	3ca0 <alt_int_dist_enable+0x28>
    3c7c:	4b0a      	ldr	r3, [pc, #40]	; (3ca8 <alt_int_dist_enable+0x30>)
    3c7e:	5c1b      	ldrb	r3, [r3, r0]
    3c80:	07db      	lsls	r3, r3, #31
    3c82:	d50d      	bpl.n	3ca0 <alt_int_dist_enable+0x28>
    3c84:	4b09      	ldr	r3, [pc, #36]	; (3cac <alt_int_dist_enable+0x34>)
    3c86:	0941      	lsrs	r1, r0, #5
    3c88:	2201      	movs	r2, #1
    3c8a:	f000 001f 	and.w	r0, r0, #31
    3c8e:	681b      	ldr	r3, [r3, #0]
    3c90:	fa02 f000 	lsl.w	r0, r2, r0
    3c94:	f503 7380 	add.w	r3, r3, #256	; 0x100
    3c98:	f843 0021 	str.w	r0, [r3, r1, lsl #2]
    3c9c:	2000      	movs	r0, #0
    3c9e:	4770      	bx	lr
    3ca0:	f06f 0008 	mvn.w	r0, #8
    3ca4:	4770      	bx	lr
    3ca6:	bf00      	nop
    3ca8:	00006fa8 	.word	0x00006fa8
    3cac:	0000679c 	.word	0x0000679c

00003cb0 <alt_int_dist_disable>:
    3cb0:	28ff      	cmp	r0, #255	; 0xff
    3cb2:	d811      	bhi.n	3cd8 <alt_int_dist_disable+0x28>
    3cb4:	4b0a      	ldr	r3, [pc, #40]	; (3ce0 <alt_int_dist_disable+0x30>)
    3cb6:	5c1b      	ldrb	r3, [r3, r0]
    3cb8:	07db      	lsls	r3, r3, #31
    3cba:	d50d      	bpl.n	3cd8 <alt_int_dist_disable+0x28>
    3cbc:	4b09      	ldr	r3, [pc, #36]	; (3ce4 <alt_int_dist_disable+0x34>)
    3cbe:	0941      	lsrs	r1, r0, #5
    3cc0:	2201      	movs	r2, #1
    3cc2:	f000 001f 	and.w	r0, r0, #31
    3cc6:	681b      	ldr	r3, [r3, #0]
    3cc8:	fa02 f000 	lsl.w	r0, r2, r0
    3ccc:	f503 73c0 	add.w	r3, r3, #384	; 0x180
    3cd0:	f843 0021 	str.w	r0, [r3, r1, lsl #2]
    3cd4:	2000      	movs	r0, #0
    3cd6:	4770      	bx	lr
    3cd8:	f06f 0008 	mvn.w	r0, #8
    3cdc:	4770      	bx	lr
    3cde:	bf00      	nop
    3ce0:	00006fa8 	.word	0x00006fa8
    3ce4:	0000679c 	.word	0x0000679c

00003ce8 <alt_int_dist_is_enabled>:
    3ce8:	28ff      	cmp	r0, #255	; 0xff
    3cea:	d815      	bhi.n	3d18 <alt_int_dist_is_enabled+0x30>
    3cec:	4b0d      	ldr	r3, [pc, #52]	; (3d24 <alt_int_dist_is_enabled+0x3c>)
    3cee:	5c1b      	ldrb	r3, [r3, r0]
    3cf0:	f013 0301 	ands.w	r3, r3, #1
    3cf4:	d013      	beq.n	3d1e <alt_int_dist_is_enabled+0x36>
    3cf6:	4b0c      	ldr	r3, [pc, #48]	; (3d28 <alt_int_dist_is_enabled+0x40>)
    3cf8:	0942      	lsrs	r2, r0, #5
    3cfa:	f000 001f 	and.w	r0, r0, #31
    3cfe:	681b      	ldr	r3, [r3, #0]
    3d00:	f503 7380 	add.w	r3, r3, #256	; 0x100
    3d04:	f853 2022 	ldr.w	r2, [r3, r2, lsl #2]
    3d08:	2301      	movs	r3, #1
    3d0a:	fa03 f000 	lsl.w	r0, r3, r0
    3d0e:	4210      	tst	r0, r2
    3d10:	bf14      	ite	ne
    3d12:	4618      	movne	r0, r3
    3d14:	2000      	moveq	r0, #0
    3d16:	4770      	bx	lr
    3d18:	f06f 0008 	mvn.w	r0, #8
    3d1c:	4770      	bx	lr
    3d1e:	4618      	mov	r0, r3
    3d20:	4770      	bx	lr
    3d22:	bf00      	nop
    3d24:	00006fa8 	.word	0x00006fa8
    3d28:	0000679c 	.word	0x0000679c

00003d2c <alt_int_dist_pending_set>:
    3d2c:	28ff      	cmp	r0, #255	; 0xff
    3d2e:	d813      	bhi.n	3d58 <alt_int_dist_pending_set+0x2c>
    3d30:	4b0b      	ldr	r3, [pc, #44]	; (3d60 <alt_int_dist_pending_set+0x34>)
    3d32:	5c1b      	ldrb	r3, [r3, r0]
    3d34:	07db      	lsls	r3, r3, #31
    3d36:	d50f      	bpl.n	3d58 <alt_int_dist_pending_set+0x2c>
    3d38:	280f      	cmp	r0, #15
    3d3a:	d90d      	bls.n	3d58 <alt_int_dist_pending_set+0x2c>
    3d3c:	4b09      	ldr	r3, [pc, #36]	; (3d64 <alt_int_dist_pending_set+0x38>)
    3d3e:	0941      	lsrs	r1, r0, #5
    3d40:	2201      	movs	r2, #1
    3d42:	f000 001f 	and.w	r0, r0, #31
    3d46:	681b      	ldr	r3, [r3, #0]
    3d48:	fa02 f000 	lsl.w	r0, r2, r0
    3d4c:	f503 7300 	add.w	r3, r3, #512	; 0x200
    3d50:	f843 0021 	str.w	r0, [r3, r1, lsl #2]
    3d54:	2000      	movs	r0, #0
    3d56:	4770      	bx	lr
    3d58:	f06f 0008 	mvn.w	r0, #8
    3d5c:	4770      	bx	lr
    3d5e:	bf00      	nop
    3d60:	00006fa8 	.word	0x00006fa8
    3d64:	0000679c 	.word	0x0000679c

00003d68 <alt_int_dist_pending_clear>:
    3d68:	28ff      	cmp	r0, #255	; 0xff
    3d6a:	d813      	bhi.n	3d94 <alt_int_dist_pending_clear+0x2c>
    3d6c:	4b0b      	ldr	r3, [pc, #44]	; (3d9c <alt_int_dist_pending_clear+0x34>)
    3d6e:	5c1b      	ldrb	r3, [r3, r0]
    3d70:	07db      	lsls	r3, r3, #31
    3d72:	d50f      	bpl.n	3d94 <alt_int_dist_pending_clear+0x2c>
    3d74:	280f      	cmp	r0, #15
    3d76:	d90d      	bls.n	3d94 <alt_int_dist_pending_clear+0x2c>
    3d78:	4b09      	ldr	r3, [pc, #36]	; (3da0 <alt_int_dist_pending_clear+0x38>)
    3d7a:	0941      	lsrs	r1, r0, #5
    3d7c:	2201      	movs	r2, #1
    3d7e:	f000 001f 	and.w	r0, r0, #31
    3d82:	681b      	ldr	r3, [r3, #0]
    3d84:	fa02 f000 	lsl.w	r0, r2, r0
    3d88:	f503 7320 	add.w	r3, r3, #640	; 0x280
    3d8c:	f843 0021 	str.w	r0, [r3, r1, lsl #2]
    3d90:	2000      	movs	r0, #0
    3d92:	4770      	bx	lr
    3d94:	f06f 0008 	mvn.w	r0, #8
    3d98:	4770      	bx	lr
    3d9a:	bf00      	nop
    3d9c:	00006fa8 	.word	0x00006fa8
    3da0:	0000679c 	.word	0x0000679c

00003da4 <alt_int_dist_is_pending>:
    3da4:	28ff      	cmp	r0, #255	; 0xff
    3da6:	d815      	bhi.n	3dd4 <alt_int_dist_is_pending+0x30>
    3da8:	4b0d      	ldr	r3, [pc, #52]	; (3de0 <alt_int_dist_is_pending+0x3c>)
    3daa:	5c1b      	ldrb	r3, [r3, r0]
    3dac:	f013 0301 	ands.w	r3, r3, #1
    3db0:	d013      	beq.n	3dda <alt_int_dist_is_pending+0x36>
    3db2:	4b0c      	ldr	r3, [pc, #48]	; (3de4 <alt_int_dist_is_pending+0x40>)
    3db4:	0942      	lsrs	r2, r0, #5
    3db6:	f000 001f 	and.w	r0, r0, #31
    3dba:	681b      	ldr	r3, [r3, #0]
    3dbc:	f503 7300 	add.w	r3, r3, #512	; 0x200
    3dc0:	f853 2022 	ldr.w	r2, [r3, r2, lsl #2]
    3dc4:	2301      	movs	r3, #1
    3dc6:	fa03 f000 	lsl.w	r0, r3, r0
    3dca:	4210      	tst	r0, r2
    3dcc:	bf14      	ite	ne
    3dce:	4618      	movne	r0, r3
    3dd0:	2000      	moveq	r0, #0
    3dd2:	4770      	bx	lr
    3dd4:	f06f 0008 	mvn.w	r0, #8
    3dd8:	4770      	bx	lr
    3dda:	4618      	mov	r0, r3
    3ddc:	4770      	bx	lr
    3dde:	bf00      	nop
    3de0:	00006fa8 	.word	0x00006fa8
    3de4:	0000679c 	.word	0x0000679c

00003de8 <alt_int_dist_is_active>:
    3de8:	28ff      	cmp	r0, #255	; 0xff
    3dea:	d815      	bhi.n	3e18 <alt_int_dist_is_active+0x30>
    3dec:	4b0d      	ldr	r3, [pc, #52]	; (3e24 <alt_int_dist_is_active+0x3c>)
    3dee:	5c1b      	ldrb	r3, [r3, r0]
    3df0:	f013 0301 	ands.w	r3, r3, #1
    3df4:	d013      	beq.n	3e1e <alt_int_dist_is_active+0x36>
    3df6:	4b0c      	ldr	r3, [pc, #48]	; (3e28 <alt_int_dist_is_active+0x40>)
    3df8:	0942      	lsrs	r2, r0, #5
    3dfa:	f000 001f 	and.w	r0, r0, #31
    3dfe:	681b      	ldr	r3, [r3, #0]
    3e00:	f503 7340 	add.w	r3, r3, #768	; 0x300
    3e04:	f853 2022 	ldr.w	r2, [r3, r2, lsl #2]
    3e08:	2301      	movs	r3, #1
    3e0a:	fa03 f000 	lsl.w	r0, r3, r0
    3e0e:	4210      	tst	r0, r2
    3e10:	bf14      	ite	ne
    3e12:	4618      	movne	r0, r3
    3e14:	2000      	moveq	r0, #0
    3e16:	4770      	bx	lr
    3e18:	f06f 0008 	mvn.w	r0, #8
    3e1c:	4770      	bx	lr
    3e1e:	4618      	mov	r0, r3
    3e20:	4770      	bx	lr
    3e22:	bf00      	nop
    3e24:	00006fa8 	.word	0x00006fa8
    3e28:	0000679c 	.word	0x0000679c

00003e2c <alt_int_dist_priority_get>:
    3e2c:	28ff      	cmp	r0, #255	; 0xff
    3e2e:	d80c      	bhi.n	3e4a <alt_int_dist_priority_get+0x1e>
    3e30:	4b07      	ldr	r3, [pc, #28]	; (3e50 <alt_int_dist_priority_get+0x24>)
    3e32:	5c1b      	ldrb	r3, [r3, r0]
    3e34:	f013 0301 	ands.w	r3, r3, #1
    3e38:	bf1f      	itttt	ne
    3e3a:	4b06      	ldrne	r3, [pc, #24]	; (3e54 <alt_int_dist_priority_get+0x28>)
    3e3c:	681b      	ldrne	r3, [r3, #0]
    3e3e:	f503 6380 	addne.w	r3, r3, #1024	; 0x400
    3e42:	5c1b      	ldrbne	r3, [r3, r0]
    3e44:	2000      	movs	r0, #0
    3e46:	600b      	str	r3, [r1, #0]
    3e48:	4770      	bx	lr
    3e4a:	f06f 0008 	mvn.w	r0, #8
    3e4e:	4770      	bx	lr
    3e50:	00006fa8 	.word	0x00006fa8
    3e54:	0000679c 	.word	0x0000679c

00003e58 <alt_int_dist_priority_set>:
    3e58:	28ff      	cmp	r0, #255	; 0xff
    3e5a:	d80d      	bhi.n	3e78 <alt_int_dist_priority_set+0x20>
    3e5c:	4b08      	ldr	r3, [pc, #32]	; (3e80 <alt_int_dist_priority_set+0x28>)
    3e5e:	5c1b      	ldrb	r3, [r3, r0]
    3e60:	07db      	lsls	r3, r3, #31
    3e62:	d509      	bpl.n	3e78 <alt_int_dist_priority_set+0x20>
    3e64:	29ff      	cmp	r1, #255	; 0xff
    3e66:	d807      	bhi.n	3e78 <alt_int_dist_priority_set+0x20>
    3e68:	4b06      	ldr	r3, [pc, #24]	; (3e84 <alt_int_dist_priority_set+0x2c>)
    3e6a:	b2c9      	uxtb	r1, r1
    3e6c:	681b      	ldr	r3, [r3, #0]
    3e6e:	f503 6380 	add.w	r3, r3, #1024	; 0x400
    3e72:	5419      	strb	r1, [r3, r0]
    3e74:	2000      	movs	r0, #0
    3e76:	4770      	bx	lr
    3e78:	f06f 0008 	mvn.w	r0, #8
    3e7c:	4770      	bx	lr
    3e7e:	bf00      	nop
    3e80:	00006fa8 	.word	0x00006fa8
    3e84:	0000679c 	.word	0x0000679c

00003e88 <alt_int_dist_target_get>:
    3e88:	28ff      	cmp	r0, #255	; 0xff
    3e8a:	d80c      	bhi.n	3ea6 <alt_int_dist_target_get+0x1e>
    3e8c:	4b07      	ldr	r3, [pc, #28]	; (3eac <alt_int_dist_target_get+0x24>)
    3e8e:	5c1b      	ldrb	r3, [r3, r0]
    3e90:	f013 0301 	ands.w	r3, r3, #1
    3e94:	bf1f      	itttt	ne
    3e96:	4b06      	ldrne	r3, [pc, #24]	; (3eb0 <alt_int_dist_target_get+0x28>)
    3e98:	681b      	ldrne	r3, [r3, #0]
    3e9a:	f503 6300 	addne.w	r3, r3, #2048	; 0x800
    3e9e:	5c1b      	ldrbne	r3, [r3, r0]
    3ea0:	2000      	movs	r0, #0
    3ea2:	600b      	str	r3, [r1, #0]
    3ea4:	4770      	bx	lr
    3ea6:	f06f 0008 	mvn.w	r0, #8
    3eaa:	4770      	bx	lr
    3eac:	00006fa8 	.word	0x00006fa8
    3eb0:	0000679c 	.word	0x0000679c

00003eb4 <alt_int_dist_target_set>:
    3eb4:	28ff      	cmp	r0, #255	; 0xff
    3eb6:	d81e      	bhi.n	3ef6 <alt_int_dist_target_set+0x42>
    3eb8:	4b10      	ldr	r3, [pc, #64]	; (3efc <alt_int_dist_target_set+0x48>)
    3eba:	5c1b      	ldrb	r3, [r3, r0]
    3ebc:	07db      	lsls	r3, r3, #31
    3ebe:	d51a      	bpl.n	3ef6 <alt_int_dist_target_set+0x42>
    3ec0:	4a0f      	ldr	r2, [pc, #60]	; (3f00 <alt_int_dist_target_set+0x4c>)
    3ec2:	2301      	movs	r3, #1
    3ec4:	6812      	ldr	r2, [r2, #0]
    3ec6:	fa03 f202 	lsl.w	r2, r3, r2
    3eca:	428a      	cmp	r2, r1
    3ecc:	d809      	bhi.n	3ee2 <alt_int_dist_target_set+0x2e>
    3ece:	ee10 2fb0 	mrc	15, 0, r2, cr0, cr0, {5}
    3ed2:	b2d2      	uxtb	r2, r2
    3ed4:	4093      	lsls	r3, r2
    3ed6:	4299      	cmp	r1, r3
    3ed8:	bf14      	ite	ne
    3eda:	f06f 0008 	mvnne.w	r0, #8
    3ede:	2000      	moveq	r0, #0
    3ee0:	4770      	bx	lr
    3ee2:	281f      	cmp	r0, #31
    3ee4:	d907      	bls.n	3ef6 <alt_int_dist_target_set+0x42>
    3ee6:	4b07      	ldr	r3, [pc, #28]	; (3f04 <alt_int_dist_target_set+0x50>)
    3ee8:	b2c9      	uxtb	r1, r1
    3eea:	681b      	ldr	r3, [r3, #0]
    3eec:	f503 6300 	add.w	r3, r3, #2048	; 0x800
    3ef0:	5419      	strb	r1, [r3, r0]
    3ef2:	2000      	movs	r0, #0
    3ef4:	4770      	bx	lr
    3ef6:	f06f 0008 	mvn.w	r0, #8
    3efa:	4770      	bx	lr
    3efc:	00006fa8 	.word	0x00006fa8
    3f00:	000067a0 	.word	0x000067a0
    3f04:	0000679c 	.word	0x0000679c

00003f08 <alt_int_dist_trigger_get>:
    3f08:	28ff      	cmp	r0, #255	; 0xff
    3f0a:	d821      	bhi.n	3f50 <alt_int_dist_trigger_get+0x48>
    3f0c:	4b12      	ldr	r3, [pc, #72]	; (3f58 <alt_int_dist_trigger_get+0x50>)
    3f0e:	5c1b      	ldrb	r3, [r3, r0]
    3f10:	f013 0301 	ands.w	r3, r3, #1
    3f14:	d103      	bne.n	3f1e <alt_int_dist_trigger_get+0x16>
    3f16:	2204      	movs	r2, #4
    3f18:	600a      	str	r2, [r1, #0]
    3f1a:	2000      	movs	r0, #0
    3f1c:	4770      	bx	lr
    3f1e:	280f      	cmp	r0, #15
    3f20:	d802      	bhi.n	3f28 <alt_int_dist_trigger_get+0x20>
    3f22:	2302      	movs	r3, #2
    3f24:	600b      	str	r3, [r1, #0]
    3f26:	e7f8      	b.n	3f1a <alt_int_dist_trigger_get+0x12>
    3f28:	4b0c      	ldr	r3, [pc, #48]	; (3f5c <alt_int_dist_trigger_get+0x54>)
    3f2a:	0902      	lsrs	r2, r0, #4
    3f2c:	f000 000f 	and.w	r0, r0, #15
    3f30:	0040      	lsls	r0, r0, #1
    3f32:	681b      	ldr	r3, [r3, #0]
    3f34:	3001      	adds	r0, #1
    3f36:	f503 6340 	add.w	r3, r3, #3072	; 0xc00
    3f3a:	f853 3022 	ldr.w	r3, [r3, r2, lsl #2]
    3f3e:	2201      	movs	r2, #1
    3f40:	fa02 f000 	lsl.w	r0, r2, r0
    3f44:	4018      	ands	r0, r3
    3f46:	f04f 0300 	mov.w	r3, #0
    3f4a:	d1eb      	bne.n	3f24 <alt_int_dist_trigger_get+0x1c>
    3f4c:	600a      	str	r2, [r1, #0]
    3f4e:	4770      	bx	lr
    3f50:	f06f 0008 	mvn.w	r0, #8
    3f54:	4770      	bx	lr
    3f56:	bf00      	nop
    3f58:	00006fa8 	.word	0x00006fa8
    3f5c:	0000679c 	.word	0x0000679c

00003f60 <alt_int_dist_trigger_set>:
    3f60:	28ff      	cmp	r0, #255	; 0xff
    3f62:	b510      	push	{r4, lr}
    3f64:	d838      	bhi.n	3fd8 <alt_int_dist_trigger_set+0x78>
    3f66:	4b24      	ldr	r3, [pc, #144]	; (3ff8 <alt_int_dist_trigger_set+0x98>)
    3f68:	5c1b      	ldrb	r3, [r3, r0]
    3f6a:	07db      	lsls	r3, r3, #31
    3f6c:	d534      	bpl.n	3fd8 <alt_int_dist_trigger_set+0x78>
    3f6e:	280f      	cmp	r0, #15
    3f70:	d806      	bhi.n	3f80 <alt_int_dist_trigger_set+0x20>
    3f72:	3902      	subs	r1, #2
    3f74:	2901      	cmp	r1, #1
    3f76:	bf8c      	ite	hi
    3f78:	f06f 0008 	mvnhi.w	r0, #8
    3f7c:	2000      	movls	r0, #0
    3f7e:	bd10      	pop	{r4, pc}
    3f80:	f000 030f 	and.w	r3, r0, #15
    3f84:	2903      	cmp	r1, #3
    3f86:	ea4f 0343 	mov.w	r3, r3, lsl #1
    3f8a:	ea4f 1410 	mov.w	r4, r0, lsr #4
    3f8e:	f103 0301 	add.w	r3, r3, #1
    3f92:	d11e      	bne.n	3fd2 <alt_int_dist_trigger_set+0x72>
    3f94:	2828      	cmp	r0, #40	; 0x28
    3f96:	d922      	bls.n	3fde <alt_int_dist_trigger_set+0x7e>
    3f98:	282f      	cmp	r0, #47	; 0x2f
    3f9a:	d90b      	bls.n	3fb4 <alt_int_dist_trigger_set+0x54>
    3f9c:	2838      	cmp	r0, #56	; 0x38
    3f9e:	d91e      	bls.n	3fde <alt_int_dist_trigger_set+0x7e>
    3fa0:	283f      	cmp	r0, #63	; 0x3f
    3fa2:	d907      	bls.n	3fb4 <alt_int_dist_trigger_set+0x54>
    3fa4:	2845      	cmp	r0, #69	; 0x45
    3fa6:	d91a      	bls.n	3fde <alt_int_dist_trigger_set+0x7e>
    3fa8:	f1a0 0246 	sub.w	r2, r0, #70	; 0x46
    3fac:	2a01      	cmp	r2, #1
    3fae:	d901      	bls.n	3fb4 <alt_int_dist_trigger_set+0x54>
    3fb0:	2887      	cmp	r0, #135	; 0x87
    3fb2:	d911      	bls.n	3fd8 <alt_int_dist_trigger_set+0x78>
    3fb4:	4a11      	ldr	r2, [pc, #68]	; (3ffc <alt_int_dist_trigger_set+0x9c>)
    3fb6:	2001      	movs	r0, #1
    3fb8:	fa00 f303 	lsl.w	r3, r0, r3
    3fbc:	6812      	ldr	r2, [r2, #0]
    3fbe:	f502 6240 	add.w	r2, r2, #3072	; 0xc00
    3fc2:	f852 1024 	ldr.w	r1, [r2, r4, lsl #2]
    3fc6:	ea21 0303 	bic.w	r3, r1, r3
    3fca:	f842 3024 	str.w	r3, [r2, r4, lsl #2]
    3fce:	2000      	movs	r0, #0
    3fd0:	bd10      	pop	{r4, pc}
    3fd2:	b121      	cbz	r1, 3fde <alt_int_dist_trigger_set+0x7e>
    3fd4:	2901      	cmp	r1, #1
    3fd6:	d0ed      	beq.n	3fb4 <alt_int_dist_trigger_set+0x54>
    3fd8:	f06f 0008 	mvn.w	r0, #8
    3fdc:	bd10      	pop	{r4, pc}
    3fde:	4a07      	ldr	r2, [pc, #28]	; (3ffc <alt_int_dist_trigger_set+0x9c>)
    3fe0:	6811      	ldr	r1, [r2, #0]
    3fe2:	2201      	movs	r2, #1
    3fe4:	fa02 f303 	lsl.w	r3, r2, r3
    3fe8:	f501 6140 	add.w	r1, r1, #3072	; 0xc00
    3fec:	f851 0024 	ldr.w	r0, [r1, r4, lsl #2]
    3ff0:	4303      	orrs	r3, r0
    3ff2:	f841 3024 	str.w	r3, [r1, r4, lsl #2]
    3ff6:	e7ea      	b.n	3fce <alt_int_dist_trigger_set+0x6e>
    3ff8:	00006fa8 	.word	0x00006fa8
    3ffc:	0000679c 	.word	0x0000679c

00004000 <alt_int_sgi_trigger>:
    4000:	b530      	push	{r4, r5, lr}
    4002:	4c13      	ldr	r4, [pc, #76]	; (4050 <alt_int_sgi_trigger+0x50>)
    4004:	6825      	ldr	r5, [r4, #0]
    4006:	2401      	movs	r4, #1
    4008:	40ac      	lsls	r4, r5
    400a:	4294      	cmp	r4, r2
    400c:	d906      	bls.n	401c <alt_int_sgi_trigger+0x1c>
    400e:	280f      	cmp	r0, #15
    4010:	d804      	bhi.n	401c <alt_int_sgi_trigger+0x1c>
    4012:	2901      	cmp	r1, #1
    4014:	d005      	beq.n	4022 <alt_int_sgi_trigger+0x22>
    4016:	d318      	bcc.n	404a <alt_int_sgi_trigger+0x4a>
    4018:	2902      	cmp	r1, #2
    401a:	d013      	beq.n	4044 <alt_int_sgi_trigger+0x44>
    401c:	f06f 0008 	mvn.w	r0, #8
    4020:	bd30      	pop	{r4, r5, pc}
    4022:	f04f 7180 	mov.w	r1, #16777216	; 0x1000000
    4026:	2b00      	cmp	r3, #0
    4028:	4b0a      	ldr	r3, [pc, #40]	; (4054 <alt_int_sgi_trigger+0x54>)
    402a:	ea40 4002 	orr.w	r0, r0, r2, lsl #16
    402e:	bf14      	ite	ne
    4030:	2400      	movne	r4, #0
    4032:	f44f 4400 	moveq.w	r4, #32768	; 0x8000
    4036:	681b      	ldr	r3, [r3, #0]
    4038:	4308      	orrs	r0, r1
    403a:	4320      	orrs	r0, r4
    403c:	f8c3 0f00 	str.w	r0, [r3, #3840]	; 0xf00
    4040:	2000      	movs	r0, #0
    4042:	bd30      	pop	{r4, r5, pc}
    4044:	f04f 7100 	mov.w	r1, #33554432	; 0x2000000
    4048:	e7ed      	b.n	4026 <alt_int_sgi_trigger+0x26>
    404a:	2100      	movs	r1, #0
    404c:	e7eb      	b.n	4026 <alt_int_sgi_trigger+0x26>
    404e:	bf00      	nop
    4050:	000067a0 	.word	0x000067a0
    4054:	0000679c 	.word	0x0000679c

00004058 <alt_int_cpu_init>:
    4058:	ee10 0fb0 	mrc	15, 0, r0, cr0, cr0, {5}
    405c:	f010 00ff 	ands.w	r0, r0, #255	; 0xff
    4060:	d116      	bne.n	4090 <alt_int_cpu_init+0x38>
    4062:	f44f 3280 	mov.w	r2, #65536	; 0x10000
    4066:	f3ef 8300 	mrs	r3, CPSR
    406a:	f04f 01d2 	mov.w	r1, #210	; 0xd2
    406e:	f381 8100 	msr	CPSR_c, r1
    4072:	4695      	mov	sp, r2
    4074:	f383 8100 	msr	CPSR_c, r3
    4078:	ee11 3f10 	mrc	15, 0, r3, cr1, cr0, {0}
    407c:	f423 5300 	bic.w	r3, r3, #8192	; 0x2000
    4080:	ee01 3f10 	mcr	15, 0, r3, cr1, cr0, {0}
    4084:	4b04      	ldr	r3, [pc, #16]	; (4098 <alt_int_cpu_init+0x40>)
    4086:	22ff      	movs	r2, #255	; 0xff
    4088:	681b      	ldr	r3, [r3, #0]
    408a:	605a      	str	r2, [r3, #4]
    408c:	6098      	str	r0, [r3, #8]
    408e:	4770      	bx	lr
    4090:	f04f 30ff 	mov.w	r0, #4294967295
    4094:	4770      	bx	lr
    4096:	bf00      	nop
    4098:	00006798 	.word	0x00006798

0000409c <alt_int_cpu_uninit>:
    409c:	2000      	movs	r0, #0
    409e:	4770      	bx	lr

000040a0 <alt_int_cpu_enable>:
    40a0:	4b04      	ldr	r3, [pc, #16]	; (40b4 <alt_int_cpu_enable+0x14>)
    40a2:	681a      	ldr	r2, [r3, #0]
    40a4:	6813      	ldr	r3, [r2, #0]
    40a6:	f043 0301 	orr.w	r3, r3, #1
    40aa:	6013      	str	r3, [r2, #0]
    40ac:	b662      	cpsie	i
    40ae:	2000      	movs	r0, #0
    40b0:	4770      	bx	lr
    40b2:	bf00      	nop
    40b4:	00006798 	.word	0x00006798

000040b8 <alt_int_cpu_disable>:
    40b8:	4b04      	ldr	r3, [pc, #16]	; (40cc <alt_int_cpu_disable+0x14>)
    40ba:	681a      	ldr	r2, [r3, #0]
    40bc:	6813      	ldr	r3, [r2, #0]
    40be:	f023 0301 	bic.w	r3, r3, #1
    40c2:	6013      	str	r3, [r2, #0]
    40c4:	b672      	cpsid	i
    40c6:	2000      	movs	r0, #0
    40c8:	4770      	bx	lr
    40ca:	bf00      	nop
    40cc:	00006798 	.word	0x00006798

000040d0 <alt_int_cpu_enable_ns>:
    40d0:	4b03      	ldr	r3, [pc, #12]	; (40e0 <alt_int_cpu_enable_ns+0x10>)
    40d2:	2000      	movs	r0, #0
    40d4:	681a      	ldr	r2, [r3, #0]
    40d6:	6813      	ldr	r3, [r2, #0]
    40d8:	f043 0302 	orr.w	r3, r3, #2
    40dc:	6013      	str	r3, [r2, #0]
    40de:	4770      	bx	lr
    40e0:	00006798 	.word	0x00006798

000040e4 <alt_int_cpu_disable_ns>:
    40e4:	4b03      	ldr	r3, [pc, #12]	; (40f4 <alt_int_cpu_disable_ns+0x10>)
    40e6:	2000      	movs	r0, #0
    40e8:	681a      	ldr	r2, [r3, #0]
    40ea:	6813      	ldr	r3, [r2, #0]
    40ec:	f023 0302 	bic.w	r3, r3, #2
    40f0:	6013      	str	r3, [r2, #0]
    40f2:	4770      	bx	lr
    40f4:	00006798 	.word	0x00006798

000040f8 <alt_int_cpu_enable_all>:
    40f8:	4b03      	ldr	r3, [pc, #12]	; (4108 <alt_int_cpu_enable_all+0x10>)
    40fa:	2000      	movs	r0, #0
    40fc:	681a      	ldr	r2, [r3, #0]
    40fe:	6813      	ldr	r3, [r2, #0]
    4100:	f043 0303 	orr.w	r3, r3, #3
    4104:	6013      	str	r3, [r2, #0]
    4106:	4770      	bx	lr
    4108:	00006798 	.word	0x00006798

0000410c <alt_int_cpu_disable_all>:
    410c:	4b03      	ldr	r3, [pc, #12]	; (411c <alt_int_cpu_disable_all+0x10>)
    410e:	2000      	movs	r0, #0
    4110:	681a      	ldr	r2, [r3, #0]
    4112:	6813      	ldr	r3, [r2, #0]
    4114:	f023 0303 	bic.w	r3, r3, #3
    4118:	6013      	str	r3, [r2, #0]
    411a:	4770      	bx	lr
    411c:	00006798 	.word	0x00006798

00004120 <alt_int_cpu_config_get>:
    4120:	4b08      	ldr	r3, [pc, #32]	; (4144 <alt_int_cpu_config_get+0x24>)
    4122:	b510      	push	{r4, lr}
    4124:	681b      	ldr	r3, [r3, #0]
    4126:	681b      	ldr	r3, [r3, #0]
    4128:	b110      	cbz	r0, 4130 <alt_int_cpu_config_get+0x10>
    412a:	f3c3 1400 	ubfx	r4, r3, #4, #1
    412e:	7004      	strb	r4, [r0, #0]
    4130:	b111      	cbz	r1, 4138 <alt_int_cpu_config_get+0x18>
    4132:	f3c3 00c0 	ubfx	r0, r3, #3, #1
    4136:	7008      	strb	r0, [r1, #0]
    4138:	b112      	cbz	r2, 4140 <alt_int_cpu_config_get+0x20>
    413a:	f3c3 0380 	ubfx	r3, r3, #2, #1
    413e:	7013      	strb	r3, [r2, #0]
    4140:	2000      	movs	r0, #0
    4142:	bd10      	pop	{r4, pc}
    4144:	00006798 	.word	0x00006798

00004148 <alt_int_cpu_config_set>:
    4148:	4b0c      	ldr	r3, [pc, #48]	; (417c <alt_int_cpu_config_set+0x34>)
    414a:	b510      	push	{r4, lr}
    414c:	681c      	ldr	r4, [r3, #0]
    414e:	6823      	ldr	r3, [r4, #0]
    4150:	b150      	cbz	r0, 4168 <alt_int_cpu_config_set+0x20>
    4152:	f043 0310 	orr.w	r3, r3, #16
    4156:	b151      	cbz	r1, 416e <alt_int_cpu_config_set+0x26>
    4158:	f043 0308 	orr.w	r3, r3, #8
    415c:	b152      	cbz	r2, 4174 <alt_int_cpu_config_set+0x2c>
    415e:	f043 0304 	orr.w	r3, r3, #4
    4162:	6023      	str	r3, [r4, #0]
    4164:	2000      	movs	r0, #0
    4166:	bd10      	pop	{r4, pc}
    4168:	f023 0310 	bic.w	r3, r3, #16
    416c:	e7f3      	b.n	4156 <alt_int_cpu_config_set+0xe>
    416e:	f023 0308 	bic.w	r3, r3, #8
    4172:	e7f3      	b.n	415c <alt_int_cpu_config_set+0x14>
    4174:	f023 0304 	bic.w	r3, r3, #4
    4178:	e7f3      	b.n	4162 <alt_int_cpu_config_set+0x1a>
    417a:	bf00      	nop
    417c:	00006798 	.word	0x00006798

00004180 <alt_int_cpu_priority_mask_get>:
    4180:	4b01      	ldr	r3, [pc, #4]	; (4188 <alt_int_cpu_priority_mask_get+0x8>)
    4182:	681b      	ldr	r3, [r3, #0]
    4184:	6858      	ldr	r0, [r3, #4]
    4186:	4770      	bx	lr
    4188:	00006798 	.word	0x00006798

0000418c <alt_int_cpu_priority_mask_set>:
    418c:	28ff      	cmp	r0, #255	; 0xff
    418e:	bf9f      	itttt	ls
    4190:	4b03      	ldrls	r3, [pc, #12]	; (41a0 <alt_int_cpu_priority_mask_set+0x14>)
    4192:	681b      	ldrls	r3, [r3, #0]
    4194:	6058      	strls	r0, [r3, #4]
    4196:	2000      	movls	r0, #0
    4198:	bf88      	it	hi
    419a:	f06f 0008 	mvnhi.w	r0, #8
    419e:	4770      	bx	lr
    41a0:	00006798 	.word	0x00006798

000041a4 <alt_int_cpu_binary_point_get>:
    41a4:	4b01      	ldr	r3, [pc, #4]	; (41ac <alt_int_cpu_binary_point_get+0x8>)
    41a6:	681b      	ldr	r3, [r3, #0]
    41a8:	6898      	ldr	r0, [r3, #8]
    41aa:	4770      	bx	lr
    41ac:	00006798 	.word	0x00006798

000041b0 <alt_int_cpu_binary_point_set>:
    41b0:	2807      	cmp	r0, #7
    41b2:	bf9f      	itttt	ls
    41b4:	4b03      	ldrls	r3, [pc, #12]	; (41c4 <alt_int_cpu_binary_point_set+0x14>)
    41b6:	681b      	ldrls	r3, [r3, #0]
    41b8:	6098      	strls	r0, [r3, #8]
    41ba:	2000      	movls	r0, #0
    41bc:	bf88      	it	hi
    41be:	f06f 0008 	mvnhi.w	r0, #8
    41c2:	4770      	bx	lr
    41c4:	00006798 	.word	0x00006798

000041c8 <alt_int_cpu_binary_point_get_ns>:
    41c8:	4b01      	ldr	r3, [pc, #4]	; (41d0 <alt_int_cpu_binary_point_get_ns+0x8>)
    41ca:	681b      	ldr	r3, [r3, #0]
    41cc:	69d8      	ldr	r0, [r3, #28]
    41ce:	4770      	bx	lr
    41d0:	00006798 	.word	0x00006798

000041d4 <alt_int_cpu_binary_point_set_ns>:
    41d4:	2807      	cmp	r0, #7
    41d6:	bf9f      	itttt	ls
    41d8:	4b03      	ldrls	r3, [pc, #12]	; (41e8 <alt_int_cpu_binary_point_set_ns+0x14>)
    41da:	681b      	ldrls	r3, [r3, #0]
    41dc:	61d8      	strls	r0, [r3, #28]
    41de:	2000      	movls	r0, #0
    41e0:	bf88      	it	hi
    41e2:	f06f 0008 	mvnhi.w	r0, #8
    41e6:	4770      	bx	lr
    41e8:	00006798 	.word	0x00006798

000041ec <alt_int_isr_register>:
    41ec:	28ff      	cmp	r0, #255	; 0xff
    41ee:	bf9f      	itttt	ls
    41f0:	4b05      	ldrls	r3, [pc, #20]	; (4208 <alt_int_isr_register+0x1c>)
    41f2:	f843 1030 	strls.w	r1, [r3, r0, lsl #3]
    41f6:	eb03 03c0 	addls.w	r3, r3, r0, lsl #3
    41fa:	2000      	movls	r0, #0
    41fc:	bf8c      	ite	hi
    41fe:	f06f 0008 	mvnhi.w	r0, #8
    4202:	605a      	strls	r2, [r3, #4]
    4204:	4770      	bx	lr
    4206:	bf00      	nop
    4208:	000067a8 	.word	0x000067a8

0000420c <alt_int_isr_unregister>:
    420c:	28ff      	cmp	r0, #255	; 0xff
    420e:	bf9f      	itttt	ls
    4210:	4a05      	ldrls	r2, [pc, #20]	; (4228 <alt_int_isr_unregister+0x1c>)
    4212:	2300      	movls	r3, #0
    4214:	f842 3030 	strls.w	r3, [r2, r0, lsl #3]
    4218:	eb02 02c0 	addls.w	r2, r2, r0, lsl #3
    421c:	bf96      	itet	ls
    421e:	4618      	movls	r0, r3
    4220:	f06f 0008 	mvnhi.w	r0, #8
    4224:	6053      	strls	r3, [r2, #4]
    4226:	4770      	bx	lr
    4228:	000067a8 	.word	0x000067a8

0000422c <alt_int_util_cpu_count>:
    422c:	4b01      	ldr	r3, [pc, #4]	; (4234 <alt_int_util_cpu_count+0x8>)
    422e:	6818      	ldr	r0, [r3, #0]
    4230:	4770      	bx	lr
    4232:	bf00      	nop
    4234:	000067a0 	.word	0x000067a0

00004238 <alt_int_util_int_count>:
    4238:	4b01      	ldr	r3, [pc, #4]	; (4240 <alt_int_util_int_count+0x8>)
    423a:	6818      	ldr	r0, [r3, #0]
    423c:	4770      	bx	lr
    423e:	bf00      	nop
    4240:	000067a4 	.word	0x000067a4

00004244 <alt_int_util_cpu_current>:
    4244:	ee10 3fb0 	mrc	15, 0, r3, cr0, cr0, {5}
    4248:	b2db      	uxtb	r3, r3
    424a:	2001      	movs	r0, #1
    424c:	4098      	lsls	r0, r3
    424e:	4770      	bx	lr

00004250 <alt_int_handler_irq>:
    4250:	b570      	push	{r4, r5, r6, lr}
    4252:	4c0e      	ldr	r4, [pc, #56]	; (428c <alt_int_handler_irq+0x3c>)
    4254:	6822      	ldr	r2, [r4, #0]
    4256:	68d6      	ldr	r6, [r2, #12]
    4258:	f3c6 0509 	ubfx	r5, r6, #0, #10
    425c:	2dff      	cmp	r5, #255	; 0xff
    425e:	d80b      	bhi.n	4278 <alt_int_handler_irq+0x28>
    4260:	4b0b      	ldr	r3, [pc, #44]	; (4290 <alt_int_handler_irq+0x40>)
    4262:	f853 2035 	ldr.w	r2, [r3, r5, lsl #3]
    4266:	b122      	cbz	r2, 4272 <alt_int_handler_irq+0x22>
    4268:	eb03 05c5 	add.w	r5, r3, r5, lsl #3
    426c:	4630      	mov	r0, r6
    426e:	6869      	ldr	r1, [r5, #4]
    4270:	4790      	blx	r2
    4272:	6823      	ldr	r3, [r4, #0]
    4274:	611e      	str	r6, [r3, #16]
    4276:	bd70      	pop	{r4, r5, r6, pc}
    4278:	4806      	ldr	r0, [pc, #24]	; (4294 <alt_int_handler_irq+0x44>)
    427a:	f7fb ffcc 	bl	216 <puts>
    427e:	4628      	mov	r0, r5
    4280:	f7fb ff8a 	bl	198 <putHexa32>
    4284:	4804      	ldr	r0, [pc, #16]	; (4298 <alt_int_handler_irq+0x48>)
    4286:	f7fb ffc6 	bl	216 <puts>
    428a:	e7f2      	b.n	4272 <alt_int_handler_irq+0x22>
    428c:	00006798 	.word	0x00006798
    4290:	000067a8 	.word	0x000067a8
    4294:	00005ef9 	.word	0x00005ef9
    4298:	00005ef5 	.word	0x00005ef5

0000429c <alt_gpt_all_tmr_uninit>:
    429c:	4a0a      	ldr	r2, [pc, #40]	; (42c8 <alt_gpt_all_tmr_uninit+0x2c>)
    429e:	2000      	movs	r0, #0
    42a0:	2101      	movs	r1, #1
    42a2:	6813      	ldr	r3, [r2, #0]
    42a4:	f443 6370 	orr.w	r3, r3, #3840	; 0xf00
    42a8:	6013      	str	r3, [r2, #0]
    42aa:	4a08      	ldr	r2, [pc, #32]	; (42cc <alt_gpt_all_tmr_uninit+0x30>)
    42ac:	6813      	ldr	r3, [r2, #0]
    42ae:	f023 0305 	bic.w	r3, r3, #5
    42b2:	6013      	str	r3, [r2, #0]
    42b4:	4b06      	ldr	r3, [pc, #24]	; (42d0 <alt_gpt_all_tmr_uninit+0x34>)
    42b6:	6018      	str	r0, [r3, #0]
    42b8:	60d9      	str	r1, [r3, #12]
    42ba:	6813      	ldr	r3, [r2, #0]
    42bc:	f423 437f 	bic.w	r3, r3, #65280	; 0xff00
    42c0:	f023 0307 	bic.w	r3, r3, #7
    42c4:	6013      	str	r3, [r2, #0]
    42c6:	4770      	bx	lr
    42c8:	ffd05014 	.word	0xffd05014
    42cc:	fffec608 	.word	0xfffec608
    42d0:	fffec600 	.word	0xfffec600

000042d4 <alt_gpt_all_tmr_init>:
    42d4:	b508      	push	{r3, lr}
    42d6:	f7ff ffe1 	bl	429c <alt_gpt_all_tmr_uninit>
    42da:	2000      	movs	r0, #0
    42dc:	4a02      	ldr	r2, [pc, #8]	; (42e8 <alt_gpt_all_tmr_init+0x14>)
    42de:	6813      	ldr	r3, [r2, #0]
    42e0:	f423 6370 	bic.w	r3, r3, #3840	; 0xf00
    42e4:	6013      	str	r3, [r2, #0]
    42e6:	bd08      	pop	{r3, pc}
    42e8:	ffd05014 	.word	0xffd05014

000042ec <alt_gpt_tmr_stop>:
    42ec:	b508      	push	{r3, lr}
    42ee:	b918      	cbnz	r0, 42f8 <alt_gpt_tmr_stop+0xc>
    42f0:	e8bd 4008 	ldmia.w	sp!, {r3, lr}
    42f4:	f7ff bb02 	b.w	38fc <alt_globaltmr_stop>
    42f8:	2802      	cmp	r0, #2
    42fa:	d107      	bne.n	430c <alt_gpt_tmr_stop+0x20>
    42fc:	f000 fce4 	bl	4cc8 <cpu_wdog_in_gpt_mode>
    4300:	b1e8      	cbz	r0, 433e <alt_gpt_tmr_stop+0x52>
    4302:	2000      	movs	r0, #0
    4304:	e8bd 4008 	ldmia.w	sp!, {r3, lr}
    4308:	f000 bd42 	b.w	4d90 <alt_wdog_stop>
    430c:	2801      	cmp	r0, #1
    430e:	d00e      	beq.n	432e <alt_gpt_tmr_stop+0x42>
    4310:	2803      	cmp	r0, #3
    4312:	d00e      	beq.n	4332 <alt_gpt_tmr_stop+0x46>
    4314:	2804      	cmp	r0, #4
    4316:	d00e      	beq.n	4336 <alt_gpt_tmr_stop+0x4a>
    4318:	2805      	cmp	r0, #5
    431a:	d00e      	beq.n	433a <alt_gpt_tmr_stop+0x4e>
    431c:	2806      	cmp	r0, #6
    431e:	d111      	bne.n	4344 <alt_gpt_tmr_stop+0x58>
    4320:	4b0a      	ldr	r3, [pc, #40]	; (434c <alt_gpt_tmr_stop+0x60>)
    4322:	681a      	ldr	r2, [r3, #0]
    4324:	2000      	movs	r0, #0
    4326:	f022 0201 	bic.w	r2, r2, #1
    432a:	601a      	str	r2, [r3, #0]
    432c:	bd08      	pop	{r3, pc}
    432e:	4b08      	ldr	r3, [pc, #32]	; (4350 <alt_gpt_tmr_stop+0x64>)
    4330:	e7f7      	b.n	4322 <alt_gpt_tmr_stop+0x36>
    4332:	4b08      	ldr	r3, [pc, #32]	; (4354 <alt_gpt_tmr_stop+0x68>)
    4334:	e7f5      	b.n	4322 <alt_gpt_tmr_stop+0x36>
    4336:	4b08      	ldr	r3, [pc, #32]	; (4358 <alt_gpt_tmr_stop+0x6c>)
    4338:	e7f3      	b.n	4322 <alt_gpt_tmr_stop+0x36>
    433a:	4b08      	ldr	r3, [pc, #32]	; (435c <alt_gpt_tmr_stop+0x70>)
    433c:	e7f1      	b.n	4322 <alt_gpt_tmr_stop+0x36>
    433e:	f04f 30ff 	mov.w	r0, #4294967295
    4342:	bd08      	pop	{r3, pc}
    4344:	f06f 0008 	mvn.w	r0, #8
    4348:	bd08      	pop	{r3, pc}
    434a:	bf00      	nop
    434c:	ffc09008 	.word	0xffc09008
    4350:	fffec608 	.word	0xfffec608
    4354:	ffd00008 	.word	0xffd00008
    4358:	ffd01008 	.word	0xffd01008
    435c:	ffc08008 	.word	0xffc08008

00004360 <alt_gpt_tmr_start>:
    4360:	b508      	push	{r3, lr}
    4362:	b918      	cbnz	r0, 436c <alt_gpt_tmr_start+0xc>
    4364:	e8bd 4008 	ldmia.w	sp!, {r3, lr}
    4368:	f7ff ba38 	b.w	37dc <alt_globaltmr_start>
    436c:	2802      	cmp	r0, #2
    436e:	d107      	bne.n	4380 <alt_gpt_tmr_start+0x20>
    4370:	f000 fcaa 	bl	4cc8 <cpu_wdog_in_gpt_mode>
    4374:	b1e8      	cbz	r0, 43b2 <alt_gpt_tmr_start+0x52>
    4376:	2000      	movs	r0, #0
    4378:	e8bd 4008 	ldmia.w	sp!, {r3, lr}
    437c:	f000 bd50 	b.w	4e20 <alt_wdog_start>
    4380:	2801      	cmp	r0, #1
    4382:	d00e      	beq.n	43a2 <alt_gpt_tmr_start+0x42>
    4384:	2803      	cmp	r0, #3
    4386:	d00e      	beq.n	43a6 <alt_gpt_tmr_start+0x46>
    4388:	2804      	cmp	r0, #4
    438a:	d00e      	beq.n	43aa <alt_gpt_tmr_start+0x4a>
    438c:	2805      	cmp	r0, #5
    438e:	d00e      	beq.n	43ae <alt_gpt_tmr_start+0x4e>
    4390:	2806      	cmp	r0, #6
    4392:	d111      	bne.n	43b8 <alt_gpt_tmr_start+0x58>
    4394:	4b0a      	ldr	r3, [pc, #40]	; (43c0 <alt_gpt_tmr_start+0x60>)
    4396:	681a      	ldr	r2, [r3, #0]
    4398:	2000      	movs	r0, #0
    439a:	f042 0201 	orr.w	r2, r2, #1
    439e:	601a      	str	r2, [r3, #0]
    43a0:	bd08      	pop	{r3, pc}
    43a2:	4b08      	ldr	r3, [pc, #32]	; (43c4 <alt_gpt_tmr_start+0x64>)
    43a4:	e7f7      	b.n	4396 <alt_gpt_tmr_start+0x36>
    43a6:	4b08      	ldr	r3, [pc, #32]	; (43c8 <alt_gpt_tmr_start+0x68>)
    43a8:	e7f5      	b.n	4396 <alt_gpt_tmr_start+0x36>
    43aa:	4b08      	ldr	r3, [pc, #32]	; (43cc <alt_gpt_tmr_start+0x6c>)
    43ac:	e7f3      	b.n	4396 <alt_gpt_tmr_start+0x36>
    43ae:	4b08      	ldr	r3, [pc, #32]	; (43d0 <alt_gpt_tmr_start+0x70>)
    43b0:	e7f1      	b.n	4396 <alt_gpt_tmr_start+0x36>
    43b2:	f04f 30ff 	mov.w	r0, #4294967295
    43b6:	bd08      	pop	{r3, pc}
    43b8:	f06f 0008 	mvn.w	r0, #8
    43bc:	bd08      	pop	{r3, pc}
    43be:	bf00      	nop
    43c0:	ffc09008 	.word	0xffc09008
    43c4:	fffec608 	.word	0xfffec608
    43c8:	ffd00008 	.word	0xffd00008
    43cc:	ffd01008 	.word	0xffd01008
    43d0:	ffc08008 	.word	0xffc08008

000043d4 <alt_gpt_tmr_is_running>:
    43d4:	b508      	push	{r3, lr}
    43d6:	b928      	cbnz	r0, 43e4 <alt_gpt_tmr_is_running+0x10>
    43d8:	f7ff fa92 	bl	3900 <alt_globaltmr_is_comp_mode>
    43dc:	b308      	cbz	r0, 4422 <alt_gpt_tmr_is_running+0x4e>
    43de:	f7ff f9d7 	bl	3790 <alt_globaltmr_is_running>
    43e2:	bd08      	pop	{r3, pc}
    43e4:	2802      	cmp	r0, #2
    43e6:	d103      	bne.n	43f0 <alt_gpt_tmr_is_running+0x1c>
    43e8:	2000      	movs	r0, #0
    43ea:	f000 fd3b 	bl	4e64 <alt_wdog_tmr_is_enabled>
    43ee:	bd08      	pop	{r3, pc}
    43f0:	2801      	cmp	r0, #1
    43f2:	d00c      	beq.n	440e <alt_gpt_tmr_is_running+0x3a>
    43f4:	2803      	cmp	r0, #3
    43f6:	d00c      	beq.n	4412 <alt_gpt_tmr_is_running+0x3e>
    43f8:	2804      	cmp	r0, #4
    43fa:	d00c      	beq.n	4416 <alt_gpt_tmr_is_running+0x42>
    43fc:	2805      	cmp	r0, #5
    43fe:	d00c      	beq.n	441a <alt_gpt_tmr_is_running+0x46>
    4400:	2806      	cmp	r0, #6
    4402:	d10c      	bne.n	441e <alt_gpt_tmr_is_running+0x4a>
    4404:	4b07      	ldr	r3, [pc, #28]	; (4424 <alt_gpt_tmr_is_running+0x50>)
    4406:	6818      	ldr	r0, [r3, #0]
    4408:	f000 0001 	and.w	r0, r0, #1
    440c:	bd08      	pop	{r3, pc}
    440e:	4b06      	ldr	r3, [pc, #24]	; (4428 <alt_gpt_tmr_is_running+0x54>)
    4410:	e7f9      	b.n	4406 <alt_gpt_tmr_is_running+0x32>
    4412:	4b06      	ldr	r3, [pc, #24]	; (442c <alt_gpt_tmr_is_running+0x58>)
    4414:	e7f7      	b.n	4406 <alt_gpt_tmr_is_running+0x32>
    4416:	4b06      	ldr	r3, [pc, #24]	; (4430 <alt_gpt_tmr_is_running+0x5c>)
    4418:	e7f5      	b.n	4406 <alt_gpt_tmr_is_running+0x32>
    441a:	4b06      	ldr	r3, [pc, #24]	; (4434 <alt_gpt_tmr_is_running+0x60>)
    441c:	e7f3      	b.n	4406 <alt_gpt_tmr_is_running+0x32>
    441e:	f06f 0008 	mvn.w	r0, #8
    4422:	bd08      	pop	{r3, pc}
    4424:	ffc09008 	.word	0xffc09008
    4428:	fffec608 	.word	0xfffec608
    442c:	ffd00008 	.word	0xffd00008
    4430:	ffd01008 	.word	0xffd01008
    4434:	ffc08008 	.word	0xffc08008

00004438 <alt_gpt_counter_set>:
    4438:	b538      	push	{r3, r4, r5, lr}
    443a:	4604      	mov	r4, r0
    443c:	460d      	mov	r5, r1
    443e:	f7ff ffc9 	bl	43d4 <alt_gpt_tmr_is_running>
    4442:	b110      	cbz	r0, 444a <alt_gpt_counter_set+0x12>
    4444:	4620      	mov	r0, r4
    4446:	f7ff ff51 	bl	42ec <alt_gpt_tmr_stop>
    444a:	b924      	cbnz	r4, 4456 <alt_gpt_counter_set+0x1e>
    444c:	4628      	mov	r0, r5
    444e:	e8bd 4038 	ldmia.w	sp!, {r3, r4, r5, lr}
    4452:	f7ff baa1 	b.w	3998 <alt_globaltmr_autoinc_set>
    4456:	2c02      	cmp	r4, #2
    4458:	d105      	bne.n	4466 <alt_gpt_counter_set+0x2e>
    445a:	4629      	mov	r1, r5
    445c:	2000      	movs	r0, #0
    445e:	e8bd 4038 	ldmia.w	sp!, {r3, r4, r5, lr}
    4462:	f000 bd47 	b.w	4ef4 <alt_wdog_counter_set>
    4466:	2c01      	cmp	r4, #1
    4468:	d00b      	beq.n	4482 <alt_gpt_counter_set+0x4a>
    446a:	2c03      	cmp	r4, #3
    446c:	d00b      	beq.n	4486 <alt_gpt_counter_set+0x4e>
    446e:	2c04      	cmp	r4, #4
    4470:	d00b      	beq.n	448a <alt_gpt_counter_set+0x52>
    4472:	2c05      	cmp	r4, #5
    4474:	d00b      	beq.n	448e <alt_gpt_counter_set+0x56>
    4476:	2c06      	cmp	r4, #6
    4478:	d10b      	bne.n	4492 <alt_gpt_counter_set+0x5a>
    447a:	4b07      	ldr	r3, [pc, #28]	; (4498 <alt_gpt_counter_set+0x60>)
    447c:	601d      	str	r5, [r3, #0]
    447e:	2000      	movs	r0, #0
    4480:	bd38      	pop	{r3, r4, r5, pc}
    4482:	4b06      	ldr	r3, [pc, #24]	; (449c <alt_gpt_counter_set+0x64>)
    4484:	e7fa      	b.n	447c <alt_gpt_counter_set+0x44>
    4486:	4b06      	ldr	r3, [pc, #24]	; (44a0 <alt_gpt_counter_set+0x68>)
    4488:	e7f8      	b.n	447c <alt_gpt_counter_set+0x44>
    448a:	4b06      	ldr	r3, [pc, #24]	; (44a4 <alt_gpt_counter_set+0x6c>)
    448c:	e7f6      	b.n	447c <alt_gpt_counter_set+0x44>
    448e:	4b06      	ldr	r3, [pc, #24]	; (44a8 <alt_gpt_counter_set+0x70>)
    4490:	e7f4      	b.n	447c <alt_gpt_counter_set+0x44>
    4492:	f06f 0008 	mvn.w	r0, #8
    4496:	bd38      	pop	{r3, r4, r5, pc}
    4498:	ffc09000 	.word	0xffc09000
    449c:	fffec600 	.word	0xfffec600
    44a0:	ffd00000 	.word	0xffd00000
    44a4:	ffd01000 	.word	0xffd01000
    44a8:	ffc08000 	.word	0xffc08000

000044ac <alt_gpt_counter_get>:
    44ac:	b908      	cbnz	r0, 44b2 <alt_gpt_counter_get+0x6>
    44ae:	f7ff b9db 	b.w	3868 <alt_globaltmr_counter_get_low32>
    44b2:	2802      	cmp	r0, #2
    44b4:	d102      	bne.n	44bc <alt_gpt_counter_get+0x10>
    44b6:	2000      	movs	r0, #0
    44b8:	f000 bd46 	b.w	4f48 <alt_wdog_counter_get_current>
    44bc:	2801      	cmp	r0, #1
    44be:	d00a      	beq.n	44d6 <alt_gpt_counter_get+0x2a>
    44c0:	2803      	cmp	r0, #3
    44c2:	d00a      	beq.n	44da <alt_gpt_counter_get+0x2e>
    44c4:	2804      	cmp	r0, #4
    44c6:	d00a      	beq.n	44de <alt_gpt_counter_get+0x32>
    44c8:	2805      	cmp	r0, #5
    44ca:	d00a      	beq.n	44e2 <alt_gpt_counter_get+0x36>
    44cc:	2806      	cmp	r0, #6
    44ce:	d10a      	bne.n	44e6 <alt_gpt_counter_get+0x3a>
    44d0:	4b06      	ldr	r3, [pc, #24]	; (44ec <alt_gpt_counter_get+0x40>)
    44d2:	6818      	ldr	r0, [r3, #0]
    44d4:	4770      	bx	lr
    44d6:	4b06      	ldr	r3, [pc, #24]	; (44f0 <alt_gpt_counter_get+0x44>)
    44d8:	e7fb      	b.n	44d2 <alt_gpt_counter_get+0x26>
    44da:	4b06      	ldr	r3, [pc, #24]	; (44f4 <alt_gpt_counter_get+0x48>)
    44dc:	e7f9      	b.n	44d2 <alt_gpt_counter_get+0x26>
    44de:	4b06      	ldr	r3, [pc, #24]	; (44f8 <alt_gpt_counter_get+0x4c>)
    44e0:	e7f7      	b.n	44d2 <alt_gpt_counter_get+0x26>
    44e2:	4b06      	ldr	r3, [pc, #24]	; (44fc <alt_gpt_counter_get+0x50>)
    44e4:	e7f5      	b.n	44d2 <alt_gpt_counter_get+0x26>
    44e6:	2000      	movs	r0, #0
    44e8:	4770      	bx	lr
    44ea:	bf00      	nop
    44ec:	ffc09004 	.word	0xffc09004
    44f0:	fffec604 	.word	0xfffec604
    44f4:	ffd00004 	.word	0xffd00004
    44f8:	ffd01004 	.word	0xffd01004
    44fc:	ffc08004 	.word	0xffc08004

00004500 <alt_gpt_reset_value_get>:
    4500:	b908      	cbnz	r0, 4506 <alt_gpt_reset_value_get+0x6>
    4502:	f7ff ba5d 	b.w	39c0 <alt_globaltmr_autoinc_get>
    4506:	2802      	cmp	r0, #2
    4508:	d102      	bne.n	4510 <alt_gpt_reset_value_get+0x10>
    450a:	2000      	movs	r0, #0
    450c:	f000 bd34 	b.w	4f78 <alt_wdog_counter_get_init>
    4510:	2801      	cmp	r0, #1
    4512:	d00a      	beq.n	452a <alt_gpt_reset_value_get+0x2a>
    4514:	2803      	cmp	r0, #3
    4516:	d00a      	beq.n	452e <alt_gpt_reset_value_get+0x2e>
    4518:	2804      	cmp	r0, #4
    451a:	d00a      	beq.n	4532 <alt_gpt_reset_value_get+0x32>
    451c:	2805      	cmp	r0, #5
    451e:	d00a      	beq.n	4536 <alt_gpt_reset_value_get+0x36>
    4520:	2806      	cmp	r0, #6
    4522:	d10a      	bne.n	453a <alt_gpt_reset_value_get+0x3a>
    4524:	4b06      	ldr	r3, [pc, #24]	; (4540 <alt_gpt_reset_value_get+0x40>)
    4526:	6818      	ldr	r0, [r3, #0]
    4528:	4770      	bx	lr
    452a:	4b06      	ldr	r3, [pc, #24]	; (4544 <alt_gpt_reset_value_get+0x44>)
    452c:	e7fb      	b.n	4526 <alt_gpt_reset_value_get+0x26>
    452e:	4b06      	ldr	r3, [pc, #24]	; (4548 <alt_gpt_reset_value_get+0x48>)
    4530:	e7f9      	b.n	4526 <alt_gpt_reset_value_get+0x26>
    4532:	4b06      	ldr	r3, [pc, #24]	; (454c <alt_gpt_reset_value_get+0x4c>)
    4534:	e7f7      	b.n	4526 <alt_gpt_reset_value_get+0x26>
    4536:	4b06      	ldr	r3, [pc, #24]	; (4550 <alt_gpt_reset_value_get+0x50>)
    4538:	e7f5      	b.n	4526 <alt_gpt_reset_value_get+0x26>
    453a:	2000      	movs	r0, #0
    453c:	4770      	bx	lr
    453e:	bf00      	nop
    4540:	ffc09000 	.word	0xffc09000
    4544:	fffec600 	.word	0xfffec600
    4548:	ffd00000 	.word	0xffd00000
    454c:	ffd01000 	.word	0xffd01000
    4550:	ffc08000 	.word	0xffc08000

00004554 <alt_gpt_maxcounter_get>:
    4554:	b168      	cbz	r0, 4572 <alt_gpt_maxcounter_get+0x1e>
    4556:	2802      	cmp	r0, #2
    4558:	d102      	bne.n	4560 <alt_gpt_maxcounter_get+0xc>
    455a:	2000      	movs	r0, #0
    455c:	f000 bded 	b.w	513a <alt_wdog_counter_get_max>
    4560:	2801      	cmp	r0, #1
    4562:	d006      	beq.n	4572 <alt_gpt_maxcounter_get+0x1e>
    4564:	3803      	subs	r0, #3
    4566:	2803      	cmp	r0, #3
    4568:	f04f 30ff 	mov.w	r0, #4294967295
    456c:	bf88      	it	hi
    456e:	2000      	movhi	r0, #0
    4570:	4770      	bx	lr
    4572:	f04f 30ff 	mov.w	r0, #4294967295
    4576:	4770      	bx	lr

00004578 <alt_gpt_prescaler_set>:
    4578:	b920      	cbnz	r0, 4584 <alt_gpt_prescaler_set+0xc>
    457a:	29ff      	cmp	r1, #255	; 0xff
    457c:	d816      	bhi.n	45ac <alt_gpt_prescaler_set+0x34>
    457e:	4608      	mov	r0, r1
    4580:	f7ff b9fa 	b.w	3978 <alt_globaltmr_prescaler_set>
    4584:	2802      	cmp	r0, #2
    4586:	d104      	bne.n	4592 <alt_gpt_prescaler_set+0x1a>
    4588:	29ff      	cmp	r1, #255	; 0xff
    458a:	d80f      	bhi.n	45ac <alt_gpt_prescaler_set+0x34>
    458c:	4608      	mov	r0, r1
    458e:	f000 bd19 	b.w	4fc4 <alt_wdog_core_prescaler_set>
    4592:	2801      	cmp	r0, #1
    4594:	d10a      	bne.n	45ac <alt_gpt_prescaler_set+0x34>
    4596:	29ff      	cmp	r1, #255	; 0xff
    4598:	d808      	bhi.n	45ac <alt_gpt_prescaler_set+0x34>
    459a:	4a06      	ldr	r2, [pc, #24]	; (45b4 <alt_gpt_prescaler_set+0x3c>)
    459c:	2000      	movs	r0, #0
    459e:	6813      	ldr	r3, [r2, #0]
    45a0:	f423 437f 	bic.w	r3, r3, #65280	; 0xff00
    45a4:	ea43 2101 	orr.w	r1, r3, r1, lsl #8
    45a8:	6011      	str	r1, [r2, #0]
    45aa:	4770      	bx	lr
    45ac:	f06f 0008 	mvn.w	r0, #8
    45b0:	4770      	bx	lr
    45b2:	bf00      	nop
    45b4:	fffec608 	.word	0xfffec608

000045b8 <alt_gpt_prescaler_get>:
    45b8:	b908      	cbnz	r0, 45be <alt_gpt_prescaler_get+0x6>
    45ba:	f7ff b9d5 	b.w	3968 <alt_globaltmr_prescaler_get>
    45be:	2802      	cmp	r0, #2
    45c0:	d101      	bne.n	45c6 <alt_gpt_prescaler_get+0xe>
    45c2:	f000 bd17 	b.w	4ff4 <alt_wdog_core_prescaler_get>
    45c6:	2801      	cmp	r0, #1
    45c8:	bf03      	ittte	eq
    45ca:	4b03      	ldreq	r3, [pc, #12]	; (45d8 <alt_gpt_prescaler_get+0x20>)
    45cc:	6818      	ldreq	r0, [r3, #0]
    45ce:	f3c0 2007 	ubfxeq	r0, r0, #8, #8
    45d2:	2000      	movne	r0, #0
    45d4:	4770      	bx	lr
    45d6:	bf00      	nop
    45d8:	fffec608 	.word	0xfffec608

000045dc <alt_gpt_curtime_get_kernl>:
    45dc:	e92d 41f3 	stmdb	sp!, {r0, r1, r4, r5, r6, r7, r8, lr}
    45e0:	4604      	mov	r4, r0
    45e2:	4688      	mov	r8, r1
    45e4:	f7ff ffe8 	bl	45b8 <alt_gpt_prescaler_get>
    45e8:	28ff      	cmp	r0, #255	; 0xff
    45ea:	4605      	mov	r5, r0
    45ec:	d84b      	bhi.n	4686 <alt_gpt_curtime_get_kernl+0xaa>
    45ee:	bb44      	cbnz	r4, 4642 <alt_gpt_curtime_get_kernl+0x66>
    45f0:	f7ff f958 	bl	38a4 <alt_globaltmr_comp_get64>
    45f4:	4606      	mov	r6, r0
    45f6:	460f      	mov	r7, r1
    45f8:	f7ff f91a 	bl	3830 <alt_globaltmr_get64>
    45fc:	1a36      	subs	r6, r6, r0
    45fe:	f04f 0015 	mov.w	r0, #21
    4602:	eb67 0701 	sbc.w	r7, r7, r1
    4606:	a901      	add	r1, sp, #4
    4608:	f7fe fb10 	bl	2c2c <alt_clk_freq_get>
    460c:	4684      	mov	ip, r0
    460e:	b9a0      	cbnz	r0, 463a <alt_gpt_curtime_get_kernl+0x5e>
    4610:	1c6a      	adds	r2, r5, #1
    4612:	fba2 2308 	umull	r2, r3, r2, r8
    4616:	fb02 f407 	mul.w	r4, r2, r7
    461a:	fba2 0106 	umull	r0, r1, r2, r6
    461e:	9a01      	ldr	r2, [sp, #4]
    4620:	fb06 4403 	mla	r4, r6, r3, r4
    4624:	4663      	mov	r3, ip
    4626:	4421      	add	r1, r4
    4628:	f001 e892 	blx	5750 <__aeabi_uldivmod>
    462c:	2901      	cmp	r1, #1
    462e:	bf08      	it	eq
    4630:	2800      	cmpeq	r0, #0
    4632:	bf34      	ite	cc
    4634:	4604      	movcc	r4, r0
    4636:	f04f 34ff 	movcs.w	r4, #4294967295
    463a:	4620      	mov	r0, r4
    463c:	b002      	add	sp, #8
    463e:	e8bd 81f0 	ldmia.w	sp!, {r4, r5, r6, r7, r8, pc}
    4642:	2c02      	cmp	r4, #2
    4644:	d107      	bne.n	4656 <alt_gpt_curtime_get_kernl+0x7a>
    4646:	2000      	movs	r0, #0
    4648:	f000 fc7e 	bl	4f48 <alt_wdog_counter_get_current>
    464c:	4604      	mov	r4, r0
    464e:	2015      	movs	r0, #21
    4650:	4626      	mov	r6, r4
    4652:	2700      	movs	r7, #0
    4654:	e7d7      	b.n	4606 <alt_gpt_curtime_get_kernl+0x2a>
    4656:	2c01      	cmp	r4, #1
    4658:	d00a      	beq.n	4670 <alt_gpt_curtime_get_kernl+0x94>
    465a:	2c03      	cmp	r4, #3
    465c:	d00c      	beq.n	4678 <alt_gpt_curtime_get_kernl+0x9c>
    465e:	2c04      	cmp	r4, #4
    4660:	d00d      	beq.n	467e <alt_gpt_curtime_get_kernl+0xa2>
    4662:	2c05      	cmp	r4, #5
    4664:	d00d      	beq.n	4682 <alt_gpt_curtime_get_kernl+0xa6>
    4666:	2c06      	cmp	r4, #6
    4668:	d10d      	bne.n	4686 <alt_gpt_curtime_get_kernl+0xaa>
    466a:	4b08      	ldr	r3, [pc, #32]	; (468c <alt_gpt_curtime_get_kernl+0xb0>)
    466c:	201b      	movs	r0, #27
    466e:	e001      	b.n	4674 <alt_gpt_curtime_get_kernl+0x98>
    4670:	4b07      	ldr	r3, [pc, #28]	; (4690 <alt_gpt_curtime_get_kernl+0xb4>)
    4672:	2015      	movs	r0, #21
    4674:	681c      	ldr	r4, [r3, #0]
    4676:	e7eb      	b.n	4650 <alt_gpt_curtime_get_kernl+0x74>
    4678:	4b06      	ldr	r3, [pc, #24]	; (4694 <alt_gpt_curtime_get_kernl+0xb8>)
    467a:	200c      	movs	r0, #12
    467c:	e7fa      	b.n	4674 <alt_gpt_curtime_get_kernl+0x98>
    467e:	4b06      	ldr	r3, [pc, #24]	; (4698 <alt_gpt_curtime_get_kernl+0xbc>)
    4680:	e7fb      	b.n	467a <alt_gpt_curtime_get_kernl+0x9e>
    4682:	4b06      	ldr	r3, [pc, #24]	; (469c <alt_gpt_curtime_get_kernl+0xc0>)
    4684:	e7f2      	b.n	466c <alt_gpt_curtime_get_kernl+0x90>
    4686:	2400      	movs	r4, #0
    4688:	e7d7      	b.n	463a <alt_gpt_curtime_get_kernl+0x5e>
    468a:	bf00      	nop
    468c:	ffc09004 	.word	0xffc09004
    4690:	fffec604 	.word	0xfffec604
    4694:	ffd00004 	.word	0xffd00004
    4698:	ffd01004 	.word	0xffd01004
    469c:	ffc08004 	.word	0xffc08004

000046a0 <alt_gpt_curtime_get>:
    46a0:	2101      	movs	r1, #1
    46a2:	f7ff bf9b 	b.w	45dc <alt_gpt_curtime_get_kernl>

000046a6 <alt_gpt_curtime_millisecs_get>:
    46a6:	f44f 717a 	mov.w	r1, #1000	; 0x3e8
    46aa:	f7ff bf97 	b.w	45dc <alt_gpt_curtime_get_kernl>
	...

000046b0 <alt_gpt_curtime_microsecs_get>:
    46b0:	4901      	ldr	r1, [pc, #4]	; (46b8 <alt_gpt_curtime_microsecs_get+0x8>)
    46b2:	f7ff bf93 	b.w	45dc <alt_gpt_curtime_get_kernl>
    46b6:	bf00      	nop
    46b8:	000f4240 	.word	0x000f4240

000046bc <alt_gpt_curtime_nanosecs_get>:
    46bc:	4901      	ldr	r1, [pc, #4]	; (46c4 <alt_gpt_curtime_nanosecs_get+0x8>)
    46be:	f7ff bf8d 	b.w	45dc <alt_gpt_curtime_get_kernl>
    46c2:	bf00      	nop
    46c4:	3b9aca00 	.word	0x3b9aca00

000046c8 <alt_gpt_delay_ns>:
    46c8:	b5f7      	push	{r0, r1, r2, r4, r5, r6, r7, lr}
    46ca:	4605      	mov	r5, r0
    46cc:	460c      	mov	r4, r1
    46ce:	4616      	mov	r6, r2
    46d0:	f7ff ff72 	bl	45b8 <alt_gpt_prescaler_get>
    46d4:	2d06      	cmp	r5, #6
    46d6:	4607      	mov	r7, r0
    46d8:	d828      	bhi.n	472c <alt_gpt_delay_ns+0x64>
    46da:	2301      	movs	r3, #1
    46dc:	40ab      	lsls	r3, r5
    46de:	075a      	lsls	r2, r3, #29
    46e0:	d127      	bne.n	4732 <alt_gpt_delay_ns+0x6a>
    46e2:	f013 0f60 	tst.w	r3, #96	; 0x60
    46e6:	d126      	bne.n	4736 <alt_gpt_delay_ns+0x6e>
    46e8:	f013 0f18 	tst.w	r3, #24
    46ec:	d01e      	beq.n	472c <alt_gpt_delay_ns+0x64>
    46ee:	200c      	movs	r0, #12
    46f0:	a901      	add	r1, sp, #4
    46f2:	f7fe fa9b 	bl	2c2c <alt_clk_freq_get>
    46f6:	9801      	ldr	r0, [sp, #4]
    46f8:	1c7a      	adds	r2, r7, #1
    46fa:	2300      	movs	r3, #0
    46fc:	fba6 0100 	umull	r0, r1, r6, r0
    4700:	f001 e826 	blx	5750 <__aeabi_uldivmod>
    4704:	a316      	add	r3, pc, #88	; (adr r3, 4760 <alt_gpt_delay_ns+0x98>)
    4706:	e9d3 2300 	ldrd	r2, r3, [r3]
    470a:	f001 e822 	blx	5750 <__aeabi_uldivmod>
    470e:	1c46      	adds	r6, r0, #1
    4710:	42b4      	cmp	r4, r6
    4712:	d312      	bcc.n	473a <alt_gpt_delay_ns+0x72>
    4714:	4628      	mov	r0, r5
    4716:	1ba4      	subs	r4, r4, r6
    4718:	f7ff fec8 	bl	44ac <alt_gpt_counter_get>
    471c:	4606      	mov	r6, r0
    471e:	4628      	mov	r0, r5
    4720:	f7ff fec4 	bl	44ac <alt_gpt_counter_get>
    4724:	4284      	cmp	r4, r0
    4726:	d801      	bhi.n	472c <alt_gpt_delay_ns+0x64>
    4728:	4286      	cmp	r6, r0
    472a:	d2f7      	bcs.n	471c <alt_gpt_delay_ns+0x54>
    472c:	2000      	movs	r0, #0
    472e:	b003      	add	sp, #12
    4730:	bdf0      	pop	{r4, r5, r6, r7, pc}
    4732:	2015      	movs	r0, #21
    4734:	e7dc      	b.n	46f0 <alt_gpt_delay_ns+0x28>
    4736:	201b      	movs	r0, #27
    4738:	e7da      	b.n	46f0 <alt_gpt_delay_ns+0x28>
    473a:	4628      	mov	r0, r5
    473c:	f7ff feb6 	bl	44ac <alt_gpt_counter_get>
    4740:	4284      	cmp	r4, r0
    4742:	d8fa      	bhi.n	473a <alt_gpt_delay_ns+0x72>
    4744:	1b36      	subs	r6, r6, r4
    4746:	4628      	mov	r0, r5
    4748:	f7ff feb0 	bl	44ac <alt_gpt_counter_get>
    474c:	4286      	cmp	r6, r0
    474e:	4604      	mov	r4, r0
    4750:	d9de      	bls.n	4710 <alt_gpt_delay_ns+0x48>
    4752:	4628      	mov	r0, r5
    4754:	f7ff feaa 	bl	44ac <alt_gpt_counter_get>
    4758:	4284      	cmp	r4, r0
    475a:	d0fa      	beq.n	4752 <alt_gpt_delay_ns+0x8a>
    475c:	e7d8      	b.n	4710 <alt_gpt_delay_ns+0x48>
    475e:	bf00      	nop
    4760:	3b9aca00 	.word	0x3b9aca00
    4764:	00000000 	.word	0x00000000

00004768 <alt_gpt_time_get_kernl>:
    4768:	2802      	cmp	r0, #2
    476a:	b5f7      	push	{r0, r1, r2, r4, r5, r6, r7, lr}
    476c:	4605      	mov	r5, r0
    476e:	460e      	mov	r6, r1
    4770:	d908      	bls.n	4784 <alt_gpt_time_get_kernl+0x1c>
    4772:	1ec3      	subs	r3, r0, #3
    4774:	2b01      	cmp	r3, #1
    4776:	d92d      	bls.n	47d4 <alt_gpt_time_get_kernl+0x6c>
    4778:	1f43      	subs	r3, r0, #5
    477a:	2b01      	cmp	r3, #1
    477c:	d92c      	bls.n	47d8 <alt_gpt_time_get_kernl+0x70>
    477e:	2000      	movs	r0, #0
    4780:	b003      	add	sp, #12
    4782:	bdf0      	pop	{r4, r5, r6, r7, pc}
    4784:	2015      	movs	r0, #21
    4786:	a901      	add	r1, sp, #4
    4788:	f7fe fa50 	bl	2c2c <alt_clk_freq_get>
    478c:	4607      	mov	r7, r0
    478e:	2800      	cmp	r0, #0
    4790:	d1f5      	bne.n	477e <alt_gpt_time_get_kernl+0x16>
    4792:	4628      	mov	r0, r5
    4794:	f7ff feb4 	bl	4500 <alt_gpt_reset_value_get>
    4798:	4604      	mov	r4, r0
    479a:	4628      	mov	r0, r5
    479c:	f7ff ff0c 	bl	45b8 <alt_gpt_prescaler_get>
    47a0:	1c62      	adds	r2, r4, #1
    47a2:	f100 0001 	add.w	r0, r0, #1
    47a6:	fba2 4500 	umull	r4, r5, r2, r0
    47aa:	f04f 0300 	mov.w	r3, #0
    47ae:	f143 0300 	adc.w	r3, r3, #0
    47b2:	9a01      	ldr	r2, [sp, #4]
    47b4:	fb00 5503 	mla	r5, r0, r3, r5
    47b8:	fba6 0104 	umull	r0, r1, r6, r4
    47bc:	463b      	mov	r3, r7
    47be:	fb06 1105 	mla	r1, r6, r5, r1
    47c2:	f000 efc6 	blx	5750 <__aeabi_uldivmod>
    47c6:	2901      	cmp	r1, #1
    47c8:	bf08      	it	eq
    47ca:	2800      	cmpeq	r0, #0
    47cc:	bf28      	it	cs
    47ce:	f04f 30ff 	movcs.w	r0, #4294967295
    47d2:	e7d5      	b.n	4780 <alt_gpt_time_get_kernl+0x18>
    47d4:	200c      	movs	r0, #12
    47d6:	e7d6      	b.n	4786 <alt_gpt_time_get_kernl+0x1e>
    47d8:	201b      	movs	r0, #27
    47da:	e7d4      	b.n	4786 <alt_gpt_time_get_kernl+0x1e>

000047dc <alt_gpt_maxtime_get_kernl>:
    47dc:	2802      	cmp	r0, #2
    47de:	b5f7      	push	{r0, r1, r2, r4, r5, r6, r7, lr}
    47e0:	4605      	mov	r5, r0
    47e2:	460e      	mov	r6, r1
    47e4:	d908      	bls.n	47f8 <alt_gpt_maxtime_get_kernl+0x1c>
    47e6:	1ec3      	subs	r3, r0, #3
    47e8:	2b01      	cmp	r3, #1
    47ea:	d92d      	bls.n	4848 <alt_gpt_maxtime_get_kernl+0x6c>
    47ec:	1f43      	subs	r3, r0, #5
    47ee:	2b01      	cmp	r3, #1
    47f0:	d92c      	bls.n	484c <alt_gpt_maxtime_get_kernl+0x70>
    47f2:	2000      	movs	r0, #0
    47f4:	b003      	add	sp, #12
    47f6:	bdf0      	pop	{r4, r5, r6, r7, pc}
    47f8:	2015      	movs	r0, #21
    47fa:	a901      	add	r1, sp, #4
    47fc:	f7fe fa16 	bl	2c2c <alt_clk_freq_get>
    4800:	4607      	mov	r7, r0
    4802:	2800      	cmp	r0, #0
    4804:	d1f5      	bne.n	47f2 <alt_gpt_maxtime_get_kernl+0x16>
    4806:	4628      	mov	r0, r5
    4808:	f7ff fea4 	bl	4554 <alt_gpt_maxcounter_get>
    480c:	4604      	mov	r4, r0
    480e:	4628      	mov	r0, r5
    4810:	f7ff fed2 	bl	45b8 <alt_gpt_prescaler_get>
    4814:	1c62      	adds	r2, r4, #1
    4816:	f100 0001 	add.w	r0, r0, #1
    481a:	fba2 4500 	umull	r4, r5, r2, r0
    481e:	f04f 0300 	mov.w	r3, #0
    4822:	f143 0300 	adc.w	r3, r3, #0
    4826:	9a01      	ldr	r2, [sp, #4]
    4828:	fb00 5503 	mla	r5, r0, r3, r5
    482c:	fba6 0104 	umull	r0, r1, r6, r4
    4830:	463b      	mov	r3, r7
    4832:	fb06 1105 	mla	r1, r6, r5, r1
    4836:	f000 ef8c 	blx	5750 <__aeabi_uldivmod>
    483a:	2901      	cmp	r1, #1
    483c:	bf08      	it	eq
    483e:	2800      	cmpeq	r0, #0
    4840:	bf28      	it	cs
    4842:	f04f 30ff 	movcs.w	r0, #4294967295
    4846:	e7d5      	b.n	47f4 <alt_gpt_maxtime_get_kernl+0x18>
    4848:	200c      	movs	r0, #12
    484a:	e7d6      	b.n	47fa <alt_gpt_maxtime_get_kernl+0x1e>
    484c:	201b      	movs	r0, #27
    484e:	e7d4      	b.n	47fa <alt_gpt_maxtime_get_kernl+0x1e>

00004850 <alt_gpt_freq_get>:
    4850:	b5f7      	push	{r0, r1, r2, r4, r5, r6, r7, lr}
    4852:	4605      	mov	r5, r0
    4854:	2d02      	cmp	r5, #2
    4856:	f04f 0000 	mov.w	r0, #0
    485a:	9001      	str	r0, [sp, #4]
    485c:	d926      	bls.n	48ac <alt_gpt_freq_get+0x5c>
    485e:	1eeb      	subs	r3, r5, #3
    4860:	2b01      	cmp	r3, #1
    4862:	d925      	bls.n	48b0 <alt_gpt_freq_get+0x60>
    4864:	1f6b      	subs	r3, r5, #5
    4866:	2b01      	cmp	r3, #1
    4868:	d81e      	bhi.n	48a8 <alt_gpt_freq_get+0x58>
    486a:	201b      	movs	r0, #27
    486c:	a901      	add	r1, sp, #4
    486e:	f7fe f9dd 	bl	2c2c <alt_clk_freq_get>
    4872:	4606      	mov	r6, r0
    4874:	b9f0      	cbnz	r0, 48b4 <alt_gpt_freq_get+0x64>
    4876:	4628      	mov	r0, r5
    4878:	9f01      	ldr	r7, [sp, #4]
    487a:	f7ff fe41 	bl	4500 <alt_gpt_reset_value_get>
    487e:	4604      	mov	r4, r0
    4880:	4628      	mov	r0, r5
    4882:	f7ff fe99 	bl	45b8 <alt_gpt_prescaler_get>
    4886:	3401      	adds	r4, #1
    4888:	f100 0001 	add.w	r0, r0, #1
    488c:	fba4 2300 	umull	r2, r3, r4, r0
    4890:	f04f 0500 	mov.w	r5, #0
    4894:	f145 0500 	adc.w	r5, r5, #0
    4898:	4631      	mov	r1, r6
    489a:	fb00 3305 	mla	r3, r0, r5, r3
    489e:	4638      	mov	r0, r7
    48a0:	f000 ef56 	blx	5750 <__aeabi_uldivmod>
    48a4:	9001      	str	r0, [sp, #4]
    48a6:	9801      	ldr	r0, [sp, #4]
    48a8:	b003      	add	sp, #12
    48aa:	bdf0      	pop	{r4, r5, r6, r7, pc}
    48ac:	2015      	movs	r0, #21
    48ae:	e7dd      	b.n	486c <alt_gpt_freq_get+0x1c>
    48b0:	200c      	movs	r0, #12
    48b2:	e7db      	b.n	486c <alt_gpt_freq_get+0x1c>
    48b4:	2300      	movs	r3, #0
    48b6:	9301      	str	r3, [sp, #4]
    48b8:	e7f5      	b.n	48a6 <alt_gpt_freq_get+0x56>

000048ba <alt_gpt_time_get>:
    48ba:	2101      	movs	r1, #1
    48bc:	f7ff bf54 	b.w	4768 <alt_gpt_time_get_kernl>

000048c0 <alt_gpt_time_millisecs_get>:
    48c0:	f44f 717a 	mov.w	r1, #1000	; 0x3e8
    48c4:	f7ff bf50 	b.w	4768 <alt_gpt_time_get_kernl>

000048c8 <alt_gpt_time_microsecs_get>:
    48c8:	4901      	ldr	r1, [pc, #4]	; (48d0 <alt_gpt_time_microsecs_get+0x8>)
    48ca:	f7ff bf4d 	b.w	4768 <alt_gpt_time_get_kernl>
    48ce:	bf00      	nop
    48d0:	000f4240 	.word	0x000f4240

000048d4 <alt_gpt_maxtime_get>:
    48d4:	2101      	movs	r1, #1
    48d6:	f7ff bf81 	b.w	47dc <alt_gpt_maxtime_get_kernl>

000048da <alt_gpt_maxtime_millisecs_get>:
    48da:	f44f 717a 	mov.w	r1, #1000	; 0x3e8
    48de:	f7ff bf7d 	b.w	47dc <alt_gpt_maxtime_get_kernl>
	...

000048e4 <alt_gpt_int_enable>:
    48e4:	b508      	push	{r3, lr}
    48e6:	b918      	cbnz	r0, 48f0 <alt_gpt_int_enable+0xc>
    48e8:	e8bd 4008 	ldmia.w	sp!, {r3, lr}
    48ec:	f7ff b898 	b.w	3a20 <alt_globaltmr_int_enable>
    48f0:	2802      	cmp	r0, #2
    48f2:	d107      	bne.n	4904 <alt_gpt_int_enable+0x20>
    48f4:	f000 f9e8 	bl	4cc8 <cpu_wdog_in_gpt_mode>
    48f8:	b308      	cbz	r0, 493e <alt_gpt_int_enable+0x5a>
    48fa:	2000      	movs	r0, #0
    48fc:	e8bd 4008 	ldmia.w	sp!, {r3, lr}
    4900:	f000 bc9c 	b.w	523c <alt_wdog_int_enable>
    4904:	2801      	cmp	r0, #1
    4906:	d106      	bne.n	4916 <alt_gpt_int_enable+0x32>
    4908:	4a10      	ldr	r2, [pc, #64]	; (494c <alt_gpt_int_enable+0x68>)
    490a:	6813      	ldr	r3, [r2, #0]
    490c:	f043 0304 	orr.w	r3, r3, #4
    4910:	6013      	str	r3, [r2, #0]
    4912:	2000      	movs	r0, #0
    4914:	bd08      	pop	{r3, pc}
    4916:	2803      	cmp	r0, #3
    4918:	d00b      	beq.n	4932 <alt_gpt_int_enable+0x4e>
    491a:	2804      	cmp	r0, #4
    491c:	d00b      	beq.n	4936 <alt_gpt_int_enable+0x52>
    491e:	2805      	cmp	r0, #5
    4920:	d00b      	beq.n	493a <alt_gpt_int_enable+0x56>
    4922:	2806      	cmp	r0, #6
    4924:	d10e      	bne.n	4944 <alt_gpt_int_enable+0x60>
    4926:	4b0a      	ldr	r3, [pc, #40]	; (4950 <alt_gpt_int_enable+0x6c>)
    4928:	681a      	ldr	r2, [r3, #0]
    492a:	f022 0204 	bic.w	r2, r2, #4
    492e:	601a      	str	r2, [r3, #0]
    4930:	e7ef      	b.n	4912 <alt_gpt_int_enable+0x2e>
    4932:	4b08      	ldr	r3, [pc, #32]	; (4954 <alt_gpt_int_enable+0x70>)
    4934:	e7f8      	b.n	4928 <alt_gpt_int_enable+0x44>
    4936:	4b08      	ldr	r3, [pc, #32]	; (4958 <alt_gpt_int_enable+0x74>)
    4938:	e7f6      	b.n	4928 <alt_gpt_int_enable+0x44>
    493a:	4b08      	ldr	r3, [pc, #32]	; (495c <alt_gpt_int_enable+0x78>)
    493c:	e7f4      	b.n	4928 <alt_gpt_int_enable+0x44>
    493e:	f04f 30ff 	mov.w	r0, #4294967295
    4942:	bd08      	pop	{r3, pc}
    4944:	f06f 0008 	mvn.w	r0, #8
    4948:	bd08      	pop	{r3, pc}
    494a:	bf00      	nop
    494c:	fffec608 	.word	0xfffec608
    4950:	ffc09008 	.word	0xffc09008
    4954:	ffd00008 	.word	0xffd00008
    4958:	ffd01008 	.word	0xffd01008
    495c:	ffc08008 	.word	0xffc08008

00004960 <alt_gpt_int_is_enabled>:
    4960:	b508      	push	{r3, lr}
    4962:	b918      	cbnz	r0, 496c <alt_gpt_int_is_enabled+0xc>
    4964:	e8bd 4008 	ldmia.w	sp!, {r3, lr}
    4968:	f7ff b86e 	b.w	3a48 <alt_globaltmr_int_is_enabled>
    496c:	2802      	cmp	r0, #2
    496e:	d107      	bne.n	4980 <alt_gpt_int_is_enabled+0x20>
    4970:	f000 f9aa 	bl	4cc8 <cpu_wdog_in_gpt_mode>
    4974:	b1f8      	cbz	r0, 49b6 <alt_gpt_int_is_enabled+0x56>
    4976:	2000      	movs	r0, #0
    4978:	e8bd 4008 	ldmia.w	sp!, {r3, lr}
    497c:	f000 bc90 	b.w	52a0 <alt_wdog_int_is_enabled>
    4980:	2801      	cmp	r0, #1
    4982:	d104      	bne.n	498e <alt_gpt_int_is_enabled+0x2e>
    4984:	4b0c      	ldr	r3, [pc, #48]	; (49b8 <alt_gpt_int_is_enabled+0x58>)
    4986:	6818      	ldr	r0, [r3, #0]
    4988:	f3c0 0080 	ubfx	r0, r0, #2, #1
    498c:	bd08      	pop	{r3, pc}
    498e:	2803      	cmp	r0, #3
    4990:	d00a      	beq.n	49a8 <alt_gpt_int_is_enabled+0x48>
    4992:	2804      	cmp	r0, #4
    4994:	d00a      	beq.n	49ac <alt_gpt_int_is_enabled+0x4c>
    4996:	2805      	cmp	r0, #5
    4998:	d00a      	beq.n	49b0 <alt_gpt_int_is_enabled+0x50>
    499a:	2806      	cmp	r0, #6
    499c:	d10a      	bne.n	49b4 <alt_gpt_int_is_enabled+0x54>
    499e:	4b07      	ldr	r3, [pc, #28]	; (49bc <alt_gpt_int_is_enabled+0x5c>)
    49a0:	6818      	ldr	r0, [r3, #0]
    49a2:	f080 0004 	eor.w	r0, r0, #4
    49a6:	e7ef      	b.n	4988 <alt_gpt_int_is_enabled+0x28>
    49a8:	4b05      	ldr	r3, [pc, #20]	; (49c0 <alt_gpt_int_is_enabled+0x60>)
    49aa:	e7f9      	b.n	49a0 <alt_gpt_int_is_enabled+0x40>
    49ac:	4b05      	ldr	r3, [pc, #20]	; (49c4 <alt_gpt_int_is_enabled+0x64>)
    49ae:	e7f7      	b.n	49a0 <alt_gpt_int_is_enabled+0x40>
    49b0:	4b05      	ldr	r3, [pc, #20]	; (49c8 <alt_gpt_int_is_enabled+0x68>)
    49b2:	e7f5      	b.n	49a0 <alt_gpt_int_is_enabled+0x40>
    49b4:	2000      	movs	r0, #0
    49b6:	bd08      	pop	{r3, pc}
    49b8:	fffec608 	.word	0xfffec608
    49bc:	ffc09008 	.word	0xffc09008
    49c0:	ffd00008 	.word	0xffd00008
    49c4:	ffd01008 	.word	0xffd01008
    49c8:	ffc08008 	.word	0xffc08008

000049cc <alt_gpt_int_clear_pending>:
    49cc:	b508      	push	{r3, lr}
    49ce:	b918      	cbnz	r0, 49d8 <alt_gpt_int_clear_pending+0xc>
    49d0:	e8bd 4008 	ldmia.w	sp!, {r3, lr}
    49d4:	f7ff b840 	b.w	3a58 <alt_globaltmr_int_clear_pending>
    49d8:	2802      	cmp	r0, #2
    49da:	d107      	bne.n	49ec <alt_gpt_int_clear_pending+0x20>
    49dc:	f000 f974 	bl	4cc8 <cpu_wdog_in_gpt_mode>
    49e0:	b1d8      	cbz	r0, 4a1a <alt_gpt_int_clear_pending+0x4e>
    49e2:	2000      	movs	r0, #0
    49e4:	e8bd 4008 	ldmia.w	sp!, {r3, lr}
    49e8:	f000 bc7a 	b.w	52e0 <alt_wdog_int_clear>
    49ec:	2801      	cmp	r0, #1
    49ee:	d103      	bne.n	49f8 <alt_gpt_int_clear_pending+0x2c>
    49f0:	4b0d      	ldr	r3, [pc, #52]	; (4a28 <alt_gpt_int_clear_pending+0x5c>)
    49f2:	6018      	str	r0, [r3, #0]
    49f4:	2000      	movs	r0, #0
    49f6:	bd08      	pop	{r3, pc}
    49f8:	2803      	cmp	r0, #3
    49fa:	d102      	bne.n	4a02 <alt_gpt_int_clear_pending+0x36>
    49fc:	4b0b      	ldr	r3, [pc, #44]	; (4a2c <alt_gpt_int_clear_pending+0x60>)
    49fe:	681b      	ldr	r3, [r3, #0]
    4a00:	e7f8      	b.n	49f4 <alt_gpt_int_clear_pending+0x28>
    4a02:	2804      	cmp	r0, #4
    4a04:	d101      	bne.n	4a0a <alt_gpt_int_clear_pending+0x3e>
    4a06:	4b0a      	ldr	r3, [pc, #40]	; (4a30 <alt_gpt_int_clear_pending+0x64>)
    4a08:	e7f9      	b.n	49fe <alt_gpt_int_clear_pending+0x32>
    4a0a:	2805      	cmp	r0, #5
    4a0c:	d101      	bne.n	4a12 <alt_gpt_int_clear_pending+0x46>
    4a0e:	4b09      	ldr	r3, [pc, #36]	; (4a34 <alt_gpt_int_clear_pending+0x68>)
    4a10:	e7f5      	b.n	49fe <alt_gpt_int_clear_pending+0x32>
    4a12:	2806      	cmp	r0, #6
    4a14:	d104      	bne.n	4a20 <alt_gpt_int_clear_pending+0x54>
    4a16:	4b08      	ldr	r3, [pc, #32]	; (4a38 <alt_gpt_int_clear_pending+0x6c>)
    4a18:	e7f1      	b.n	49fe <alt_gpt_int_clear_pending+0x32>
    4a1a:	f04f 30ff 	mov.w	r0, #4294967295
    4a1e:	bd08      	pop	{r3, pc}
    4a20:	f06f 0008 	mvn.w	r0, #8
    4a24:	bd08      	pop	{r3, pc}
    4a26:	bf00      	nop
    4a28:	fffec60c 	.word	0xfffec60c
    4a2c:	ffd000a4 	.word	0xffd000a4
    4a30:	ffd010a4 	.word	0xffd010a4
    4a34:	ffc080a4 	.word	0xffc080a4
    4a38:	ffc090a4 	.word	0xffc090a4

00004a3c <alt_gpt_tmr_reset>:
    4a3c:	b510      	push	{r4, lr}
    4a3e:	4604      	mov	r4, r0
    4a40:	f7ff fcc8 	bl	43d4 <alt_gpt_tmr_is_running>
    4a44:	b920      	cbnz	r0, 4a50 <alt_gpt_tmr_reset+0x14>
    4a46:	4620      	mov	r0, r4
    4a48:	f7ff fc8a 	bl	4360 <alt_gpt_tmr_start>
    4a4c:	b130      	cbz	r0, 4a5c <alt_gpt_tmr_reset+0x20>
    4a4e:	bd10      	pop	{r4, pc}
    4a50:	4620      	mov	r0, r4
    4a52:	f7ff fc4b 	bl	42ec <alt_gpt_tmr_stop>
    4a56:	2800      	cmp	r0, #0
    4a58:	d0f5      	beq.n	4a46 <alt_gpt_tmr_reset+0xa>
    4a5a:	bd10      	pop	{r4, pc}
    4a5c:	4620      	mov	r0, r4
    4a5e:	e8bd 4010 	ldmia.w	sp!, {r4, lr}
    4a62:	f7ff bfb3 	b.w	49cc <alt_gpt_int_clear_pending>
	...

00004a68 <alt_gpt_int_disable>:
    4a68:	b538      	push	{r3, r4, r5, lr}
    4a6a:	4604      	mov	r4, r0
    4a6c:	b938      	cbnz	r0, 4a7e <alt_gpt_int_disable+0x16>
    4a6e:	f7fe ffcd 	bl	3a0c <alt_globaltmr_int_disable>
    4a72:	4605      	mov	r5, r0
    4a74:	4620      	mov	r0, r4
    4a76:	f7ff ffa9 	bl	49cc <alt_gpt_int_clear_pending>
    4a7a:	4628      	mov	r0, r5
    4a7c:	bd38      	pop	{r3, r4, r5, pc}
    4a7e:	2802      	cmp	r0, #2
    4a80:	d103      	bne.n	4a8a <alt_gpt_int_disable+0x22>
    4a82:	2000      	movs	r0, #0
    4a84:	f000 fbc6 	bl	5214 <alt_wdog_int_disable>
    4a88:	e7f3      	b.n	4a72 <alt_gpt_int_disable+0xa>
    4a8a:	2801      	cmp	r0, #1
    4a8c:	d106      	bne.n	4a9c <alt_gpt_int_disable+0x34>
    4a8e:	4a0f      	ldr	r2, [pc, #60]	; (4acc <alt_gpt_int_disable+0x64>)
    4a90:	6813      	ldr	r3, [r2, #0]
    4a92:	f023 0304 	bic.w	r3, r3, #4
    4a96:	6013      	str	r3, [r2, #0]
    4a98:	2500      	movs	r5, #0
    4a9a:	e7eb      	b.n	4a74 <alt_gpt_int_disable+0xc>
    4a9c:	2803      	cmp	r0, #3
    4a9e:	d00b      	beq.n	4ab8 <alt_gpt_int_disable+0x50>
    4aa0:	2804      	cmp	r0, #4
    4aa2:	d00b      	beq.n	4abc <alt_gpt_int_disable+0x54>
    4aa4:	2805      	cmp	r0, #5
    4aa6:	d00b      	beq.n	4ac0 <alt_gpt_int_disable+0x58>
    4aa8:	2806      	cmp	r0, #6
    4aaa:	d10b      	bne.n	4ac4 <alt_gpt_int_disable+0x5c>
    4aac:	4b08      	ldr	r3, [pc, #32]	; (4ad0 <alt_gpt_int_disable+0x68>)
    4aae:	681a      	ldr	r2, [r3, #0]
    4ab0:	f042 0204 	orr.w	r2, r2, #4
    4ab4:	601a      	str	r2, [r3, #0]
    4ab6:	e7ef      	b.n	4a98 <alt_gpt_int_disable+0x30>
    4ab8:	4b06      	ldr	r3, [pc, #24]	; (4ad4 <alt_gpt_int_disable+0x6c>)
    4aba:	e7f8      	b.n	4aae <alt_gpt_int_disable+0x46>
    4abc:	4b06      	ldr	r3, [pc, #24]	; (4ad8 <alt_gpt_int_disable+0x70>)
    4abe:	e7f6      	b.n	4aae <alt_gpt_int_disable+0x46>
    4ac0:	4b06      	ldr	r3, [pc, #24]	; (4adc <alt_gpt_int_disable+0x74>)
    4ac2:	e7f4      	b.n	4aae <alt_gpt_int_disable+0x46>
    4ac4:	f06f 0508 	mvn.w	r5, #8
    4ac8:	e7d7      	b.n	4a7a <alt_gpt_int_disable+0x12>
    4aca:	bf00      	nop
    4acc:	fffec608 	.word	0xfffec608
    4ad0:	ffc09008 	.word	0xffc09008
    4ad4:	ffd00008 	.word	0xffd00008
    4ad8:	ffd01008 	.word	0xffd01008
    4adc:	ffc08008 	.word	0xffc08008

00004ae0 <alt_gpt_int_is_pending>:
    4ae0:	b508      	push	{r3, lr}
    4ae2:	b910      	cbnz	r0, 4aea <alt_gpt_int_is_pending+0xa>
    4ae4:	f7fe ffc0 	bl	3a68 <alt_globaltmr_int_is_pending>
    4ae8:	bd08      	pop	{r3, pc}
    4aea:	2802      	cmp	r0, #2
    4aec:	d106      	bne.n	4afc <alt_gpt_int_is_pending+0x1c>
    4aee:	f000 f8eb 	bl	4cc8 <cpu_wdog_in_gpt_mode>
    4af2:	b1d0      	cbz	r0, 4b2a <alt_gpt_int_is_pending+0x4a>
    4af4:	2000      	movs	r0, #0
    4af6:	f000 fbb5 	bl	5264 <alt_wdog_int_is_pending>
    4afa:	bd08      	pop	{r3, pc}
    4afc:	2801      	cmp	r0, #1
    4afe:	d00c      	beq.n	4b1a <alt_gpt_int_is_pending+0x3a>
    4b00:	2803      	cmp	r0, #3
    4b02:	d00c      	beq.n	4b1e <alt_gpt_int_is_pending+0x3e>
    4b04:	2804      	cmp	r0, #4
    4b06:	d00c      	beq.n	4b22 <alt_gpt_int_is_pending+0x42>
    4b08:	2805      	cmp	r0, #5
    4b0a:	d00c      	beq.n	4b26 <alt_gpt_int_is_pending+0x46>
    4b0c:	2806      	cmp	r0, #6
    4b0e:	d10f      	bne.n	4b30 <alt_gpt_int_is_pending+0x50>
    4b10:	4b09      	ldr	r3, [pc, #36]	; (4b38 <alt_gpt_int_is_pending+0x58>)
    4b12:	6818      	ldr	r0, [r3, #0]
    4b14:	f000 0001 	and.w	r0, r0, #1
    4b18:	bd08      	pop	{r3, pc}
    4b1a:	4b08      	ldr	r3, [pc, #32]	; (4b3c <alt_gpt_int_is_pending+0x5c>)
    4b1c:	e7f9      	b.n	4b12 <alt_gpt_int_is_pending+0x32>
    4b1e:	4b08      	ldr	r3, [pc, #32]	; (4b40 <alt_gpt_int_is_pending+0x60>)
    4b20:	e7f7      	b.n	4b12 <alt_gpt_int_is_pending+0x32>
    4b22:	4b08      	ldr	r3, [pc, #32]	; (4b44 <alt_gpt_int_is_pending+0x64>)
    4b24:	e7f5      	b.n	4b12 <alt_gpt_int_is_pending+0x32>
    4b26:	4b08      	ldr	r3, [pc, #32]	; (4b48 <alt_gpt_int_is_pending+0x68>)
    4b28:	e7f3      	b.n	4b12 <alt_gpt_int_is_pending+0x32>
    4b2a:	f04f 30ff 	mov.w	r0, #4294967295
    4b2e:	bd08      	pop	{r3, pc}
    4b30:	f06f 0008 	mvn.w	r0, #8
    4b34:	bd08      	pop	{r3, pc}
    4b36:	bf00      	nop
    4b38:	ffc09010 	.word	0xffc09010
    4b3c:	fffec60c 	.word	0xfffec60c
    4b40:	ffd00010 	.word	0xffd00010
    4b44:	ffd01010 	.word	0xffd01010
    4b48:	ffc08010 	.word	0xffc08010

00004b4c <alt_gpt_int_if_pending_clear>:
    4b4c:	b508      	push	{r3, lr}
    4b4e:	b910      	cbnz	r0, 4b56 <alt_gpt_int_if_pending_clear+0xa>
    4b50:	f7fe ff92 	bl	3a78 <alt_globaltmr_int_if_pending_clear>
    4b54:	bd08      	pop	{r3, pc}
    4b56:	2802      	cmp	r0, #2
    4b58:	d106      	bne.n	4b68 <alt_gpt_int_if_pending_clear+0x1c>
    4b5a:	f000 f8b5 	bl	4cc8 <cpu_wdog_in_gpt_mode>
    4b5e:	b318      	cbz	r0, 4ba8 <alt_gpt_int_if_pending_clear+0x5c>
    4b60:	2000      	movs	r0, #0
    4b62:	f000 fbd9 	bl	5318 <alt_wdog_int_if_pending_clear>
    4b66:	bd08      	pop	{r3, pc}
    4b68:	2801      	cmp	r0, #1
    4b6a:	d106      	bne.n	4b7a <alt_gpt_int_if_pending_clear+0x2e>
    4b6c:	4a12      	ldr	r2, [pc, #72]	; (4bb8 <alt_gpt_int_if_pending_clear+0x6c>)
    4b6e:	6813      	ldr	r3, [r2, #0]
    4b70:	f013 0301 	ands.w	r3, r3, #1
    4b74:	d01b      	beq.n	4bae <alt_gpt_int_if_pending_clear+0x62>
    4b76:	6010      	str	r0, [r2, #0]
    4b78:	bd08      	pop	{r3, pc}
    4b7a:	2803      	cmp	r0, #3
    4b7c:	d108      	bne.n	4b90 <alt_gpt_int_if_pending_clear+0x44>
    4b7e:	4b0f      	ldr	r3, [pc, #60]	; (4bbc <alt_gpt_int_if_pending_clear+0x70>)
    4b80:	6818      	ldr	r0, [r3, #0]
    4b82:	f010 0001 	ands.w	r0, r0, #1
    4b86:	d016      	beq.n	4bb6 <alt_gpt_int_if_pending_clear+0x6a>
    4b88:	3b04      	subs	r3, #4
    4b8a:	2001      	movs	r0, #1
    4b8c:	681b      	ldr	r3, [r3, #0]
    4b8e:	bd08      	pop	{r3, pc}
    4b90:	2804      	cmp	r0, #4
    4b92:	d101      	bne.n	4b98 <alt_gpt_int_if_pending_clear+0x4c>
    4b94:	4b0a      	ldr	r3, [pc, #40]	; (4bc0 <alt_gpt_int_if_pending_clear+0x74>)
    4b96:	e7f3      	b.n	4b80 <alt_gpt_int_if_pending_clear+0x34>
    4b98:	2805      	cmp	r0, #5
    4b9a:	d101      	bne.n	4ba0 <alt_gpt_int_if_pending_clear+0x54>
    4b9c:	4b09      	ldr	r3, [pc, #36]	; (4bc4 <alt_gpt_int_if_pending_clear+0x78>)
    4b9e:	e7ef      	b.n	4b80 <alt_gpt_int_if_pending_clear+0x34>
    4ba0:	2806      	cmp	r0, #6
    4ba2:	d106      	bne.n	4bb2 <alt_gpt_int_if_pending_clear+0x66>
    4ba4:	4b08      	ldr	r3, [pc, #32]	; (4bc8 <alt_gpt_int_if_pending_clear+0x7c>)
    4ba6:	e7eb      	b.n	4b80 <alt_gpt_int_if_pending_clear+0x34>
    4ba8:	f04f 30ff 	mov.w	r0, #4294967295
    4bac:	bd08      	pop	{r3, pc}
    4bae:	4618      	mov	r0, r3
    4bb0:	bd08      	pop	{r3, pc}
    4bb2:	f06f 0008 	mvn.w	r0, #8
    4bb6:	bd08      	pop	{r3, pc}
    4bb8:	fffec60c 	.word	0xfffec60c
    4bbc:	ffd00010 	.word	0xffd00010
    4bc0:	ffd01010 	.word	0xffd01010
    4bc4:	ffc08010 	.word	0xffc08010
    4bc8:	ffc09010 	.word	0xffc09010

00004bcc <alt_gpt_mode_set>:
    4bcc:	2901      	cmp	r1, #1
    4bce:	d835      	bhi.n	4c3c <alt_gpt_mode_set+0x70>
    4bd0:	b928      	cbnz	r0, 4bde <alt_gpt_mode_set+0x12>
    4bd2:	2901      	cmp	r1, #1
    4bd4:	d101      	bne.n	4bda <alt_gpt_mode_set+0xe>
    4bd6:	f7fe bef9 	b.w	39cc <alt_globaltmr_autoinc_mode_start>
    4bda:	f7fe bf01 	b.w	39e0 <alt_globaltmr_autoinc_mode_stop>
    4bde:	2802      	cmp	r0, #2
    4be0:	d107      	bne.n	4bf2 <alt_gpt_mode_set+0x26>
    4be2:	2900      	cmp	r1, #0
    4be4:	f04f 0000 	mov.w	r0, #0
    4be8:	bf0c      	ite	eq
    4bea:	2102      	moveq	r1, #2
    4bec:	2103      	movne	r1, #3
    4bee:	f000 bbb7 	b.w	5360 <alt_wdog_response_mode_set>
    4bf2:	2801      	cmp	r0, #1
    4bf4:	d10a      	bne.n	4c0c <alt_gpt_mode_set+0x40>
    4bf6:	4a13      	ldr	r2, [pc, #76]	; (4c44 <alt_gpt_mode_set+0x78>)
    4bf8:	2901      	cmp	r1, #1
    4bfa:	6813      	ldr	r3, [r2, #0]
    4bfc:	bf0c      	ite	eq
    4bfe:	f043 0302 	orreq.w	r3, r3, #2
    4c02:	f023 0302 	bicne.w	r3, r3, #2
    4c06:	6013      	str	r3, [r2, #0]
    4c08:	2000      	movs	r0, #0
    4c0a:	4770      	bx	lr
    4c0c:	2803      	cmp	r0, #3
    4c0e:	d00c      	beq.n	4c2a <alt_gpt_mode_set+0x5e>
    4c10:	2804      	cmp	r0, #4
    4c12:	d00c      	beq.n	4c2e <alt_gpt_mode_set+0x62>
    4c14:	2805      	cmp	r0, #5
    4c16:	d00c      	beq.n	4c32 <alt_gpt_mode_set+0x66>
    4c18:	2806      	cmp	r0, #6
    4c1a:	d10f      	bne.n	4c3c <alt_gpt_mode_set+0x70>
    4c1c:	4b0a      	ldr	r3, [pc, #40]	; (4c48 <alt_gpt_mode_set+0x7c>)
    4c1e:	681a      	ldr	r2, [r3, #0]
    4c20:	b949      	cbnz	r1, 4c36 <alt_gpt_mode_set+0x6a>
    4c22:	f022 0202 	bic.w	r2, r2, #2
    4c26:	601a      	str	r2, [r3, #0]
    4c28:	e7ee      	b.n	4c08 <alt_gpt_mode_set+0x3c>
    4c2a:	4b08      	ldr	r3, [pc, #32]	; (4c4c <alt_gpt_mode_set+0x80>)
    4c2c:	e7f7      	b.n	4c1e <alt_gpt_mode_set+0x52>
    4c2e:	4b08      	ldr	r3, [pc, #32]	; (4c50 <alt_gpt_mode_set+0x84>)
    4c30:	e7f5      	b.n	4c1e <alt_gpt_mode_set+0x52>
    4c32:	4b08      	ldr	r3, [pc, #32]	; (4c54 <alt_gpt_mode_set+0x88>)
    4c34:	e7f3      	b.n	4c1e <alt_gpt_mode_set+0x52>
    4c36:	f042 0202 	orr.w	r2, r2, #2
    4c3a:	e7f4      	b.n	4c26 <alt_gpt_mode_set+0x5a>
    4c3c:	f06f 0008 	mvn.w	r0, #8
    4c40:	4770      	bx	lr
    4c42:	bf00      	nop
    4c44:	fffec608 	.word	0xfffec608
    4c48:	ffc09008 	.word	0xffc09008
    4c4c:	ffd00008 	.word	0xffd00008
    4c50:	ffd01008 	.word	0xffd01008
    4c54:	ffc08008 	.word	0xffc08008

00004c58 <alt_gpt_mode_get>:
    4c58:	b508      	push	{r3, lr}
    4c5a:	b910      	cbnz	r0, 4c62 <alt_gpt_mode_get+0xa>
    4c5c:	f7fe feca 	bl	39f4 <alt_globaltmr_is_autoinc_mode>
    4c60:	bd08      	pop	{r3, pc}
    4c62:	2802      	cmp	r0, #2
    4c64:	d10a      	bne.n	4c7c <alt_gpt_mode_get+0x24>
    4c66:	2000      	movs	r0, #0
    4c68:	f000 fba8 	bl	53bc <alt_wdog_response_mode_get>
    4c6c:	2802      	cmp	r0, #2
    4c6e:	d01c      	beq.n	4caa <alt_gpt_mode_get+0x52>
    4c70:	2803      	cmp	r0, #3
    4c72:	bf0c      	ite	eq
    4c74:	2001      	moveq	r0, #1
    4c76:	f04f 30ff 	movne.w	r0, #4294967295
    4c7a:	bd08      	pop	{r3, pc}
    4c7c:	2801      	cmp	r0, #1
    4c7e:	d104      	bne.n	4c8a <alt_gpt_mode_get+0x32>
    4c80:	4b0c      	ldr	r3, [pc, #48]	; (4cb4 <alt_gpt_mode_get+0x5c>)
    4c82:	6818      	ldr	r0, [r3, #0]
    4c84:	f3c0 0040 	ubfx	r0, r0, #1, #1
    4c88:	bd08      	pop	{r3, pc}
    4c8a:	2803      	cmp	r0, #3
    4c8c:	d007      	beq.n	4c9e <alt_gpt_mode_get+0x46>
    4c8e:	2804      	cmp	r0, #4
    4c90:	d007      	beq.n	4ca2 <alt_gpt_mode_get+0x4a>
    4c92:	2805      	cmp	r0, #5
    4c94:	d007      	beq.n	4ca6 <alt_gpt_mode_get+0x4e>
    4c96:	2806      	cmp	r0, #6
    4c98:	d109      	bne.n	4cae <alt_gpt_mode_get+0x56>
    4c9a:	4b07      	ldr	r3, [pc, #28]	; (4cb8 <alt_gpt_mode_get+0x60>)
    4c9c:	e7f1      	b.n	4c82 <alt_gpt_mode_get+0x2a>
    4c9e:	4b07      	ldr	r3, [pc, #28]	; (4cbc <alt_gpt_mode_get+0x64>)
    4ca0:	e7ef      	b.n	4c82 <alt_gpt_mode_get+0x2a>
    4ca2:	4b07      	ldr	r3, [pc, #28]	; (4cc0 <alt_gpt_mode_get+0x68>)
    4ca4:	e7ed      	b.n	4c82 <alt_gpt_mode_get+0x2a>
    4ca6:	4b07      	ldr	r3, [pc, #28]	; (4cc4 <alt_gpt_mode_get+0x6c>)
    4ca8:	e7eb      	b.n	4c82 <alt_gpt_mode_get+0x2a>
    4caa:	2000      	movs	r0, #0
    4cac:	bd08      	pop	{r3, pc}
    4cae:	f06f 0008 	mvn.w	r0, #8
    4cb2:	bd08      	pop	{r3, pc}
    4cb4:	fffec608 	.word	0xfffec608
    4cb8:	ffc09008 	.word	0xffc09008
    4cbc:	ffd00008 	.word	0xffd00008
    4cc0:	ffd01008 	.word	0xffd01008
    4cc4:	ffc08008 	.word	0xffc08008

00004cc8 <cpu_wdog_in_gpt_mode>:
    4cc8:	4b03      	ldr	r3, [pc, #12]	; (4cd8 <cpu_wdog_in_gpt_mode+0x10>)
    4cca:	6818      	ldr	r0, [r3, #0]
    4ccc:	f080 0008 	eor.w	r0, r0, #8
    4cd0:	f3c0 00c0 	ubfx	r0, r0, #3, #1
    4cd4:	4770      	bx	lr
    4cd6:	bf00      	nop
    4cd8:	fffec628 	.word	0xfffec628

00004cdc <alt_ARM_wdog_gpt_mode_set>:
    4cdc:	b510      	push	{r4, lr}
    4cde:	4905      	ldr	r1, [pc, #20]	; (4cf4 <alt_ARM_wdog_gpt_mode_set+0x18>)
    4ce0:	4b05      	ldr	r3, [pc, #20]	; (4cf8 <alt_ARM_wdog_gpt_mode_set+0x1c>)
    4ce2:	4806      	ldr	r0, [pc, #24]	; (4cfc <alt_ARM_wdog_gpt_mode_set+0x20>)
    4ce4:	4c06      	ldr	r4, [pc, #24]	; (4d00 <alt_ARM_wdog_gpt_mode_set+0x24>)
    4ce6:	680a      	ldr	r2, [r1, #0]
    4ce8:	0712      	lsls	r2, r2, #28
    4cea:	d400      	bmi.n	4cee <alt_ARM_wdog_gpt_mode_set+0x12>
    4cec:	bd10      	pop	{r4, pc}
    4cee:	6018      	str	r0, [r3, #0]
    4cf0:	601c      	str	r4, [r3, #0]
    4cf2:	e7f8      	b.n	4ce6 <alt_ARM_wdog_gpt_mode_set+0xa>
    4cf4:	fffec628 	.word	0xfffec628
    4cf8:	fffec634 	.word	0xfffec634
    4cfc:	12345678 	.word	0x12345678
    4d00:	87654321 	.word	0x87654321

00004d04 <alt_ARM_wdog_wdog_mode_set>:
    4d04:	4a02      	ldr	r2, [pc, #8]	; (4d10 <alt_ARM_wdog_wdog_mode_set+0xc>)
    4d06:	6813      	ldr	r3, [r2, #0]
    4d08:	f043 0308 	orr.w	r3, r3, #8
    4d0c:	6013      	str	r3, [r2, #0]
    4d0e:	4770      	bx	lr
    4d10:	fffec628 	.word	0xfffec628

00004d14 <alt_wdog_uninit>:
    4d14:	4a11      	ldr	r2, [pc, #68]	; (4d5c <alt_wdog_uninit+0x48>)
    4d16:	b510      	push	{r4, lr}
    4d18:	4c11      	ldr	r4, [pc, #68]	; (4d60 <alt_wdog_uninit+0x4c>)
    4d1a:	6813      	ldr	r3, [r2, #0]
    4d1c:	f043 03c0 	orr.w	r3, r3, #192	; 0xc0
    4d20:	6013      	str	r3, [r2, #0]
    4d22:	2200      	movs	r2, #0
    4d24:	6823      	ldr	r3, [r4, #0]
    4d26:	f023 0305 	bic.w	r3, r3, #5
    4d2a:	6023      	str	r3, [r4, #0]
    4d2c:	4b0d      	ldr	r3, [pc, #52]	; (4d64 <alt_wdog_uninit+0x50>)
    4d2e:	601a      	str	r2, [r3, #0]
    4d30:	2301      	movs	r3, #1
    4d32:	4a0d      	ldr	r2, [pc, #52]	; (4d68 <alt_wdog_uninit+0x54>)
    4d34:	6013      	str	r3, [r2, #0]
    4d36:	f842 3c04 	str.w	r3, [r2, #-4]
    4d3a:	f7ff ffcf 	bl	4cdc <alt_ARM_wdog_gpt_mode_set>
    4d3e:	6823      	ldr	r3, [r4, #0]
    4d40:	f423 437f 	bic.w	r3, r3, #65280	; 0xff00
    4d44:	f023 030f 	bic.w	r3, r3, #15
    4d48:	6023      	str	r3, [r4, #0]
    4d4a:	f64f 730f 	movw	r3, #65295	; 0xff0f
    4d4e:	6822      	ldr	r2, [r4, #0]
    4d50:	421a      	tst	r2, r3
    4d52:	bf14      	ite	ne
    4d54:	f04f 30ff 	movne.w	r0, #4294967295
    4d58:	2000      	moveq	r0, #0
    4d5a:	bd10      	pop	{r4, pc}
    4d5c:	ffd05014 	.word	0xffd05014
    4d60:	fffec628 	.word	0xfffec628
    4d64:	fffec620 	.word	0xfffec620
    4d68:	fffec630 	.word	0xfffec630

00004d6c <alt_wdog_init>:
    4d6c:	b508      	push	{r3, lr}
    4d6e:	f7ff ffd1 	bl	4d14 <alt_wdog_uninit>
    4d72:	2000      	movs	r0, #0
    4d74:	4a05      	ldr	r2, [pc, #20]	; (4d8c <alt_wdog_init+0x20>)
    4d76:	6813      	ldr	r3, [r2, #0]
    4d78:	f023 03c0 	bic.w	r3, r3, #192	; 0xc0
    4d7c:	6013      	str	r3, [r2, #0]
    4d7e:	f852 3c04 	ldr.w	r3, [r2, #-4]
    4d82:	f023 0304 	bic.w	r3, r3, #4
    4d86:	f842 3c04 	str.w	r3, [r2, #-4]
    4d8a:	bd08      	pop	{r3, pc}
    4d8c:	ffd05014 	.word	0xffd05014

00004d90 <alt_wdog_stop>:
    4d90:	b570      	push	{r4, r5, r6, lr}
    4d92:	b928      	cbnz	r0, 4da0 <alt_wdog_stop+0x10>
    4d94:	4a1c      	ldr	r2, [pc, #112]	; (4e08 <alt_wdog_stop+0x78>)
    4d96:	6813      	ldr	r3, [r2, #0]
    4d98:	f023 0301 	bic.w	r3, r3, #1
    4d9c:	6013      	str	r3, [r2, #0]
    4d9e:	bd70      	pop	{r4, r5, r6, pc}
    4da0:	f020 0302 	bic.w	r3, r0, #2
    4da4:	2b01      	cmp	r3, #1
    4da6:	d115      	bne.n	4dd4 <alt_wdog_stop+0x44>
    4da8:	4b18      	ldr	r3, [pc, #96]	; (4e0c <alt_wdog_stop+0x7c>)
    4daa:	4a19      	ldr	r2, [pc, #100]	; (4e10 <alt_wdog_stop+0x80>)
    4dac:	4919      	ldr	r1, [pc, #100]	; (4e14 <alt_wdog_stop+0x84>)
    4dae:	6814      	ldr	r4, [r2, #0]
    4db0:	680e      	ldr	r6, [r1, #0]
    4db2:	6818      	ldr	r0, [r3, #0]
    4db4:	f040 0040 	orr.w	r0, r0, #64	; 0x40
    4db8:	6018      	str	r0, [r3, #0]
    4dba:	2008      	movs	r0, #8
    4dbc:	3801      	subs	r0, #1
    4dbe:	681d      	ldr	r5, [r3, #0]
    4dc0:	d1fc      	bne.n	4dbc <alt_wdog_stop+0x2c>
    4dc2:	681d      	ldr	r5, [r3, #0]
    4dc4:	f024 0401 	bic.w	r4, r4, #1
    4dc8:	f025 0540 	bic.w	r5, r5, #64	; 0x40
    4dcc:	601d      	str	r5, [r3, #0]
    4dce:	600e      	str	r6, [r1, #0]
    4dd0:	6014      	str	r4, [r2, #0]
    4dd2:	bd70      	pop	{r4, r5, r6, pc}
    4dd4:	2802      	cmp	r0, #2
    4dd6:	d001      	beq.n	4ddc <alt_wdog_stop+0x4c>
    4dd8:	2804      	cmp	r0, #4
    4dda:	d112      	bne.n	4e02 <alt_wdog_stop+0x72>
    4ddc:	4b0b      	ldr	r3, [pc, #44]	; (4e0c <alt_wdog_stop+0x7c>)
    4dde:	480e      	ldr	r0, [pc, #56]	; (4e18 <alt_wdog_stop+0x88>)
    4de0:	4c0e      	ldr	r4, [pc, #56]	; (4e1c <alt_wdog_stop+0x8c>)
    4de2:	6802      	ldr	r2, [r0, #0]
    4de4:	6825      	ldr	r5, [r4, #0]
    4de6:	6819      	ldr	r1, [r3, #0]
    4de8:	f022 0201 	bic.w	r2, r2, #1
    4dec:	f041 0180 	orr.w	r1, r1, #128	; 0x80
    4df0:	6019      	str	r1, [r3, #0]
    4df2:	6819      	ldr	r1, [r3, #0]
    4df4:	f021 0180 	bic.w	r1, r1, #128	; 0x80
    4df8:	6019      	str	r1, [r3, #0]
    4dfa:	6025      	str	r5, [r4, #0]
    4dfc:	6002      	str	r2, [r0, #0]
    4dfe:	2000      	movs	r0, #0
    4e00:	bd70      	pop	{r4, r5, r6, pc}
    4e02:	f06f 0008 	mvn.w	r0, #8
    4e06:	bd70      	pop	{r4, r5, r6, pc}
    4e08:	fffec628 	.word	0xfffec628
    4e0c:	ffd05014 	.word	0xffd05014
    4e10:	ffd02000 	.word	0xffd02000
    4e14:	ffd02004 	.word	0xffd02004
    4e18:	ffd03000 	.word	0xffd03000
    4e1c:	ffd03004 	.word	0xffd03004

00004e20 <alt_wdog_start>:
    4e20:	b928      	cbnz	r0, 4e2e <alt_wdog_start+0xe>
    4e22:	4a0d      	ldr	r2, [pc, #52]	; (4e58 <alt_wdog_start+0x38>)
    4e24:	6813      	ldr	r3, [r2, #0]
    4e26:	f043 0301 	orr.w	r3, r3, #1
    4e2a:	6013      	str	r3, [r2, #0]
    4e2c:	4770      	bx	lr
    4e2e:	f020 0302 	bic.w	r3, r0, #2
    4e32:	2b01      	cmp	r3, #1
    4e34:	d106      	bne.n	4e44 <alt_wdog_start+0x24>
    4e36:	4a09      	ldr	r2, [pc, #36]	; (4e5c <alt_wdog_start+0x3c>)
    4e38:	6813      	ldr	r3, [r2, #0]
    4e3a:	2000      	movs	r0, #0
    4e3c:	f043 0301 	orr.w	r3, r3, #1
    4e40:	6013      	str	r3, [r2, #0]
    4e42:	4770      	bx	lr
    4e44:	2802      	cmp	r0, #2
    4e46:	d001      	beq.n	4e4c <alt_wdog_start+0x2c>
    4e48:	2804      	cmp	r0, #4
    4e4a:	d101      	bne.n	4e50 <alt_wdog_start+0x30>
    4e4c:	4a04      	ldr	r2, [pc, #16]	; (4e60 <alt_wdog_start+0x40>)
    4e4e:	e7f3      	b.n	4e38 <alt_wdog_start+0x18>
    4e50:	f06f 0008 	mvn.w	r0, #8
    4e54:	4770      	bx	lr
    4e56:	bf00      	nop
    4e58:	fffec628 	.word	0xfffec628
    4e5c:	ffd02000 	.word	0xffd02000
    4e60:	ffd03000 	.word	0xffd03000

00004e64 <alt_wdog_tmr_is_enabled>:
    4e64:	b920      	cbnz	r0, 4e70 <alt_wdog_tmr_is_enabled+0xc>
    4e66:	4b09      	ldr	r3, [pc, #36]	; (4e8c <alt_wdog_tmr_is_enabled+0x28>)
    4e68:	6818      	ldr	r0, [r3, #0]
    4e6a:	f000 0001 	and.w	r0, r0, #1
    4e6e:	4770      	bx	lr
    4e70:	f020 0302 	bic.w	r3, r0, #2
    4e74:	2b01      	cmp	r3, #1
    4e76:	d101      	bne.n	4e7c <alt_wdog_tmr_is_enabled+0x18>
    4e78:	4b05      	ldr	r3, [pc, #20]	; (4e90 <alt_wdog_tmr_is_enabled+0x2c>)
    4e7a:	e7f5      	b.n	4e68 <alt_wdog_tmr_is_enabled+0x4>
    4e7c:	2802      	cmp	r0, #2
    4e7e:	d001      	beq.n	4e84 <alt_wdog_tmr_is_enabled+0x20>
    4e80:	2804      	cmp	r0, #4
    4e82:	d101      	bne.n	4e88 <alt_wdog_tmr_is_enabled+0x24>
    4e84:	4b03      	ldr	r3, [pc, #12]	; (4e94 <alt_wdog_tmr_is_enabled+0x30>)
    4e86:	e7ef      	b.n	4e68 <alt_wdog_tmr_is_enabled+0x4>
    4e88:	2000      	movs	r0, #0
    4e8a:	4770      	bx	lr
    4e8c:	fffec628 	.word	0xfffec628
    4e90:	ffd02000 	.word	0xffd02000
    4e94:	ffd03000 	.word	0xffd03000

00004e98 <alt_wdog_reset>:
    4e98:	b980      	cbnz	r0, 4ebc <alt_wdog_reset+0x24>
    4e9a:	4b11      	ldr	r3, [pc, #68]	; (4ee0 <alt_wdog_reset+0x48>)
    4e9c:	681a      	ldr	r2, [r3, #0]
    4e9e:	3308      	adds	r3, #8
    4ea0:	f843 2c08 	str.w	r2, [r3, #-8]
    4ea4:	2201      	movs	r2, #1
    4ea6:	681b      	ldr	r3, [r3, #0]
    4ea8:	f013 0308 	ands.w	r3, r3, #8
    4eac:	d002      	beq.n	4eb4 <alt_wdog_reset+0x1c>
    4eae:	4b0d      	ldr	r3, [pc, #52]	; (4ee4 <alt_wdog_reset+0x4c>)
    4eb0:	601a      	str	r2, [r3, #0]
    4eb2:	4770      	bx	lr
    4eb4:	490c      	ldr	r1, [pc, #48]	; (4ee8 <alt_wdog_reset+0x50>)
    4eb6:	600a      	str	r2, [r1, #0]
    4eb8:	2000      	movs	r0, #0
    4eba:	4770      	bx	lr
    4ebc:	f020 0302 	bic.w	r3, r0, #2
    4ec0:	2b01      	cmp	r3, #1
    4ec2:	d103      	bne.n	4ecc <alt_wdog_reset+0x34>
    4ec4:	4b09      	ldr	r3, [pc, #36]	; (4eec <alt_wdog_reset+0x54>)
    4ec6:	2276      	movs	r2, #118	; 0x76
    4ec8:	601a      	str	r2, [r3, #0]
    4eca:	e7f5      	b.n	4eb8 <alt_wdog_reset+0x20>
    4ecc:	2802      	cmp	r0, #2
    4ece:	d001      	beq.n	4ed4 <alt_wdog_reset+0x3c>
    4ed0:	2804      	cmp	r0, #4
    4ed2:	d102      	bne.n	4eda <alt_wdog_reset+0x42>
    4ed4:	2276      	movs	r2, #118	; 0x76
    4ed6:	4b06      	ldr	r3, [pc, #24]	; (4ef0 <alt_wdog_reset+0x58>)
    4ed8:	e7f6      	b.n	4ec8 <alt_wdog_reset+0x30>
    4eda:	f06f 0008 	mvn.w	r0, #8
    4ede:	4770      	bx	lr
    4ee0:	fffec620 	.word	0xfffec620
    4ee4:	fffec630 	.word	0xfffec630
    4ee8:	fffec62c 	.word	0xfffec62c
    4eec:	ffd0200c 	.word	0xffd0200c
    4ef0:	ffd0300c 	.word	0xffd0300c

00004ef4 <alt_wdog_counter_set>:
    4ef4:	b910      	cbnz	r0, 4efc <alt_wdog_counter_set+0x8>
    4ef6:	4b11      	ldr	r3, [pc, #68]	; (4f3c <alt_wdog_counter_set+0x48>)
    4ef8:	6019      	str	r1, [r3, #0]
    4efa:	4770      	bx	lr
    4efc:	290f      	cmp	r1, #15
    4efe:	d81a      	bhi.n	4f36 <alt_wdog_counter_set+0x42>
    4f00:	2801      	cmp	r0, #1
    4f02:	d107      	bne.n	4f14 <alt_wdog_counter_set+0x20>
    4f04:	4a0e      	ldr	r2, [pc, #56]	; (4f40 <alt_wdog_counter_set+0x4c>)
    4f06:	6813      	ldr	r3, [r2, #0]
    4f08:	f023 030f 	bic.w	r3, r3, #15
    4f0c:	4319      	orrs	r1, r3
    4f0e:	6011      	str	r1, [r2, #0]
    4f10:	2000      	movs	r0, #0
    4f12:	4770      	bx	lr
    4f14:	2802      	cmp	r0, #2
    4f16:	d101      	bne.n	4f1c <alt_wdog_counter_set+0x28>
    4f18:	4a0a      	ldr	r2, [pc, #40]	; (4f44 <alt_wdog_counter_set+0x50>)
    4f1a:	e7f4      	b.n	4f06 <alt_wdog_counter_set+0x12>
    4f1c:	2803      	cmp	r0, #3
    4f1e:	d106      	bne.n	4f2e <alt_wdog_counter_set+0x3a>
    4f20:	4a07      	ldr	r2, [pc, #28]	; (4f40 <alt_wdog_counter_set+0x4c>)
    4f22:	6813      	ldr	r3, [r2, #0]
    4f24:	f023 03f0 	bic.w	r3, r3, #240	; 0xf0
    4f28:	ea43 1101 	orr.w	r1, r3, r1, lsl #4
    4f2c:	e7ef      	b.n	4f0e <alt_wdog_counter_set+0x1a>
    4f2e:	2804      	cmp	r0, #4
    4f30:	d101      	bne.n	4f36 <alt_wdog_counter_set+0x42>
    4f32:	4a04      	ldr	r2, [pc, #16]	; (4f44 <alt_wdog_counter_set+0x50>)
    4f34:	e7f5      	b.n	4f22 <alt_wdog_counter_set+0x2e>
    4f36:	f06f 0008 	mvn.w	r0, #8
    4f3a:	4770      	bx	lr
    4f3c:	fffec620 	.word	0xfffec620
    4f40:	ffd02004 	.word	0xffd02004
    4f44:	ffd03004 	.word	0xffd03004

00004f48 <alt_wdog_counter_get_current>:
    4f48:	b910      	cbnz	r0, 4f50 <alt_wdog_counter_get_current+0x8>
    4f4a:	4b08      	ldr	r3, [pc, #32]	; (4f6c <alt_wdog_counter_get_current+0x24>)
    4f4c:	6818      	ldr	r0, [r3, #0]
    4f4e:	4770      	bx	lr
    4f50:	f020 0302 	bic.w	r3, r0, #2
    4f54:	2b01      	cmp	r3, #1
    4f56:	d101      	bne.n	4f5c <alt_wdog_counter_get_current+0x14>
    4f58:	4b05      	ldr	r3, [pc, #20]	; (4f70 <alt_wdog_counter_get_current+0x28>)
    4f5a:	e7f7      	b.n	4f4c <alt_wdog_counter_get_current+0x4>
    4f5c:	2802      	cmp	r0, #2
    4f5e:	d001      	beq.n	4f64 <alt_wdog_counter_get_current+0x1c>
    4f60:	2804      	cmp	r0, #4
    4f62:	d101      	bne.n	4f68 <alt_wdog_counter_get_current+0x20>
    4f64:	4b03      	ldr	r3, [pc, #12]	; (4f74 <alt_wdog_counter_get_current+0x2c>)
    4f66:	e7f1      	b.n	4f4c <alt_wdog_counter_get_current+0x4>
    4f68:	2000      	movs	r0, #0
    4f6a:	4770      	bx	lr
    4f6c:	fffec624 	.word	0xfffec624
    4f70:	ffd02008 	.word	0xffd02008
    4f74:	ffd03008 	.word	0xffd03008

00004f78 <alt_wdog_counter_get_init>:
    4f78:	b910      	cbnz	r0, 4f80 <alt_wdog_counter_get_init+0x8>
    4f7a:	4b0f      	ldr	r3, [pc, #60]	; (4fb8 <alt_wdog_counter_get_init+0x40>)
    4f7c:	6818      	ldr	r0, [r3, #0]
    4f7e:	4770      	bx	lr
    4f80:	2801      	cmp	r0, #1
    4f82:	d107      	bne.n	4f94 <alt_wdog_counter_get_init+0x1c>
    4f84:	4b0d      	ldr	r3, [pc, #52]	; (4fbc <alt_wdog_counter_get_init+0x44>)
    4f86:	681b      	ldr	r3, [r3, #0]
    4f88:	f003 030f 	and.w	r3, r3, #15
    4f8c:	f44f 3080 	mov.w	r0, #65536	; 0x10000
    4f90:	4098      	lsls	r0, r3
    4f92:	4770      	bx	lr
    4f94:	2802      	cmp	r0, #2
    4f96:	d101      	bne.n	4f9c <alt_wdog_counter_get_init+0x24>
    4f98:	4b09      	ldr	r3, [pc, #36]	; (4fc0 <alt_wdog_counter_get_init+0x48>)
    4f9a:	e7f4      	b.n	4f86 <alt_wdog_counter_get_init+0xe>
    4f9c:	2803      	cmp	r0, #3
    4f9e:	d104      	bne.n	4faa <alt_wdog_counter_get_init+0x32>
    4fa0:	4b06      	ldr	r3, [pc, #24]	; (4fbc <alt_wdog_counter_get_init+0x44>)
    4fa2:	681b      	ldr	r3, [r3, #0]
    4fa4:	f3c3 1303 	ubfx	r3, r3, #4, #4
    4fa8:	e7f0      	b.n	4f8c <alt_wdog_counter_get_init+0x14>
    4faa:	2804      	cmp	r0, #4
    4fac:	d101      	bne.n	4fb2 <alt_wdog_counter_get_init+0x3a>
    4fae:	4b04      	ldr	r3, [pc, #16]	; (4fc0 <alt_wdog_counter_get_init+0x48>)
    4fb0:	e7f7      	b.n	4fa2 <alt_wdog_counter_get_init+0x2a>
    4fb2:	2000      	movs	r0, #0
    4fb4:	4770      	bx	lr
    4fb6:	bf00      	nop
    4fb8:	fffec620 	.word	0xfffec620
    4fbc:	ffd02004 	.word	0xffd02004
    4fc0:	ffd03004 	.word	0xffd03004

00004fc4 <alt_wdog_core_prescaler_set>:
    4fc4:	28ff      	cmp	r0, #255	; 0xff
    4fc6:	d80c      	bhi.n	4fe2 <alt_wdog_core_prescaler_set+0x1e>
    4fc8:	4909      	ldr	r1, [pc, #36]	; (4ff0 <alt_wdog_core_prescaler_set+0x2c>)
    4fca:	680b      	ldr	r3, [r1, #0]
    4fcc:	f013 0301 	ands.w	r3, r3, #1
    4fd0:	d10a      	bne.n	4fe8 <alt_wdog_core_prescaler_set+0x24>
    4fd2:	680a      	ldr	r2, [r1, #0]
    4fd4:	f422 427f 	bic.w	r2, r2, #65280	; 0xff00
    4fd8:	ea42 2000 	orr.w	r0, r2, r0, lsl #8
    4fdc:	6008      	str	r0, [r1, #0]
    4fde:	4618      	mov	r0, r3
    4fe0:	4770      	bx	lr
    4fe2:	f06f 0008 	mvn.w	r0, #8
    4fe6:	4770      	bx	lr
    4fe8:	f04f 30ff 	mov.w	r0, #4294967295
    4fec:	4770      	bx	lr
    4fee:	bf00      	nop
    4ff0:	fffec628 	.word	0xfffec628

00004ff4 <alt_wdog_core_prescaler_get>:
    4ff4:	4b02      	ldr	r3, [pc, #8]	; (5000 <alt_wdog_core_prescaler_get+0xc>)
    4ff6:	6818      	ldr	r0, [r3, #0]
    4ff8:	f3c0 2007 	ubfx	r0, r0, #8, #8
    4ffc:	4770      	bx	lr
    4ffe:	bf00      	nop
    5000:	fffec628 	.word	0xfffec628

00005004 <alt_wdog_counter_get_curtime_millisecs>:
    5004:	b513      	push	{r0, r1, r4, lr}
    5006:	4604      	mov	r4, r0
    5008:	b128      	cbz	r0, 5016 <alt_wdog_counter_get_curtime_millisecs+0x12>
    500a:	1e43      	subs	r3, r0, #1
    500c:	2b03      	cmp	r3, #3
    500e:	d928      	bls.n	5062 <alt_wdog_counter_get_curtime_millisecs+0x5e>
    5010:	2000      	movs	r0, #0
    5012:	b002      	add	sp, #8
    5014:	bd10      	pop	{r4, pc}
    5016:	2015      	movs	r0, #21
    5018:	a901      	add	r1, sp, #4
    501a:	f7fd fe07 	bl	2c2c <alt_clk_freq_get>
    501e:	2800      	cmp	r0, #0
    5020:	d1f6      	bne.n	5010 <alt_wdog_counter_get_curtime_millisecs+0xc>
    5022:	9b01      	ldr	r3, [sp, #4]
    5024:	2b00      	cmp	r3, #0
    5026:	d0f3      	beq.n	5010 <alt_wdog_counter_get_curtime_millisecs+0xc>
    5028:	4620      	mov	r0, r4
    502a:	f7ff ff8d 	bl	4f48 <alt_wdog_counter_get_current>
    502e:	4601      	mov	r1, r0
    5030:	2800      	cmp	r0, #0
    5032:	d0ed      	beq.n	5010 <alt_wdog_counter_get_curtime_millisecs+0xc>
    5034:	4602      	mov	r2, r0
    5036:	2300      	movs	r3, #0
    5038:	b924      	cbnz	r4, 5044 <alt_wdog_counter_get_curtime_millisecs+0x40>
    503a:	f7ff ffdb 	bl	4ff4 <alt_wdog_core_prescaler_get>
    503e:	3001      	adds	r0, #1
    5040:	fba0 2301 	umull	r2, r3, r0, r1
    5044:	f44f 747a 	mov.w	r4, #1000	; 0x3e8
    5048:	fba2 0104 	umull	r0, r1, r2, r4
    504c:	9a01      	ldr	r2, [sp, #4]
    504e:	fb04 1103 	mla	r1, r4, r3, r1
    5052:	2300      	movs	r3, #0
    5054:	f000 eb7c 	blx	5750 <__aeabi_uldivmod>
    5058:	2901      	cmp	r1, #1
    505a:	bf08      	it	eq
    505c:	2800      	cmpeq	r0, #0
    505e:	d3d8      	bcc.n	5012 <alt_wdog_counter_get_curtime_millisecs+0xe>
    5060:	e7d6      	b.n	5010 <alt_wdog_counter_get_curtime_millisecs+0xc>
    5062:	200c      	movs	r0, #12
    5064:	e7d8      	b.n	5018 <alt_wdog_counter_get_curtime_millisecs+0x14>
	...

00005068 <alt_wdog_counter_get_inittime_nanosecs>:
    5068:	b573      	push	{r0, r1, r4, r5, r6, lr}
    506a:	4606      	mov	r6, r0
    506c:	b130      	cbz	r0, 507c <alt_wdog_counter_get_inittime_nanosecs+0x14>
    506e:	1e43      	subs	r3, r0, #1
    5070:	2b03      	cmp	r3, #3
    5072:	d928      	bls.n	50c6 <alt_wdog_counter_get_inittime_nanosecs+0x5e>
    5074:	2000      	movs	r0, #0
    5076:	2100      	movs	r1, #0
    5078:	b002      	add	sp, #8
    507a:	bd70      	pop	{r4, r5, r6, pc}
    507c:	2015      	movs	r0, #21
    507e:	a901      	add	r1, sp, #4
    5080:	f7fd fdd4 	bl	2c2c <alt_clk_freq_get>
    5084:	2800      	cmp	r0, #0
    5086:	d1f5      	bne.n	5074 <alt_wdog_counter_get_inittime_nanosecs+0xc>
    5088:	9b01      	ldr	r3, [sp, #4]
    508a:	2b00      	cmp	r3, #0
    508c:	d0f2      	beq.n	5074 <alt_wdog_counter_get_inittime_nanosecs+0xc>
    508e:	4630      	mov	r0, r6
    5090:	2500      	movs	r5, #0
    5092:	f7ff ff71 	bl	4f78 <alt_wdog_counter_get_init>
    5096:	2800      	cmp	r0, #0
    5098:	d0ec      	beq.n	5074 <alt_wdog_counter_get_inittime_nanosecs+0xc>
    509a:	1c44      	adds	r4, r0, #1
    509c:	f145 0500 	adc.w	r5, r5, #0
    50a0:	b93e      	cbnz	r6, 50b2 <alt_wdog_counter_get_inittime_nanosecs+0x4a>
    50a2:	f7ff ffa7 	bl	4ff4 <alt_wdog_core_prescaler_get>
    50a6:	3001      	adds	r0, #1
    50a8:	fb00 f305 	mul.w	r3, r0, r5
    50ac:	fba4 4500 	umull	r4, r5, r4, r0
    50b0:	441d      	add	r5, r3
    50b2:	4b06      	ldr	r3, [pc, #24]	; (50cc <alt_wdog_counter_get_inittime_nanosecs+0x64>)
    50b4:	9a01      	ldr	r2, [sp, #4]
    50b6:	fba4 0103 	umull	r0, r1, r4, r3
    50ba:	fb03 1105 	mla	r1, r3, r5, r1
    50be:	2300      	movs	r3, #0
    50c0:	f000 eb46 	blx	5750 <__aeabi_uldivmod>
    50c4:	e7d8      	b.n	5078 <alt_wdog_counter_get_inittime_nanosecs+0x10>
    50c6:	200c      	movs	r0, #12
    50c8:	e7d9      	b.n	507e <alt_wdog_counter_get_inittime_nanosecs+0x16>
    50ca:	bf00      	nop
    50cc:	3b9aca00 	.word	0x3b9aca00

000050d0 <alt_wdog_counter_get_inittime_millisecs>:
    50d0:	b573      	push	{r0, r1, r4, r5, r6, lr}
    50d2:	4606      	mov	r6, r0
    50d4:	b128      	cbz	r0, 50e2 <alt_wdog_counter_get_inittime_millisecs+0x12>
    50d6:	1e43      	subs	r3, r0, #1
    50d8:	2b03      	cmp	r3, #3
    50da:	d92c      	bls.n	5136 <alt_wdog_counter_get_inittime_millisecs+0x66>
    50dc:	2000      	movs	r0, #0
    50de:	b002      	add	sp, #8
    50e0:	bd70      	pop	{r4, r5, r6, pc}
    50e2:	2015      	movs	r0, #21
    50e4:	a901      	add	r1, sp, #4
    50e6:	f7fd fda1 	bl	2c2c <alt_clk_freq_get>
    50ea:	2800      	cmp	r0, #0
    50ec:	d1f6      	bne.n	50dc <alt_wdog_counter_get_inittime_millisecs+0xc>
    50ee:	9b01      	ldr	r3, [sp, #4]
    50f0:	2b00      	cmp	r3, #0
    50f2:	d0f3      	beq.n	50dc <alt_wdog_counter_get_inittime_millisecs+0xc>
    50f4:	4630      	mov	r0, r6
    50f6:	f7ff ff3f 	bl	4f78 <alt_wdog_counter_get_init>
    50fa:	2800      	cmp	r0, #0
    50fc:	d0ee      	beq.n	50dc <alt_wdog_counter_get_inittime_millisecs+0xc>
    50fe:	2500      	movs	r5, #0
    5100:	1c44      	adds	r4, r0, #1
    5102:	f145 0500 	adc.w	r5, r5, #0
    5106:	b93e      	cbnz	r6, 5118 <alt_wdog_counter_get_inittime_millisecs+0x48>
    5108:	f7ff ff74 	bl	4ff4 <alt_wdog_core_prescaler_get>
    510c:	3001      	adds	r0, #1
    510e:	fb00 f305 	mul.w	r3, r0, r5
    5112:	fba4 4500 	umull	r4, r5, r4, r0
    5116:	441d      	add	r5, r3
    5118:	f44f 737a 	mov.w	r3, #1000	; 0x3e8
    511c:	9a01      	ldr	r2, [sp, #4]
    511e:	fba4 0103 	umull	r0, r1, r4, r3
    5122:	fb03 1105 	mla	r1, r3, r5, r1
    5126:	2300      	movs	r3, #0
    5128:	f000 eb12 	blx	5750 <__aeabi_uldivmod>
    512c:	2901      	cmp	r1, #1
    512e:	bf08      	it	eq
    5130:	2800      	cmpeq	r0, #0
    5132:	d3d4      	bcc.n	50de <alt_wdog_counter_get_inittime_millisecs+0xe>
    5134:	e7d2      	b.n	50dc <alt_wdog_counter_get_inittime_millisecs+0xc>
    5136:	200c      	movs	r0, #12
    5138:	e7d4      	b.n	50e4 <alt_wdog_counter_get_inittime_millisecs+0x14>

0000513a <alt_wdog_counter_get_max>:
    513a:	b130      	cbz	r0, 514a <alt_wdog_counter_get_max+0x10>
    513c:	3801      	subs	r0, #1
    513e:	2803      	cmp	r0, #3
    5140:	bf8c      	ite	hi
    5142:	2000      	movhi	r0, #0
    5144:	f04f 4000 	movls.w	r0, #2147483648	; 0x80000000
    5148:	4770      	bx	lr
    514a:	f04f 30ff 	mov.w	r0, #4294967295
    514e:	4770      	bx	lr

00005150 <alt_wdog_counter_get_max_nanosecs>:
    5150:	b573      	push	{r0, r1, r4, r5, r6, lr}
    5152:	4606      	mov	r6, r0
    5154:	b130      	cbz	r0, 5164 <alt_wdog_counter_get_max_nanosecs+0x14>
    5156:	1e43      	subs	r3, r0, #1
    5158:	2b03      	cmp	r3, #3
    515a:	d925      	bls.n	51a8 <alt_wdog_counter_get_max_nanosecs+0x58>
    515c:	2000      	movs	r0, #0
    515e:	2100      	movs	r1, #0
    5160:	b002      	add	sp, #8
    5162:	bd70      	pop	{r4, r5, r6, pc}
    5164:	2015      	movs	r0, #21
    5166:	a901      	add	r1, sp, #4
    5168:	f7fd fd60 	bl	2c2c <alt_clk_freq_get>
    516c:	2800      	cmp	r0, #0
    516e:	d1f5      	bne.n	515c <alt_wdog_counter_get_max_nanosecs+0xc>
    5170:	9a01      	ldr	r2, [sp, #4]
    5172:	2a00      	cmp	r2, #0
    5174:	d0f2      	beq.n	515c <alt_wdog_counter_get_max_nanosecs+0xc>
    5176:	4630      	mov	r0, r6
    5178:	2500      	movs	r5, #0
    517a:	f7ff ffde 	bl	513a <alt_wdog_counter_get_max>
    517e:	2800      	cmp	r0, #0
    5180:	d0ec      	beq.n	515c <alt_wdog_counter_get_max_nanosecs+0xc>
    5182:	1c44      	adds	r4, r0, #1
    5184:	f145 0500 	adc.w	r5, r5, #0
    5188:	b92e      	cbnz	r6, 5196 <alt_wdog_counter_get_max_nanosecs+0x46>
    518a:	022b      	lsls	r3, r5, #8
    518c:	0221      	lsls	r1, r4, #8
    518e:	ea43 6314 	orr.w	r3, r3, r4, lsr #24
    5192:	460c      	mov	r4, r1
    5194:	461d      	mov	r5, r3
    5196:	4b05      	ldr	r3, [pc, #20]	; (51ac <alt_wdog_counter_get_max_nanosecs+0x5c>)
    5198:	fba4 0103 	umull	r0, r1, r4, r3
    519c:	fb03 1105 	mla	r1, r3, r5, r1
    51a0:	2300      	movs	r3, #0
    51a2:	f000 ead6 	blx	5750 <__aeabi_uldivmod>
    51a6:	e7db      	b.n	5160 <alt_wdog_counter_get_max_nanosecs+0x10>
    51a8:	200c      	movs	r0, #12
    51aa:	e7dc      	b.n	5166 <alt_wdog_counter_get_max_nanosecs+0x16>
    51ac:	3b9aca00 	.word	0x3b9aca00

000051b0 <alt_wdog_counter_get_max_millisecs>:
    51b0:	b573      	push	{r0, r1, r4, r5, r6, lr}
    51b2:	4606      	mov	r6, r0
    51b4:	b128      	cbz	r0, 51c2 <alt_wdog_counter_get_max_millisecs+0x12>
    51b6:	1e43      	subs	r3, r0, #1
    51b8:	2b03      	cmp	r3, #3
    51ba:	d929      	bls.n	5210 <alt_wdog_counter_get_max_millisecs+0x60>
    51bc:	2000      	movs	r0, #0
    51be:	b002      	add	sp, #8
    51c0:	bd70      	pop	{r4, r5, r6, pc}
    51c2:	2015      	movs	r0, #21
    51c4:	a901      	add	r1, sp, #4
    51c6:	f7fd fd31 	bl	2c2c <alt_clk_freq_get>
    51ca:	2800      	cmp	r0, #0
    51cc:	d1f6      	bne.n	51bc <alt_wdog_counter_get_max_millisecs+0xc>
    51ce:	9a01      	ldr	r2, [sp, #4]
    51d0:	2a00      	cmp	r2, #0
    51d2:	d0f3      	beq.n	51bc <alt_wdog_counter_get_max_millisecs+0xc>
    51d4:	4630      	mov	r0, r6
    51d6:	f7ff ffb0 	bl	513a <alt_wdog_counter_get_max>
    51da:	2800      	cmp	r0, #0
    51dc:	d0ee      	beq.n	51bc <alt_wdog_counter_get_max_millisecs+0xc>
    51de:	2500      	movs	r5, #0
    51e0:	1c44      	adds	r4, r0, #1
    51e2:	f145 0500 	adc.w	r5, r5, #0
    51e6:	b92e      	cbnz	r6, 51f4 <alt_wdog_counter_get_max_millisecs+0x44>
    51e8:	022b      	lsls	r3, r5, #8
    51ea:	0221      	lsls	r1, r4, #8
    51ec:	ea43 6314 	orr.w	r3, r3, r4, lsr #24
    51f0:	460c      	mov	r4, r1
    51f2:	461d      	mov	r5, r3
    51f4:	f44f 737a 	mov.w	r3, #1000	; 0x3e8
    51f8:	fba4 0103 	umull	r0, r1, r4, r3
    51fc:	fb03 1105 	mla	r1, r3, r5, r1
    5200:	2300      	movs	r3, #0
    5202:	f000 eaa6 	blx	5750 <__aeabi_uldivmod>
    5206:	2901      	cmp	r1, #1
    5208:	bf08      	it	eq
    520a:	2800      	cmpeq	r0, #0
    520c:	d3d7      	bcc.n	51be <alt_wdog_counter_get_max_millisecs+0xe>
    520e:	e7d5      	b.n	51bc <alt_wdog_counter_get_max_millisecs+0xc>
    5210:	200c      	movs	r0, #12
    5212:	e7d7      	b.n	51c4 <alt_wdog_counter_get_max_millisecs+0x14>

00005214 <alt_wdog_int_disable>:
    5214:	b948      	cbnz	r0, 522a <alt_wdog_int_disable+0x16>
    5216:	4b08      	ldr	r3, [pc, #32]	; (5238 <alt_wdog_int_disable+0x24>)
    5218:	6818      	ldr	r0, [r3, #0]
    521a:	f010 0008 	ands.w	r0, r0, #8
    521e:	d107      	bne.n	5230 <alt_wdog_int_disable+0x1c>
    5220:	681a      	ldr	r2, [r3, #0]
    5222:	f022 0204 	bic.w	r2, r2, #4
    5226:	601a      	str	r2, [r3, #0]
    5228:	4770      	bx	lr
    522a:	f06f 0008 	mvn.w	r0, #8
    522e:	4770      	bx	lr
    5230:	f04f 30ff 	mov.w	r0, #4294967295
    5234:	4770      	bx	lr
    5236:	bf00      	nop
    5238:	fffec628 	.word	0xfffec628

0000523c <alt_wdog_int_enable>:
    523c:	b948      	cbnz	r0, 5252 <alt_wdog_int_enable+0x16>
    523e:	4b08      	ldr	r3, [pc, #32]	; (5260 <alt_wdog_int_enable+0x24>)
    5240:	6818      	ldr	r0, [r3, #0]
    5242:	f010 0008 	ands.w	r0, r0, #8
    5246:	d107      	bne.n	5258 <alt_wdog_int_enable+0x1c>
    5248:	681a      	ldr	r2, [r3, #0]
    524a:	f042 0204 	orr.w	r2, r2, #4
    524e:	601a      	str	r2, [r3, #0]
    5250:	4770      	bx	lr
    5252:	f06f 0008 	mvn.w	r0, #8
    5256:	4770      	bx	lr
    5258:	f04f 30ff 	mov.w	r0, #4294967295
    525c:	4770      	bx	lr
    525e:	bf00      	nop
    5260:	fffec628 	.word	0xfffec628

00005264 <alt_wdog_int_is_pending>:
    5264:	b508      	push	{r3, lr}
    5266:	b948      	cbnz	r0, 527c <alt_wdog_int_is_pending+0x18>
    5268:	f7ff fd2e 	bl	4cc8 <cpu_wdog_in_gpt_mode>
    526c:	b908      	cbnz	r0, 5272 <alt_wdog_int_is_pending+0xe>
    526e:	2000      	movs	r0, #0
    5270:	bd08      	pop	{r3, pc}
    5272:	4b08      	ldr	r3, [pc, #32]	; (5294 <alt_wdog_int_is_pending+0x30>)
    5274:	6818      	ldr	r0, [r3, #0]
    5276:	f000 0001 	and.w	r0, r0, #1
    527a:	bd08      	pop	{r3, pc}
    527c:	f020 0302 	bic.w	r3, r0, #2
    5280:	2b01      	cmp	r3, #1
    5282:	d101      	bne.n	5288 <alt_wdog_int_is_pending+0x24>
    5284:	4b04      	ldr	r3, [pc, #16]	; (5298 <alt_wdog_int_is_pending+0x34>)
    5286:	e7f5      	b.n	5274 <alt_wdog_int_is_pending+0x10>
    5288:	2802      	cmp	r0, #2
    528a:	d001      	beq.n	5290 <alt_wdog_int_is_pending+0x2c>
    528c:	2804      	cmp	r0, #4
    528e:	d1ee      	bne.n	526e <alt_wdog_int_is_pending+0xa>
    5290:	4b02      	ldr	r3, [pc, #8]	; (529c <alt_wdog_int_is_pending+0x38>)
    5292:	e7ef      	b.n	5274 <alt_wdog_int_is_pending+0x10>
    5294:	fffec62c 	.word	0xfffec62c
    5298:	ffd02010 	.word	0xffd02010
    529c:	ffd03010 	.word	0xffd03010

000052a0 <alt_wdog_int_is_enabled>:
    52a0:	b938      	cbnz	r0, 52b2 <alt_wdog_int_is_enabled+0x12>
    52a2:	4b0c      	ldr	r3, [pc, #48]	; (52d4 <alt_wdog_int_is_enabled+0x34>)
    52a4:	681b      	ldr	r3, [r3, #0]
    52a6:	f013 0f0c 	tst.w	r3, #12
    52aa:	bf14      	ite	ne
    52ac:	2001      	movne	r0, #1
    52ae:	2000      	moveq	r0, #0
    52b0:	4770      	bx	lr
    52b2:	f020 0302 	bic.w	r3, r0, #2
    52b6:	2b01      	cmp	r3, #1
    52b8:	d104      	bne.n	52c4 <alt_wdog_int_is_enabled+0x24>
    52ba:	4b07      	ldr	r3, [pc, #28]	; (52d8 <alt_wdog_int_is_enabled+0x38>)
    52bc:	6818      	ldr	r0, [r3, #0]
    52be:	f000 0001 	and.w	r0, r0, #1
    52c2:	4770      	bx	lr
    52c4:	2802      	cmp	r0, #2
    52c6:	d001      	beq.n	52cc <alt_wdog_int_is_enabled+0x2c>
    52c8:	2804      	cmp	r0, #4
    52ca:	d101      	bne.n	52d0 <alt_wdog_int_is_enabled+0x30>
    52cc:	4b03      	ldr	r3, [pc, #12]	; (52dc <alt_wdog_int_is_enabled+0x3c>)
    52ce:	e7f5      	b.n	52bc <alt_wdog_int_is_enabled+0x1c>
    52d0:	2000      	movs	r0, #0
    52d2:	4770      	bx	lr
    52d4:	fffec628 	.word	0xfffec628
    52d8:	ffd02000 	.word	0xffd02000
    52dc:	ffd03000 	.word	0xffd03000

000052e0 <alt_wdog_int_clear>:
    52e0:	b918      	cbnz	r0, 52ea <alt_wdog_int_clear+0xa>
    52e2:	4b0a      	ldr	r3, [pc, #40]	; (530c <alt_wdog_int_clear+0x2c>)
    52e4:	2201      	movs	r2, #1
    52e6:	601a      	str	r2, [r3, #0]
    52e8:	4770      	bx	lr
    52ea:	f020 0302 	bic.w	r3, r0, #2
    52ee:	2b01      	cmp	r3, #1
    52f0:	d103      	bne.n	52fa <alt_wdog_int_clear+0x1a>
    52f2:	4b07      	ldr	r3, [pc, #28]	; (5310 <alt_wdog_int_clear+0x30>)
    52f4:	681b      	ldr	r3, [r3, #0]
    52f6:	2000      	movs	r0, #0
    52f8:	4770      	bx	lr
    52fa:	2802      	cmp	r0, #2
    52fc:	d001      	beq.n	5302 <alt_wdog_int_clear+0x22>
    52fe:	2804      	cmp	r0, #4
    5300:	d101      	bne.n	5306 <alt_wdog_int_clear+0x26>
    5302:	4b04      	ldr	r3, [pc, #16]	; (5314 <alt_wdog_int_clear+0x34>)
    5304:	e7f6      	b.n	52f4 <alt_wdog_int_clear+0x14>
    5306:	f04f 30ff 	mov.w	r0, #4294967295
    530a:	4770      	bx	lr
    530c:	fffec62c 	.word	0xfffec62c
    5310:	ffd02014 	.word	0xffd02014
    5314:	ffd03014 	.word	0xffd03014

00005318 <alt_wdog_int_if_pending_clear>:
    5318:	b938      	cbnz	r0, 532a <alt_wdog_int_if_pending_clear+0x12>
    531a:	4b0e      	ldr	r3, [pc, #56]	; (5354 <alt_wdog_int_if_pending_clear+0x3c>)
    531c:	6818      	ldr	r0, [r3, #0]
    531e:	f010 0001 	ands.w	r0, r0, #1
    5322:	d015      	beq.n	5350 <alt_wdog_int_if_pending_clear+0x38>
    5324:	2201      	movs	r2, #1
    5326:	601a      	str	r2, [r3, #0]
    5328:	4770      	bx	lr
    532a:	f020 0302 	bic.w	r3, r0, #2
    532e:	2b01      	cmp	r3, #1
    5330:	d107      	bne.n	5342 <alt_wdog_int_if_pending_clear+0x2a>
    5332:	4b09      	ldr	r3, [pc, #36]	; (5358 <alt_wdog_int_if_pending_clear+0x40>)
    5334:	6818      	ldr	r0, [r3, #0]
    5336:	f010 0001 	ands.w	r0, r0, #1
    533a:	d009      	beq.n	5350 <alt_wdog_int_if_pending_clear+0x38>
    533c:	3304      	adds	r3, #4
    533e:	681b      	ldr	r3, [r3, #0]
    5340:	4770      	bx	lr
    5342:	2802      	cmp	r0, #2
    5344:	d001      	beq.n	534a <alt_wdog_int_if_pending_clear+0x32>
    5346:	2804      	cmp	r0, #4
    5348:	d101      	bne.n	534e <alt_wdog_int_if_pending_clear+0x36>
    534a:	4b04      	ldr	r3, [pc, #16]	; (535c <alt_wdog_int_if_pending_clear+0x44>)
    534c:	e7f2      	b.n	5334 <alt_wdog_int_if_pending_clear+0x1c>
    534e:	2000      	movs	r0, #0
    5350:	4770      	bx	lr
    5352:	bf00      	nop
    5354:	fffec62c 	.word	0xfffec62c
    5358:	ffd02010 	.word	0xffd02010
    535c:	ffd03010 	.word	0xffd03010

00005360 <alt_wdog_response_mode_set>:
    5360:	b960      	cbnz	r0, 537c <alt_wdog_response_mode_set+0x1c>
    5362:	4a13      	ldr	r2, [pc, #76]	; (53b0 <alt_wdog_response_mode_set+0x50>)
    5364:	2902      	cmp	r1, #2
    5366:	6813      	ldr	r3, [r2, #0]
    5368:	d103      	bne.n	5372 <alt_wdog_response_mode_set+0x12>
    536a:	f023 0302 	bic.w	r3, r3, #2
    536e:	6013      	str	r3, [r2, #0]
    5370:	4770      	bx	lr
    5372:	2903      	cmp	r1, #3
    5374:	d119      	bne.n	53aa <alt_wdog_response_mode_set+0x4a>
    5376:	f043 0302 	orr.w	r3, r3, #2
    537a:	e7f8      	b.n	536e <alt_wdog_response_mode_set+0xe>
    537c:	f020 0302 	bic.w	r3, r0, #2
    5380:	2b01      	cmp	r3, #1
    5382:	d107      	bne.n	5394 <alt_wdog_response_mode_set+0x34>
    5384:	4a0b      	ldr	r2, [pc, #44]	; (53b4 <alt_wdog_response_mode_set+0x54>)
    5386:	6813      	ldr	r3, [r2, #0]
    5388:	b951      	cbnz	r1, 53a0 <alt_wdog_response_mode_set+0x40>
    538a:	f023 0302 	bic.w	r3, r3, #2
    538e:	6013      	str	r3, [r2, #0]
    5390:	2000      	movs	r0, #0
    5392:	4770      	bx	lr
    5394:	2802      	cmp	r0, #2
    5396:	d001      	beq.n	539c <alt_wdog_response_mode_set+0x3c>
    5398:	2804      	cmp	r0, #4
    539a:	d106      	bne.n	53aa <alt_wdog_response_mode_set+0x4a>
    539c:	4a06      	ldr	r2, [pc, #24]	; (53b8 <alt_wdog_response_mode_set+0x58>)
    539e:	e7f2      	b.n	5386 <alt_wdog_response_mode_set+0x26>
    53a0:	2901      	cmp	r1, #1
    53a2:	d102      	bne.n	53aa <alt_wdog_response_mode_set+0x4a>
    53a4:	f043 0302 	orr.w	r3, r3, #2
    53a8:	e7f1      	b.n	538e <alt_wdog_response_mode_set+0x2e>
    53aa:	f06f 0008 	mvn.w	r0, #8
    53ae:	4770      	bx	lr
    53b0:	fffec628 	.word	0xfffec628
    53b4:	ffd02000 	.word	0xffd02000
    53b8:	ffd03000 	.word	0xffd03000

000053bc <alt_wdog_response_mode_get>:
    53bc:	b938      	cbnz	r0, 53ce <alt_wdog_response_mode_get+0x12>
    53be:	4b0d      	ldr	r3, [pc, #52]	; (53f4 <alt_wdog_response_mode_get+0x38>)
    53c0:	681b      	ldr	r3, [r3, #0]
    53c2:	f013 0f02 	tst.w	r3, #2
    53c6:	bf14      	ite	ne
    53c8:	2003      	movne	r0, #3
    53ca:	2002      	moveq	r0, #2
    53cc:	4770      	bx	lr
    53ce:	f020 0302 	bic.w	r3, r0, #2
    53d2:	2b01      	cmp	r3, #1
    53d4:	d104      	bne.n	53e0 <alt_wdog_response_mode_get+0x24>
    53d6:	4b08      	ldr	r3, [pc, #32]	; (53f8 <alt_wdog_response_mode_get+0x3c>)
    53d8:	6818      	ldr	r0, [r3, #0]
    53da:	f3c0 0040 	ubfx	r0, r0, #1, #1
    53de:	4770      	bx	lr
    53e0:	2802      	cmp	r0, #2
    53e2:	d001      	beq.n	53e8 <alt_wdog_response_mode_get+0x2c>
    53e4:	2804      	cmp	r0, #4
    53e6:	d101      	bne.n	53ec <alt_wdog_response_mode_get+0x30>
    53e8:	4b04      	ldr	r3, [pc, #16]	; (53fc <alt_wdog_response_mode_get+0x40>)
    53ea:	e7f5      	b.n	53d8 <alt_wdog_response_mode_get+0x1c>
    53ec:	f06f 0008 	mvn.w	r0, #8
    53f0:	4770      	bx	lr
    53f2:	bf00      	nop
    53f4:	fffec628 	.word	0xfffec628
    53f8:	ffd02000 	.word	0xffd02000
    53fc:	ffd03000 	.word	0xffd03000

00005400 <alt_wdog_compcode_get>:
    5400:	f020 0302 	bic.w	r3, r0, #2
    5404:	2b01      	cmp	r3, #1
    5406:	d102      	bne.n	540e <alt_wdog_compcode_get+0xe>
    5408:	4b05      	ldr	r3, [pc, #20]	; (5420 <alt_wdog_compcode_get+0x20>)
    540a:	6818      	ldr	r0, [r3, #0]
    540c:	4770      	bx	lr
    540e:	2802      	cmp	r0, #2
    5410:	d001      	beq.n	5416 <alt_wdog_compcode_get+0x16>
    5412:	2804      	cmp	r0, #4
    5414:	d101      	bne.n	541a <alt_wdog_compcode_get+0x1a>
    5416:	4b03      	ldr	r3, [pc, #12]	; (5424 <alt_wdog_compcode_get+0x24>)
    5418:	e7f7      	b.n	540a <alt_wdog_compcode_get+0xa>
    541a:	2000      	movs	r0, #0
    541c:	4770      	bx	lr
    541e:	bf00      	nop
    5420:	ffd020fc 	.word	0xffd020fc
    5424:	ffd030fc 	.word	0xffd030fc

00005428 <alt_wdog_ver_get>:
    5428:	f020 0302 	bic.w	r3, r0, #2
    542c:	2b01      	cmp	r3, #1
    542e:	d102      	bne.n	5436 <alt_wdog_ver_get+0xe>
    5430:	4b05      	ldr	r3, [pc, #20]	; (5448 <alt_wdog_ver_get+0x20>)
    5432:	6818      	ldr	r0, [r3, #0]
    5434:	4770      	bx	lr
    5436:	2802      	cmp	r0, #2
    5438:	d001      	beq.n	543e <alt_wdog_ver_get+0x16>
    543a:	2804      	cmp	r0, #4
    543c:	d101      	bne.n	5442 <alt_wdog_ver_get+0x1a>
    543e:	4b03      	ldr	r3, [pc, #12]	; (544c <alt_wdog_ver_get+0x24>)
    5440:	e7f7      	b.n	5432 <alt_wdog_ver_get+0xa>
    5442:	2000      	movs	r0, #0
    5444:	4770      	bx	lr
    5446:	bf00      	nop
    5448:	ffd020f8 	.word	0xffd020f8
    544c:	ffd030f8 	.word	0xffd030f8

00005450 <__aeabi_uidiv>:
    5450:	e2512001 	subs	r2, r1, #1
    5454:	012fff1e 	bxeq	lr
    5458:	3a0000b8 	bcc	5740 <Ldiv0>
    545c:	e1500001 	cmp	r0, r1
    5460:	9a00001a 	bls	54d0 <__aeabi_uidiv+0x80>
    5464:	e1110002 	tst	r1, r2
    5468:	0a00001b 	beq	54dc <__aeabi_uidiv+0x8c>
    546c:	e16f3f11 	clz	r3, r1
    5470:	e16f2f10 	clz	r2, r0
    5474:	e0432002 	sub	r2, r3, r2
    5478:	e3a03001 	mov	r3, #1
    547c:	e1a01211 	lsl	r1, r1, r2
    5480:	e1a03213 	lsl	r3, r3, r2
    5484:	e3a02000 	mov	r2, #0
    5488:	e1500001 	cmp	r0, r1
    548c:	20400001 	subcs	r0, r0, r1
    5490:	21822003 	orrcs	r2, r2, r3
    5494:	e15000a1 	cmp	r0, r1, lsr #1
    5498:	204000a1 	subcs	r0, r0, r1, lsr #1
    549c:	218220a3 	orrcs	r2, r2, r3, lsr #1
    54a0:	e1500121 	cmp	r0, r1, lsr #2
    54a4:	20400121 	subcs	r0, r0, r1, lsr #2
    54a8:	21822123 	orrcs	r2, r2, r3, lsr #2
    54ac:	e15001a1 	cmp	r0, r1, lsr #3
    54b0:	204001a1 	subcs	r0, r0, r1, lsr #3
    54b4:	218221a3 	orrcs	r2, r2, r3, lsr #3
    54b8:	e3500000 	cmp	r0, #0
    54bc:	11b03223 	lsrsne	r3, r3, #4
    54c0:	11a01221 	lsrne	r1, r1, #4
    54c4:	1affffef 	bne	5488 <__aeabi_uidiv+0x38>
    54c8:	e1a00002 	mov	r0, r2
    54cc:	e12fff1e 	bx	lr
    54d0:	03a00001 	moveq	r0, #1
    54d4:	13a00000 	movne	r0, #0
    54d8:	e12fff1e 	bx	lr
    54dc:	e16f2f11 	clz	r2, r1
    54e0:	e262201f 	rsb	r2, r2, #31
    54e4:	e1a00230 	lsr	r0, r0, r2
    54e8:	e12fff1e 	bx	lr

000054ec <__umodsi3>:
    54ec:	e2512001 	subs	r2, r1, #1
    54f0:	3a000092 	bcc	5740 <Ldiv0>
    54f4:	11500001 	cmpne	r0, r1
    54f8:	03a00000 	moveq	r0, #0
    54fc:	81110002 	tsthi	r1, r2
    5500:	00000002 	andeq	r0, r0, r2
    5504:	912fff1e 	bxls	lr
    5508:	e16f2f11 	clz	r2, r1
    550c:	e16f3f10 	clz	r3, r0
    5510:	e0422003 	sub	r2, r2, r3
    5514:	e1a01211 	lsl	r1, r1, r2
    5518:	e2522003 	subs	r2, r2, #3
    551c:	ba00000e 	blt	555c <__umodsi3+0x70>
    5520:	e1500001 	cmp	r0, r1
    5524:	20400001 	subcs	r0, r0, r1
    5528:	e15000a1 	cmp	r0, r1, lsr #1
    552c:	204000a1 	subcs	r0, r0, r1, lsr #1
    5530:	e1500121 	cmp	r0, r1, lsr #2
    5534:	20400121 	subcs	r0, r0, r1, lsr #2
    5538:	e15001a1 	cmp	r0, r1, lsr #3
    553c:	204001a1 	subcs	r0, r0, r1, lsr #3
    5540:	e3500001 	cmp	r0, #1
    5544:	e1a01221 	lsr	r1, r1, #4
    5548:	a2522004 	subsge	r2, r2, #4
    554c:	aafffff3 	bge	5520 <__umodsi3+0x34>
    5550:	e3120003 	tst	r2, #3
    5554:	13300000 	teqne	r0, #0
    5558:	0a00000a 	beq	5588 <__umodsi3+0x9c>
    555c:	e3720002 	cmn	r2, #2
    5560:	ba000006 	blt	5580 <__umodsi3+0x94>
    5564:	0a000002 	beq	5574 <__umodsi3+0x88>
    5568:	e1500001 	cmp	r0, r1
    556c:	20400001 	subcs	r0, r0, r1
    5570:	e1a010a1 	lsr	r1, r1, #1
    5574:	e1500001 	cmp	r0, r1
    5578:	20400001 	subcs	r0, r0, r1
    557c:	e1a010a1 	lsr	r1, r1, #1
    5580:	e1500001 	cmp	r0, r1
    5584:	20400001 	subcs	r0, r0, r1
    5588:	e12fff1e 	bx	lr

0000558c <__aeabi_idiv>:
    558c:	e3510000 	cmp	r1, #0
    5590:	e020c001 	eor	ip, r0, r1
    5594:	0a000069 	beq	5740 <Ldiv0>
    5598:	42611000 	rsbmi	r1, r1, #0
    559c:	e2512001 	subs	r2, r1, #1
    55a0:	0a00001f 	beq	5624 <__aeabi_idiv+0x98>
    55a4:	e1b03000 	movs	r3, r0
    55a8:	42603000 	rsbmi	r3, r0, #0
    55ac:	e1530001 	cmp	r3, r1
    55b0:	9a00001e 	bls	5630 <__aeabi_idiv+0xa4>
    55b4:	e1110002 	tst	r1, r2
    55b8:	0a000020 	beq	5640 <__aeabi_idiv+0xb4>
    55bc:	e16f2f11 	clz	r2, r1
    55c0:	e16f0f13 	clz	r0, r3
    55c4:	e0420000 	sub	r0, r2, r0
    55c8:	e3a02001 	mov	r2, #1
    55cc:	e1a01011 	lsl	r1, r1, r0
    55d0:	e1a02012 	lsl	r2, r2, r0
    55d4:	e3a00000 	mov	r0, #0
    55d8:	e1530001 	cmp	r3, r1
    55dc:	20433001 	subcs	r3, r3, r1
    55e0:	21800002 	orrcs	r0, r0, r2
    55e4:	e15300a1 	cmp	r3, r1, lsr #1
    55e8:	204330a1 	subcs	r3, r3, r1, lsr #1
    55ec:	218000a2 	orrcs	r0, r0, r2, lsr #1
    55f0:	e1530121 	cmp	r3, r1, lsr #2
    55f4:	20433121 	subcs	r3, r3, r1, lsr #2
    55f8:	21800122 	orrcs	r0, r0, r2, lsr #2
    55fc:	e15301a1 	cmp	r3, r1, lsr #3
    5600:	204331a1 	subcs	r3, r3, r1, lsr #3
    5604:	218001a2 	orrcs	r0, r0, r2, lsr #3
    5608:	e3530000 	cmp	r3, #0
    560c:	11b02222 	lsrsne	r2, r2, #4
    5610:	11a01221 	lsrne	r1, r1, #4
    5614:	1affffef 	bne	55d8 <__aeabi_idiv+0x4c>
    5618:	e35c0000 	cmp	ip, #0
    561c:	42600000 	rsbmi	r0, r0, #0
    5620:	e12fff1e 	bx	lr
    5624:	e13c0000 	teq	ip, r0
    5628:	42600000 	rsbmi	r0, r0, #0
    562c:	e12fff1e 	bx	lr
    5630:	33a00000 	movcc	r0, #0
    5634:	01a00fcc 	asreq	r0, ip, #31
    5638:	03800001 	orreq	r0, r0, #1
    563c:	e12fff1e 	bx	lr
    5640:	e16f2f11 	clz	r2, r1
    5644:	e262201f 	rsb	r2, r2, #31
    5648:	e35c0000 	cmp	ip, #0
    564c:	e1a00233 	lsr	r0, r3, r2
    5650:	42600000 	rsbmi	r0, r0, #0
    5654:	e12fff1e 	bx	lr

00005658 <__modsi3>:
    5658:	e3510000 	cmp	r1, #0
    565c:	0a000037 	beq	5740 <Ldiv0>
    5660:	42611000 	rsbmi	r1, r1, #0
    5664:	e1b0c000 	movs	ip, r0
    5668:	42600000 	rsbmi	r0, r0, #0
    566c:	e2512001 	subs	r2, r1, #1
    5670:	11500001 	cmpne	r0, r1
    5674:	03a00000 	moveq	r0, #0
    5678:	81110002 	tsthi	r1, r2
    567c:	00000002 	andeq	r0, r0, r2
    5680:	9a00001f 	bls	5704 <__modsi3+0xac>
    5684:	e16f2f11 	clz	r2, r1
    5688:	e16f3f10 	clz	r3, r0
    568c:	e0422003 	sub	r2, r2, r3
    5690:	e1a01211 	lsl	r1, r1, r2
    5694:	e2522003 	subs	r2, r2, #3
    5698:	ba00000e 	blt	56d8 <__modsi3+0x80>
    569c:	e1500001 	cmp	r0, r1
    56a0:	20400001 	subcs	r0, r0, r1
    56a4:	e15000a1 	cmp	r0, r1, lsr #1
    56a8:	204000a1 	subcs	r0, r0, r1, lsr #1
    56ac:	e1500121 	cmp	r0, r1, lsr #2
    56b0:	20400121 	subcs	r0, r0, r1, lsr #2
    56b4:	e15001a1 	cmp	r0, r1, lsr #3
    56b8:	204001a1 	subcs	r0, r0, r1, lsr #3
    56bc:	e3500001 	cmp	r0, #1
    56c0:	e1a01221 	lsr	r1, r1, #4
    56c4:	a2522004 	subsge	r2, r2, #4
    56c8:	aafffff3 	bge	569c <__modsi3+0x44>
    56cc:	e3120003 	tst	r2, #3
    56d0:	13300000 	teqne	r0, #0
    56d4:	0a00000a 	beq	5704 <__modsi3+0xac>
    56d8:	e3720002 	cmn	r2, #2
    56dc:	ba000006 	blt	56fc <__modsi3+0xa4>
    56e0:	0a000002 	beq	56f0 <__modsi3+0x98>
    56e4:	e1500001 	cmp	r0, r1
    56e8:	20400001 	subcs	r0, r0, r1
    56ec:	e1a010a1 	lsr	r1, r1, #1
    56f0:	e1500001 	cmp	r0, r1
    56f4:	20400001 	subcs	r0, r0, r1
    56f8:	e1a010a1 	lsr	r1, r1, #1
    56fc:	e1500001 	cmp	r0, r1
    5700:	20400001 	subcs	r0, r0, r1
    5704:	e35c0000 	cmp	ip, #0
    5708:	42600000 	rsbmi	r0, r0, #0
    570c:	e12fff1e 	bx	lr

00005710 <__aeabi_uidivmod>:
    5710:	e92d5003 	push	{r0, r1, ip, lr}
    5714:	ebffff4d 	bl	5450 <__aeabi_uidiv>
    5718:	e8bd5006 	pop	{r1, r2, ip, lr}
    571c:	e0030290 	mul	r3, r0, r2
    5720:	e0411003 	sub	r1, r1, r3
    5724:	e12fff1e 	bx	lr

00005728 <__aeabi_idivmod>:
    5728:	e92d5003 	push	{r0, r1, ip, lr}
    572c:	ebffff96 	bl	558c <__aeabi_idiv>
    5730:	e8bd5006 	pop	{r1, r2, ip, lr}
    5734:	e0030290 	mul	r3, r0, r2
    5738:	e0411003 	sub	r1, r1, r3
    573c:	e12fff1e 	bx	lr

00005740 <Ldiv0>:
    5740:	e52de008 	str	lr, [sp, #-8]!
    5744:	fa000063 	blx	58d8 <__div0>
    5748:	e3a00000 	mov	r0, #0
    574c:	e49df008 	ldr	pc, [sp], #8

00005750 <__aeabi_uldivmod>:
    5750:	e92d41f0 	push	{r4, r5, r6, r7, r8, lr}
    5754:	e192c003 	orrs	ip, r2, r3
    5758:	0a000058 	beq	58c0 <L_div_by_0>
    575c:	e2524001 	subs	r4, r2, #1
    5760:	e2c35000 	sbc	r5, r3, #0
    5764:	e1140002 	tst	r4, r2
    5768:	01130005 	tsteq	r3, r5
    576c:	0a000036 	beq	584c <L_pow2>
    5770:	e191c003 	orrs	ip, r1, r3
    5774:	0a00002e 	beq	5834 <L_div_32_32>

00005778 <L_div_64_64>:
    5778:	e3a04001 	mov	r4, #1
    577c:	e3a05000 	mov	r5, #0
    5780:	e3a06000 	mov	r6, #0
    5784:	e3a07000 	mov	r7, #0

00005788 <L_lsl_4>:
    5788:	e3530201 	cmp	r3, #268435456	; 0x10000000
    578c:	31530001 	cmpcc	r3, r1
    5790:	01520000 	cmpeq	r2, r0
    5794:	2a000006 	bcs	57b4 <L_lsl_1>
    5798:	e1a03203 	lsl	r3, r3, #4
    579c:	e1833e22 	orr	r3, r3, r2, lsr #28
    57a0:	e1a02202 	lsl	r2, r2, #4
    57a4:	e1a05205 	lsl	r5, r5, #4
    57a8:	e1855e24 	orr	r5, r5, r4, lsr #28
    57ac:	e1a04204 	lsl	r4, r4, #4
    57b0:	eafffff4 	b	5788 <L_lsl_4>

000057b4 <L_lsl_1>:
    57b4:	e3530102 	cmp	r3, #-2147483648	; 0x80000000
    57b8:	31530001 	cmpcc	r3, r1
    57bc:	01520000 	cmpeq	r2, r0
    57c0:	2a000006 	bcs	57e0 <L_subtract>
    57c4:	e1a03083 	lsl	r3, r3, #1
    57c8:	e1833fa2 	orr	r3, r3, r2, lsr #31
    57cc:	e1a02082 	lsl	r2, r2, #1
    57d0:	e1a05085 	lsl	r5, r5, #1
    57d4:	e1855fa4 	orr	r5, r5, r4, lsr #31
    57d8:	e1a04084 	lsl	r4, r4, #1
    57dc:	eafffff4 	b	57b4 <L_lsl_1>

000057e0 <L_subtract>:
    57e0:	e1510003 	cmp	r1, r3
    57e4:	01500002 	cmpeq	r0, r2
    57e8:	3a000003 	bcc	57fc <L_update>
    57ec:	e0500002 	subs	r0, r0, r2
    57f0:	e0c11003 	sbc	r1, r1, r3
    57f4:	e1866004 	orr	r6, r6, r4
    57f8:	e1877005 	orr	r7, r7, r5

000057fc <L_update>:
    57fc:	e191c000 	orrs	ip, r1, r0
    5800:	0a000006 	beq	5820 <L_exit>
    5804:	e1b050a5 	lsrs	r5, r5, #1
    5808:	e1b04064 	rrxs	r4, r4
    580c:	e195c004 	orrs	ip, r5, r4
    5810:	0a000002 	beq	5820 <L_exit>
    5814:	e1b030a3 	lsrs	r3, r3, #1
    5818:	e1a02062 	rrx	r2, r2
    581c:	eaffffef 	b	57e0 <L_subtract>

00005820 <L_exit>:
    5820:	e1a02000 	mov	r2, r0
    5824:	e1a03001 	mov	r3, r1
    5828:	e1a00006 	mov	r0, r6
    582c:	e1a01007 	mov	r1, r7
    5830:	e8bd81f0 	pop	{r4, r5, r6, r7, r8, pc}

00005834 <L_div_32_32>:
    5834:	e1a01002 	mov	r1, r2
    5838:	ebffffb4 	bl	5710 <__aeabi_uidivmod>
    583c:	e1a02001 	mov	r2, r1
    5840:	e3a03000 	mov	r3, #0
    5844:	e3a01000 	mov	r1, #0
    5848:	e8bd81f0 	pop	{r4, r5, r6, r7, r8, pc}

0000584c <L_pow2>:
    584c:	e0004004 	and	r4, r0, r4
    5850:	e0015005 	and	r5, r1, r5
    5854:	e3a06000 	mov	r6, #0
    5858:	e1922002 	orrs	r2, r2, r2
    585c:	01a00001 	moveq	r0, r1
    5860:	03a01000 	moveq	r1, #0
    5864:	01a02003 	moveq	r2, r3
    5868:	e1b03802 	lsls	r3, r2, #16
    586c:	02866010 	addeq	r6, r6, #16
    5870:	01a02822 	lsreq	r2, r2, #16
    5874:	e31200ff 	tst	r2, #255	; 0xff
    5878:	02866008 	addeq	r6, r6, #8
    587c:	01a02422 	lsreq	r2, r2, #8
    5880:	e312000f 	tst	r2, #15
    5884:	02866004 	addeq	r6, r6, #4
    5888:	01a02222 	lsreq	r2, r2, #4
    588c:	e3120003 	tst	r2, #3
    5890:	02866002 	addeq	r6, r6, #2
    5894:	01a02122 	lsreq	r2, r2, #2
    5898:	e3120001 	tst	r2, #1
    589c:	02866001 	addeq	r6, r6, #1
    58a0:	e2667020 	rsb	r7, r6, #32
    58a4:	e1a00630 	lsr	r0, r0, r6
    58a8:	e1a01711 	lsl	r1, r1, r7
    58ac:	e1800001 	orr	r0, r0, r1
    58b0:	e1a01631 	lsr	r1, r1, r6
    58b4:	e1a02004 	mov	r2, r4
    58b8:	e1a03005 	mov	r3, r5
    58bc:	e8bd81f0 	pop	{r4, r5, r6, r7, r8, pc}

000058c0 <L_div_by_0>:
    58c0:	fa000004 	blx	58d8 <__div0>
    58c4:	e3a00000 	mov	r0, #0
    58c8:	e3a01000 	mov	r1, #0
    58cc:	e3a02000 	mov	r2, #0
    58d0:	e3a03000 	mov	r3, #0
    58d4:	e8bd81f0 	pop	{r4, r5, r6, r7, r8, pc}

000058d8 <__div0>:
    58d8:	f7fa bdce 	b.w	478 <hang>
    58dc:	0000      	movs	r0, r0
	...

000058e0 <memset>:
    58e0:	f010 0303 	ands.w	r3, r0, #3
    58e4:	4684      	mov	ip, r0
    58e6:	d13d      	bne.n	5964 <memset+0x84>
    58e8:	ea41 2101 	orr.w	r1, r1, r1, lsl #8
    58ec:	ea41 4101 	orr.w	r1, r1, r1, lsl #16
    58f0:	460b      	mov	r3, r1
    58f2:	2a10      	cmp	r2, #16
    58f4:	db1f      	blt.n	5936 <memset+0x56>
    58f6:	e92d 4100 	stmdb	sp!, {r8, lr}
    58fa:	4688      	mov	r8, r1
    58fc:	468e      	mov	lr, r1
    58fe:	3a40      	subs	r2, #64	; 0x40
    5900:	bfa1      	itttt	ge
    5902:	e8ac 410a 	stmiage.w	ip!, {r1, r3, r8, lr}
    5906:	e8ac 410a 	stmiage.w	ip!, {r1, r3, r8, lr}
    590a:	e8ac 410a 	stmiage.w	ip!, {r1, r3, r8, lr}
    590e:	e8ac 410a 	stmiage.w	ip!, {r1, r3, r8, lr}
    5912:	dcf4      	bgt.n	58fe <memset+0x1e>
    5914:	bf08      	it	eq
    5916:	e8bd 8100 	ldmiaeq.w	sp!, {r8, pc}
    591a:	f012 0f20 	tst.w	r2, #32
    591e:	bf1c      	itt	ne
    5920:	e8ac 410a 	stmiane.w	ip!, {r1, r3, r8, lr}
    5924:	e8ac 410a 	stmiane.w	ip!, {r1, r3, r8, lr}
    5928:	f012 0f10 	tst.w	r2, #16
    592c:	bf18      	it	ne
    592e:	e8ac 410a 	stmiane.w	ip!, {r1, r3, r8, lr}
    5932:	e8bd 4100 	ldmia.w	sp!, {r8, lr}
    5936:	f012 0f08 	tst.w	r2, #8
    593a:	bf18      	it	ne
    593c:	e8ac 000a 	stmiane.w	ip!, {r1, r3}
    5940:	f012 0f04 	tst.w	r2, #4
    5944:	bf18      	it	ne
    5946:	f84c 1b04 	strne.w	r1, [ip], #4
    594a:	f012 0f02 	tst.w	r2, #2
    594e:	bf1c      	itt	ne
    5950:	f80c 1b01 	strbne.w	r1, [ip], #1
    5954:	f80c 1b01 	strbne.w	r1, [ip], #1
    5958:	f012 0f01 	tst.w	r2, #1
    595c:	bf18      	it	ne
    595e:	f80c 1b01 	strbne.w	r1, [ip], #1
    5962:	4770      	bx	lr
    5964:	3a04      	subs	r2, #4
    5966:	dbf0      	blt.n	594a <memset+0x6a>
    5968:	2b02      	cmp	r3, #2
    596a:	bfb8      	it	lt
    596c:	f80c 1b01 	strblt.w	r1, [ip], #1
    5970:	bfd8      	it	le
    5972:	f80c 1b01 	strble.w	r1, [ip], #1
    5976:	f80c 1b01 	strb.w	r1, [ip], #1
    597a:	441a      	add	r2, r3
    597c:	e7b4      	b.n	58e8 <memset+0x8>
    597e:	bf00      	nop

00005980 <__div64_32>:
    5980:	e92d 41f0 	stmdb	sp!, {r4, r5, r6, r7, r8, lr}
    5984:	4680      	mov	r8, r0
    5986:	460c      	mov	r4, r1
    5988:	e9d0 7600 	ldrd	r7, r6, [r0]
    598c:	2500      	movs	r5, #0
    598e:	42b1      	cmp	r1, r6
    5990:	d831      	bhi.n	59f6 <__div64_32+0x76>
    5992:	4630      	mov	r0, r6
    5994:	f7ff ed5c 	blx	5450 <__aeabi_uidiv>
    5998:	fb00 6614 	mls	r6, r0, r4, r6
    599c:	46ac      	mov	ip, r5
    599e:	2301      	movs	r3, #1
    59a0:	2200      	movs	r2, #0
    59a2:	e003      	b.n	59ac <__div64_32+0x2c>
    59a4:	1924      	adds	r4, r4, r4
    59a6:	416d      	adcs	r5, r5
    59a8:	18db      	adds	r3, r3, r3
    59aa:	4152      	adcs	r2, r2
    59ac:	2c01      	cmp	r4, #1
    59ae:	f175 0100 	sbcs.w	r1, r5, #0
    59b2:	db03      	blt.n	59bc <__div64_32+0x3c>
    59b4:	42bc      	cmp	r4, r7
    59b6:	eb75 0106 	sbcs.w	r1, r5, r6
    59ba:	d3f3      	bcc.n	59a4 <__div64_32+0x24>
    59bc:	42a7      	cmp	r7, r4
    59be:	eb76 0105 	sbcs.w	r1, r6, r5
    59c2:	d307      	bcc.n	59d4 <__div64_32+0x54>
    59c4:	1b3f      	subs	r7, r7, r4
    59c6:	eb66 0605 	sbc.w	r6, r6, r5
    59ca:	eb1c 0103 	adds.w	r1, ip, r3
    59ce:	468c      	mov	ip, r1
    59d0:	eb40 0002 	adc.w	r0, r0, r2
    59d4:	085b      	lsrs	r3, r3, #1
    59d6:	0864      	lsrs	r4, r4, #1
    59d8:	ea43 73c2 	orr.w	r3, r3, r2, lsl #31
    59dc:	0852      	lsrs	r2, r2, #1
    59de:	ea44 74c5 	orr.w	r4, r4, r5, lsl #31
    59e2:	ea53 0102 	orrs.w	r1, r3, r2
    59e6:	ea4f 0555 	mov.w	r5, r5, lsr #1
    59ea:	d1e7      	bne.n	59bc <__div64_32+0x3c>
    59ec:	e9c8 c000 	strd	ip, r0, [r8]
    59f0:	4638      	mov	r0, r7
    59f2:	e8bd 81f0 	ldmia.w	sp!, {r4, r5, r6, r7, r8, pc}
    59f6:	46ac      	mov	ip, r5
    59f8:	4628      	mov	r0, r5
    59fa:	e7d0      	b.n	599e <__div64_32+0x1e>
