
SdRamStart.o:     file format elf32-littlearm


Disassembly of section .vectorsSdRam:

00000000 <_start_SdRamPart>:
   0:	ea00000f 	b	44 <reset_SdRamPart>
   4:	e59ff014 	ldr	pc, [pc, #20]	; 20 <_undefined_instruction_SdRamPart>
   8:	e59ff014 	ldr	pc, [pc, #20]	; 24 <_software_interrupt_SdRamPart>
   c:	e59ff014 	ldr	pc, [pc, #20]	; 28 <_prefetch_abort_SdRamPart>
  10:	e59ff014 	ldr	pc, [pc, #20]	; 2c <_data_abort_SdRamPart>
  14:	e59ff014 	ldr	pc, [pc, #20]	; 30 <_not_used_SdRamPart>
  18:	e59ff014 	ldr	pc, [pc, #20]	; 34 <_irq_SdRamPart>
  1c:	e59ff014 	ldr	pc, [pc, #20]	; 38 <_fiq_SdRamPart>

00000020 <_undefined_instruction_SdRamPart>:
  20:	00000040 	.word	0x00000040

00000024 <_software_interrupt_SdRamPart>:
  24:	00000040 	.word	0x00000040

00000028 <_prefetch_abort_SdRamPart>:
  28:	00000040 	.word	0x00000040

0000002c <_data_abort_SdRamPart>:
  2c:	00000040 	.word	0x00000040

00000030 <_not_used_SdRamPart>:
  30:	00000040 	.word	0x00000040

00000034 <_irq_SdRamPart>:
  34:	0000000c 	.word	0x0000000c

00000038 <_fiq_SdRamPart>:
  38:	00000040 	.word	0x00000040
  3c:	deadbeef 	.word	0xdeadbeef

00000040 <data_abort_SdRamPart>:
  40:	ebfffffe 	bl	40 <data_abort_SdRamPart>

00000044 <reset_SdRamPart>:
  44:	e10f0000 	mrs	r0, CPSR
  48:	e200101f 	and	r1, r0, #31
  4c:	e331001a 	teq	r1, #26
  50:	13c0001f 	bicne	r0, r0, #31
  54:	13800013 	orrne	r0, r0, #19
  58:	e38000c0 	orr	r0, r0, #192	; 0xc0
  5c:	e129f000 	msr	CPSR_fc, r0
  60:	ee110f10 	mrc	15, 0, r0, cr1, cr0, {0}
  64:	e3c00a02 	bic	r0, r0, #8192	; 0x2000
  68:	ee010f10 	mcr	15, 0, r0, cr1, cr0, {0}
  6c:	e59f006c 	ldr	r0, [pc, #108]	; e0 <cpu_init_cp15_SdRamPart+0x54>
  70:	ee0c0f10 	mcr	15, 0, r0, cr12, cr0, {0}
  74:	eb000004 	bl	8c <cpu_init_cp15_SdRamPart>
  78:	ebfffffe 	bl	0 <SdRamMain>

0000007c <c_runtime_cpu_setup_SdRamPart>:
  7c:	ee070f15 	mcr	15, 0, r0, cr7, cr5, {0}
  80:	ee070f9a 	mcr	15, 0, r0, cr7, cr10, {4}
  84:	ee070f95 	mcr	15, 0, r0, cr7, cr5, {4}
  88:	e12fff1e 	bx	lr

0000008c <cpu_init_cp15_SdRamPart>:
  8c:	e3a00000 	mov	r0, #0
  90:	ee080f17 	mcr	15, 0, r0, cr8, cr7, {0}
  94:	ee070f15 	mcr	15, 0, r0, cr7, cr5, {0}
  98:	ee070fd5 	mcr	15, 0, r0, cr7, cr5, {6}
  9c:	ee070f9a 	mcr	15, 0, r0, cr7, cr10, {4}
  a0:	ee070f95 	mcr	15, 0, r0, cr7, cr5, {4}
  a4:	ee110f10 	mrc	15, 0, r0, cr1, cr0, {0}
  a8:	e3c00a02 	bic	r0, r0, #8192	; 0x2000
  ac:	e3c00007 	bic	r0, r0, #7
  b0:	e3800002 	orr	r0, r0, #2
  b4:	e3800b02 	orr	r0, r0, #2048	; 0x800
  b8:	e3800a01 	orr	r0, r0, #4096	; 0x1000
  bc:	ee010f10 	mcr	15, 0, r0, cr1, cr0, {0}
  c0:	e1a0500e 	mov	r5, lr
  c4:	ee101f10 	mrc	15, 0, r1, cr0, cr0, {0}
  c8:	e1a03a21 	lsr	r3, r1, #20
  cc:	e203300f 	and	r3, r3, #15
  d0:	e201400f 	and	r4, r1, #15
  d4:	e1a02203 	lsl	r2, r3, #4
  d8:	e1842002 	orr	r2, r4, r2
  dc:	e1a0f005 	mov	pc, r5
  e0:	00000000 	.word	0x00000000

Disassembly of section .mainSdRamPart:

00000000 <_mainSdRamPart>:
   0:	e59f0028 	ldr	r0, [pc, #40]	; 30 <UartData+0x4>
   4:	ee0c0f10 	mcr	15, 0, r0, cr12, cr0, {0}
   8:	ebfffffe 	bl	0 <SdRamMain>

0000000c <irq_SdRamPart>:
   c:	e92d40ff 	push	{r0, r1, r2, r3, r4, r5, r6, r7, lr}
  10:	ebfffffe 	bl	0 <alt_int_handler_irq>
  14:	e8bd40ff 	pop	{r0, r1, r2, r3, r4, r5, r6, r7, lr}
  18:	e25ef004 	subs	pc, lr, #4

0000001c <lirq_SdRamPart>:
  1c:	ebfffffe 	bl	1c <lirq_SdRamPart>

00000020 <LedValue>:
  20:	01000000 	.word	0x01000000

00000024 <LedData>:
  24:	ff709000 	.word	0xff709000

00000028 <UartValue>:
  28:	00000055 	.word	0x00000055

0000002c <UartData>:
  2c:	ffc02000 	.word	0xffc02000
  30:	00000000 	.word	0x00000000
