
SdRamStart.o:     file format elf32-littlearm


Disassembly of section .vectorsSdRam:

00000000 <_start_SdRamPart>:
   0:	ea000001 	b	c <_start_SdRamPart+0xc>
   4:	e59ff014 	ldr	pc, [pc, #20]	; 20 <_undefined_instruction_SdRamPart>
   8:	e59ff014 	ldr	pc, [pc, #20]	; 24 <_software_interrupt_SdRamPart>
   c:	e59ff014 	ldr	pc, [pc, #20]	; 28 <_prefetch_abort_SdRamPart>
  10:	e59ff014 	ldr	pc, [pc, #20]	; 2c <_data_abort_SdRamPart>
  14:	e59ff014 	ldr	pc, [pc, #20]	; 30 <_not_used_SdRamPart>
  18:	e59ff014 	ldr	pc, [pc, #20]	; 34 <_irq_SdRamPart>
  1c:	e59ff014 	ldr	pc, [pc, #20]	; 38 <_fiq_SdRamPart>

00000020 <_undefined_instruction_SdRamPart>:
  20:	00000040 	.word	0x00000040

00000024 <_software_interrupt_SdRamPart>:
  24:	00000040 	.word	0x00000040

00000028 <_prefetch_abort_SdRamPart>:
  28:	00000040 	.word	0x00000040

0000002c <_data_abort_SdRamPart>:
  2c:	00000040 	.word	0x00000040

00000030 <_not_used_SdRamPart>:
  30:	00000040 	.word	0x00000040

00000034 <_irq_SdRamPart>:
  34:	000000f4 	.word	0x000000f4

00000038 <_fiq_SdRamPart>:
  38:	00000040 	.word	0x00000040
  3c:	deadbeef 	.word	0xdeadbeef

00000040 <data_abort_SdRamPart>:
  40:	ebfffffe 	bl	40 <data_abort_SdRamPart>

Disassembly of section .mainSdRamPart:

00000000 <_mainSdRamPart>:
   0:	e59f0108 	ldr	r0, [pc, #264]	; 110 <UartData+0x4>
   4:	ee0c0f10 	mcr	15, 0, r0, cr12, cr0, {0}
   8:	ebfffffe 	bl	0 <SdRamMain>

0000000c <reset_SdRamPart>:
   c:	e10f0000 	mrs	r0, CPSR
  10:	e200101f 	and	r1, r0, #31
  14:	e331001a 	teq	r1, #26
  18:	13c0001f 	bicne	r0, r0, #31
  1c:	13800013 	orrne	r0, r0, #19
  20:	e38000c0 	orr	r0, r0, #192	; 0xc0
  24:	e129f000 	msr	CPSR_fc, r0
  28:	ee110f10 	mrc	15, 0, r0, cr1, cr0, {0}
  2c:	e3c00a02 	bic	r0, r0, #8192	; 0x2000
  30:	ee010f10 	mcr	15, 0, r0, cr1, cr0, {0}
  34:	e59f00d4 	ldr	r0, [pc, #212]	; 110 <UartData+0x4>
  38:	ee0c0f10 	mcr	15, 0, r0, cr12, cr0, {0}
  3c:	eb000017 	bl	a0 <cpu_init_cp15_SdRamPart>
  40:	e59f00c8 	ldr	r0, [pc, #200]	; 110 <UartData+0x4>
  44:	ee0c0f10 	mcr	15, 0, r0, cr12, cr0, {0}
  48:	e59f00c4 	ldr	r0, [pc, #196]	; 114 <UartData+0x8>
  4c:	e3c00007 	bic	r0, r0, #7
  50:	e1a0d000 	mov	sp, r0
  54:	e1a09000 	mov	r9, r0
  58:	e3a00000 	mov	r0, #0
  5c:	ee101fb0 	mrc	15, 0, r1, cr0, cr0, {5}
  60:	e20110ff 	and	r1, r1, #255	; 0xff
  64:	e3510001 	cmp	r1, #1
  68:	1a000005 	bne	84 <JumpCpu1Code>
  6c:	e3a00031 	mov	r0, #49	; 0x31
  70:	e59f10a0 	ldr	r1, [pc, #160]	; 118 <UartData+0xc>
  74:	e5810000 	str	r0, [r1]
  78:	e59f0008 	ldr	r0, [pc, #8]	; 88 <LedValue>
  7c:	e59f1008 	ldr	r1, [pc, #8]	; 8c <LedData>
  80:	e5810000 	str	r0, [r1]

00000084 <JumpCpu1Code>:
  84:	ebfffffe 	bl	0 <Cpu1Code>

00000088 <LedValue>:
  88:	01000000 	.word	0x01000000

0000008c <LedData>:
  8c:	ff709000 	.word	0xff709000

00000090 <c_runtime_cpu_setup_SdRamPart>:
  90:	ee070f15 	mcr	15, 0, r0, cr7, cr5, {0}
  94:	ee070f9a 	mcr	15, 0, r0, cr7, cr10, {4}
  98:	ee070f95 	mcr	15, 0, r0, cr7, cr5, {4}
  9c:	e12fff1e 	bx	lr

000000a0 <cpu_init_cp15_SdRamPart>:
  a0:	e3a00000 	mov	r0, #0
  a4:	ee080f17 	mcr	15, 0, r0, cr8, cr7, {0}
  a8:	ee070f15 	mcr	15, 0, r0, cr7, cr5, {0}
  ac:	ee070fd5 	mcr	15, 0, r0, cr7, cr5, {6}
  b0:	ee070f9a 	mcr	15, 0, r0, cr7, cr10, {4}
  b4:	ee070f95 	mcr	15, 0, r0, cr7, cr5, {4}
  b8:	ee110f10 	mrc	15, 0, r0, cr1, cr0, {0}
  bc:	e3c00a02 	bic	r0, r0, #8192	; 0x2000
  c0:	e3c00007 	bic	r0, r0, #7
  c4:	e3800002 	orr	r0, r0, #2
  c8:	e3800b02 	orr	r0, r0, #2048	; 0x800
  cc:	e3800a01 	orr	r0, r0, #4096	; 0x1000
  d0:	ee010f10 	mcr	15, 0, r0, cr1, cr0, {0}
  d4:	e1a0500e 	mov	r5, lr
  d8:	ee101f10 	mrc	15, 0, r1, cr0, cr0, {0}
  dc:	e1a03a21 	lsr	r3, r1, #20
  e0:	e203300f 	and	r3, r3, #15
  e4:	e201400f 	and	r4, r1, #15
  e8:	e1a02203 	lsl	r2, r3, #4
  ec:	e1842002 	orr	r2, r4, r2
  f0:	e1a0f005 	mov	pc, r5

000000f4 <irq_SdRamPart>:
  f4:	e92d40ff 	push	{r0, r1, r2, r3, r4, r5, r6, r7, lr}
  f8:	ebfffffe 	bl	0 <alt_int_handler_irq>
  fc:	e8bd40ff 	pop	{r0, r1, r2, r3, r4, r5, r6, r7, lr}
 100:	e25ef004 	subs	pc, lr, #4

00000104 <lirq_SdRamPart>:
 104:	ebfffffe 	bl	104 <lirq_SdRamPart>

00000108 <UartValue>:
 108:	00000055 	.word	0x00000055

0000010c <UartData>:
 10c:	ffc02000 	.word	0xffc02000
 110:	00000000 	.word	0x00000000
 114:	fffff000 	.word	0xfffff000
 118:	ffc02000 	.word	0xffc02000
